Archive member included to satisfy reference by file (symbol)

c:/program files (x86)/gnu arm embedded toolchain/9 2020-q2-update/bin/../lib/gcc/arm-none-eabi/9.3.1/thumb/v7e-m+dp/hard\libgcc.a(_arm_addsubdf3.o)
                              ./fcapplication/sentence.o (__aeabi_l2d)
c:/program files (x86)/gnu arm embedded toolchain/9 2020-q2-update/bin/../lib/gcc/arm-none-eabi/9.3.1/thumb/v7e-m+dp/hard\libgcc.a(_aeabi_ldivmod.o)
                              ./fcapplication/stm32h7xx_hal_uart.o (__aeabi_ldivmod)
c:/program files (x86)/gnu arm embedded toolchain/9 2020-q2-update/bin/../lib/gcc/arm-none-eabi/9.3.1/thumb/v7e-m+dp/hard\libgcc.a(_aeabi_uldivmod.o)
                              ./fcapplication/oshooks.o (__aeabi_uldivmod)
c:/program files (x86)/gnu arm embedded toolchain/9 2020-q2-update/bin/../lib/gcc/arm-none-eabi/9.3.1/thumb/v7e-m+dp/hard\libgcc.a(_fixdfdi.o)
                              ./fcapplication/log.o (__aeabi_d2lz)
c:/program files (x86)/gnu arm embedded toolchain/9 2020-q2-update/bin/../lib/gcc/arm-none-eabi/9.3.1/thumb/v7e-m+dp/hard\libgcc.a(_fixunsdfdi.o)
                              c:/program files (x86)/gnu arm embedded toolchain/9 2020-q2-update/bin/../lib/gcc/arm-none-eabi/9.3.1/thumb/v7e-m+dp/hard\libgcc.a(_fixdfdi.o) (__aeabi_d2ulz)
c:/program files (x86)/gnu arm embedded toolchain/9 2020-q2-update/bin/../lib/gcc/arm-none-eabi/9.3.1/thumb/v7e-m+dp/hard\libgcc.a(_udivmoddi4.o)
                              c:/program files (x86)/gnu arm embedded toolchain/9 2020-q2-update/bin/../lib/gcc/arm-none-eabi/9.3.1/thumb/v7e-m+dp/hard\libgcc.a(_aeabi_ldivmod.o) (__udivmoddi4)
c:/program files (x86)/gnu arm embedded toolchain/9 2020-q2-update/bin/../lib/gcc/arm-none-eabi/9.3.1/thumb/v7e-m+dp/hard\libgcc.a(_dvmd_tls.o)
                              c:/program files (x86)/gnu arm embedded toolchain/9 2020-q2-update/bin/../lib/gcc/arm-none-eabi/9.3.1/thumb/v7e-m+dp/hard\libgcc.a(_aeabi_ldivmod.o) (__aeabi_ldiv0)
c:/program files (x86)/gnu arm embedded toolchain/9 2020-q2-update/bin/../lib/gcc/arm-none-eabi/9.3.1/../../../../arm-none-eabi/lib/thumb/v7e-m+dp/hard\libc.a(lib_a-atexit.o)
                              ./fcapplication/csphandler.o (atexit)
c:/program files (x86)/gnu arm embedded toolchain/9 2020-q2-update/bin/../lib/gcc/arm-none-eabi/9.3.1/../../../../arm-none-eabi/lib/thumb/v7e-m+dp/hard\libc.a(lib_a-atof.o)
                              ./fcapplication/sentence.o (atof)
c:/program files (x86)/gnu arm embedded toolchain/9 2020-q2-update/bin/../lib/gcc/arm-none-eabi/9.3.1/../../../../arm-none-eabi/lib/thumb/v7e-m+dp/hard\libc.a(lib_a-atoi.o)
                              ./fcapplication/sentence.o (atoi)
c:/program files (x86)/gnu arm embedded toolchain/9 2020-q2-update/bin/../lib/gcc/arm-none-eabi/9.3.1/../../../../arm-none-eabi/lib/thumb/v7e-m+dp/hard\libc.a(lib_a-exit.o)
                              c:/program files (x86)/gnu arm embedded toolchain/9 2020-q2-update/bin/../lib/gcc/arm-none-eabi/9.3.1/../../../../arm-none-eabi/lib/thumb/v7e-m+dp/hard/crt0.o (exit)
c:/program files (x86)/gnu arm embedded toolchain/9 2020-q2-update/bin/../lib/gcc/arm-none-eabi/9.3.1/../../../../arm-none-eabi/lib/thumb/v7e-m+dp/hard\libc.a(lib_a-impure.o)
                              c:/program files (x86)/gnu arm embedded toolchain/9 2020-q2-update/bin/../lib/gcc/arm-none-eabi/9.3.1/../../../../arm-none-eabi/lib/thumb/v7e-m+dp/hard\libc.a(lib_a-exit.o) (_global_impure_ptr)
c:/program files (x86)/gnu arm embedded toolchain/9 2020-q2-update/bin/../lib/gcc/arm-none-eabi/9.3.1/../../../../arm-none-eabi/lib/thumb/v7e-m+dp/hard\libc.a(lib_a-init.o)
                              c:/program files (x86)/gnu arm embedded toolchain/9 2020-q2-update/bin/../lib/gcc/arm-none-eabi/9.3.1/../../../../arm-none-eabi/lib/thumb/v7e-m+dp/hard/crt0.o (__libc_init_array)
c:/program files (x86)/gnu arm embedded toolchain/9 2020-q2-update/bin/../lib/gcc/arm-none-eabi/9.3.1/../../../../arm-none-eabi/lib/thumb/v7e-m+dp/hard\libc.a(lib_a-isalpha.o)
                              ./fcapplication/clihelpers.o (isalpha)
c:/program files (x86)/gnu arm embedded toolchain/9 2020-q2-update/bin/../lib/gcc/arm-none-eabi/9.3.1/../../../../arm-none-eabi/lib/thumb/v7e-m+dp/hard\libc.a(lib_a-isprint.o)
                              ./fcapplication/clihelpers.o (isprint)
c:/program files (x86)/gnu arm embedded toolchain/9 2020-q2-update/bin/../lib/gcc/arm-none-eabi/9.3.1/../../../../arm-none-eabi/lib/thumb/v7e-m+dp/hard\libc.a(lib_a-lcltime.o)
                              ./fcapplication/log.o (localtime)
c:/program files (x86)/gnu arm embedded toolchain/9 2020-q2-update/bin/../lib/gcc/arm-none-eabi/9.3.1/../../../../arm-none-eabi/lib/thumb/v7e-m+dp/hard\libc.a(lib_a-lcltime_r.o)
                              ./fcapplication/rtcbase.o (localtime_r)
c:/program files (x86)/gnu arm embedded toolchain/9 2020-q2-update/bin/../lib/gcc/arm-none-eabi/9.3.1/../../../../arm-none-eabi/lib/thumb/v7e-m+dp/hard\libc.a(lib_a-memcmp.o)
                              ./fcapplication/csp_crc32.o (memcmp)
c:/program files (x86)/gnu arm embedded toolchain/9 2020-q2-update/bin/../lib/gcc/arm-none-eabi/9.3.1/../../../../arm-none-eabi/lib/thumb/v7e-m+dp/hard\libc.a(lib_a-memcpy.o)
                              ./fcapplication/mainofapplication.o (memcpy)
c:/program files (x86)/gnu arm embedded toolchain/9 2020-q2-update/bin/../lib/gcc/arm-none-eabi/9.3.1/../../../../arm-none-eabi/lib/thumb/v7e-m+dp/hard\libc.a(lib_a-memmove.o)
                              ./fcapplication/adcsapp.o (memmove)
c:/program files (x86)/gnu arm embedded toolchain/9 2020-q2-update/bin/../lib/gcc/arm-none-eabi/9.3.1/../../../../arm-none-eabi/lib/thumb/v7e-m+dp/hard\libc.a(lib_a-memset.o)
                              c:/program files (x86)/gnu arm embedded toolchain/9 2020-q2-update/bin/../lib/gcc/arm-none-eabi/9.3.1/../../../../arm-none-eabi/lib/thumb/v7e-m+dp/hard/crt0.o (memset)
c:/program files (x86)/gnu arm embedded toolchain/9 2020-q2-update/bin/../lib/gcc/arm-none-eabi/9.3.1/../../../../arm-none-eabi/lib/thumb/v7e-m+dp/hard\libc.a(lib_a-mktime.o)
                              ./fcapplication/sentence.o (mktime)
c:/program files (x86)/gnu arm embedded toolchain/9 2020-q2-update/bin/../lib/gcc/arm-none-eabi/9.3.1/../../../../arm-none-eabi/lib/thumb/v7e-m+dp/hard\libc.a(lib_a-month_lengths.o)
                              c:/program files (x86)/gnu arm embedded toolchain/9 2020-q2-update/bin/../lib/gcc/arm-none-eabi/9.3.1/../../../../arm-none-eabi/lib/thumb/v7e-m+dp/hard\libc.a(lib_a-lcltime_r.o) (__month_lengths)
c:/program files (x86)/gnu arm embedded toolchain/9 2020-q2-update/bin/../lib/gcc/arm-none-eabi/9.3.1/../../../../arm-none-eabi/lib/thumb/v7e-m+dp/hard\libc.a(lib_a-printf.o)
                              ./fcapplication/csp_conn.o (printf)
c:/program files (x86)/gnu arm embedded toolchain/9 2020-q2-update/bin/../lib/gcc/arm-none-eabi/9.3.1/../../../../arm-none-eabi/lib/thumb/v7e-m+dp/hard\libc.a(lib_a-rand.o)
                              ./fcapplication/csp_conn.o (srand)
c:/program files (x86)/gnu arm embedded toolchain/9 2020-q2-update/bin/../lib/gcc/arm-none-eabi/9.3.1/../../../../arm-none-eabi/lib/thumb/v7e-m+dp/hard\libc.a(lib_a-s_nan.o)
                              ./fcapplication/sentence.o (nan)
c:/program files (x86)/gnu arm embedded toolchain/9 2020-q2-update/bin/../lib/gcc/arm-none-eabi/9.3.1/../../../../arm-none-eabi/lib/thumb/v7e-m+dp/hard\libc.a(lib_a-snprintf.o)
                              ./fcapplication/csp_conn.o (snprintf)
c:/program files (x86)/gnu arm embedded toolchain/9 2020-q2-update/bin/../lib/gcc/arm-none-eabi/9.3.1/../../../../arm-none-eabi/lib/thumb/v7e-m+dp/hard\libc.a(lib_a-sprintf.o)
                              ./fcapplication/commands.o (sprintf)
c:/program files (x86)/gnu arm embedded toolchain/9 2020-q2-update/bin/../lib/gcc/arm-none-eabi/9.3.1/../../../../arm-none-eabi/lib/thumb/v7e-m+dp/hard\libc.a(lib_a-sscanf.o)
                              ./fcapplication/na_sgp4.o (sscanf)
c:/program files (x86)/gnu arm embedded toolchain/9 2020-q2-update/bin/../lib/gcc/arm-none-eabi/9.3.1/../../../../arm-none-eabi/lib/thumb/v7e-m+dp/hard\libc.a(lib_a-stdio.o)
                              c:/program files (x86)/gnu arm embedded toolchain/9 2020-q2-update/bin/../lib/gcc/arm-none-eabi/9.3.1/../../../../arm-none-eabi/lib/thumb/v7e-m+dp/hard\libc.a(lib_a-sscanf.o) (__seofread)
c:/program files (x86)/gnu arm embedded toolchain/9 2020-q2-update/bin/../lib/gcc/arm-none-eabi/9.3.1/../../../../arm-none-eabi/lib/thumb/v7e-m+dp/hard\libc.a(lib_a-strcat.o)
                              ./fcapplication/na_arraymath.o (strcat)
c:/program files (x86)/gnu arm embedded toolchain/9 2020-q2-update/bin/../lib/gcc/arm-none-eabi/9.3.1/../../../../arm-none-eabi/lib/thumb/v7e-m+dp/hard\libc.a(lib_a-strchr.o)
                              ./fcapplication/sentence.o (strchr)
c:/program files (x86)/gnu arm embedded toolchain/9 2020-q2-update/bin/../lib/gcc/arm-none-eabi/9.3.1/../../../../arm-none-eabi/lib/thumb/v7e-m+dp/hard\libc.a(lib_a-strcmp.o)
                              ./fcapplication/cmdadc.o (strcmp)
c:/program files (x86)/gnu arm embedded toolchain/9 2020-q2-update/bin/../lib/gcc/arm-none-eabi/9.3.1/../../../../arm-none-eabi/lib/thumb/v7e-m+dp/hard\libc.a(lib_a-strcpy.o)
                              ./fcapplication/commands.o (strcpy)
c:/program files (x86)/gnu arm embedded toolchain/9 2020-q2-update/bin/../lib/gcc/arm-none-eabi/9.3.1/../../../../arm-none-eabi/lib/thumb/v7e-m+dp/hard\libc.a(lib_a-strlen.o)
                              ./fcapplication/mainofapplication.o (strlen)
c:/program files (x86)/gnu arm embedded toolchain/9 2020-q2-update/bin/../lib/gcc/arm-none-eabi/9.3.1/../../../../arm-none-eabi/lib/thumb/v7e-m+dp/hard\libc.a(lib_a-strncat.o)
                              ./fcapplication/csp_conn.o (strncat)
c:/program files (x86)/gnu arm embedded toolchain/9 2020-q2-update/bin/../lib/gcc/arm-none-eabi/9.3.1/../../../../arm-none-eabi/lib/thumb/v7e-m+dp/hard\libc.a(lib_a-strncmp.o)
                              ./fcapplication/csp_iflist.o (strncmp)
c:/program files (x86)/gnu arm embedded toolchain/9 2020-q2-update/bin/../lib/gcc/arm-none-eabi/9.3.1/../../../../arm-none-eabi/lib/thumb/v7e-m+dp/hard\libc.a(lib_a-strncpy.o)
                              ./fcapplication/csp_service_handler.o (strncpy)
c:/program files (x86)/gnu arm embedded toolchain/9 2020-q2-update/bin/../lib/gcc/arm-none-eabi/9.3.1/../../../../arm-none-eabi/lib/thumb/v7e-m+dp/hard\libc.a(lib_a-strtod.o)
                              ./fcapplication/configclicommands.o (strtod)
c:/program files (x86)/gnu arm embedded toolchain/9 2020-q2-update/bin/../lib/gcc/arm-none-eabi/9.3.1/../../../../arm-none-eabi/lib/thumb/v7e-m+dp/hard\libc.a(lib_a-strtol.o)
                              c:/program files (x86)/gnu arm embedded toolchain/9 2020-q2-update/bin/../lib/gcc/arm-none-eabi/9.3.1/../../../../arm-none-eabi/lib/thumb/v7e-m+dp/hard\libc.a(lib_a-atoi.o) (_strtol_r)
c:/program files (x86)/gnu arm embedded toolchain/9 2020-q2-update/bin/../lib/gcc/arm-none-eabi/9.3.1/../../../../arm-none-eabi/lib/thumb/v7e-m+dp/hard\libc.a(lib_a-strtoul.o)
                              ./fcapplication/commands.o (strtoul)
c:/program files (x86)/gnu arm embedded toolchain/9 2020-q2-update/bin/../lib/gcc/arm-none-eabi/9.3.1/../../../../arm-none-eabi/lib/thumb/v7e-m+dp/hard\libc.a(lib_a-strtoull.o)
                              ./fcapplication/clihelpers.o (strtoull)
c:/program files (x86)/gnu arm embedded toolchain/9 2020-q2-update/bin/../lib/gcc/arm-none-eabi/9.3.1/../../../../arm-none-eabi/lib/thumb/v7e-m+dp/hard\libc.a(lib_a-svfprintf.o)
                              c:/program files (x86)/gnu arm embedded toolchain/9 2020-q2-update/bin/../lib/gcc/arm-none-eabi/9.3.1/../../../../arm-none-eabi/lib/thumb/v7e-m+dp/hard\libc.a(lib_a-snprintf.o) (_svfprintf_r)
c:/program files (x86)/gnu arm embedded toolchain/9 2020-q2-update/bin/../lib/gcc/arm-none-eabi/9.3.1/../../../../arm-none-eabi/lib/thumb/v7e-m+dp/hard\libc.a(lib_a-svfscanf.o)
                              c:/program files (x86)/gnu arm embedded toolchain/9 2020-q2-update/bin/../lib/gcc/arm-none-eabi/9.3.1/../../../../arm-none-eabi/lib/thumb/v7e-m+dp/hard\libc.a(lib_a-sscanf.o) (__ssvfscanf_r)
c:/program files (x86)/gnu arm embedded toolchain/9 2020-q2-update/bin/../lib/gcc/arm-none-eabi/9.3.1/../../../../arm-none-eabi/lib/thumb/v7e-m+dp/hard\libc.a(lib_a-tolower.o)
                              ./fcapplication/cli.o (tolower)
c:/program files (x86)/gnu arm embedded toolchain/9 2020-q2-update/bin/../lib/gcc/arm-none-eabi/9.3.1/../../../../arm-none-eabi/lib/thumb/v7e-m+dp/hard\libc.a(lib_a-tzcalc_limits.o)
                              c:/program files (x86)/gnu arm embedded toolchain/9 2020-q2-update/bin/../lib/gcc/arm-none-eabi/9.3.1/../../../../arm-none-eabi/lib/thumb/v7e-m+dp/hard\libc.a(lib_a-lcltime_r.o) (__tzcalc_limits)
c:/program files (x86)/gnu arm embedded toolchain/9 2020-q2-update/bin/../lib/gcc/arm-none-eabi/9.3.1/../../../../arm-none-eabi/lib/thumb/v7e-m+dp/hard\libc.a(lib_a-tzlock.o)
                              c:/program files (x86)/gnu arm embedded toolchain/9 2020-q2-update/bin/../lib/gcc/arm-none-eabi/9.3.1/../../../../arm-none-eabi/lib/thumb/v7e-m+dp/hard\libc.a(lib_a-lcltime_r.o) (__tz_lock)
c:/program files (x86)/gnu arm embedded toolchain/9 2020-q2-update/bin/../lib/gcc/arm-none-eabi/9.3.1/../../../../arm-none-eabi/lib/thumb/v7e-m+dp/hard\libc.a(lib_a-tzset.o)
                              c:/program files (x86)/gnu arm embedded toolchain/9 2020-q2-update/bin/../lib/gcc/arm-none-eabi/9.3.1/../../../../arm-none-eabi/lib/thumb/v7e-m+dp/hard\libc.a(lib_a-lcltime_r.o) (_tzset_unlocked)
c:/program files (x86)/gnu arm embedded toolchain/9 2020-q2-update/bin/../lib/gcc/arm-none-eabi/9.3.1/../../../../arm-none-eabi/lib/thumb/v7e-m+dp/hard\libc.a(lib_a-tzset_r.o)
                              c:/program files (x86)/gnu arm embedded toolchain/9 2020-q2-update/bin/../lib/gcc/arm-none-eabi/9.3.1/../../../../arm-none-eabi/lib/thumb/v7e-m+dp/hard\libc.a(lib_a-tzset.o) (_tzset_unlocked_r)
c:/program files (x86)/gnu arm embedded toolchain/9 2020-q2-update/bin/../lib/gcc/arm-none-eabi/9.3.1/../../../../arm-none-eabi/lib/thumb/v7e-m+dp/hard\libc.a(lib_a-tzvars.o)
                              c:/program files (x86)/gnu arm embedded toolchain/9 2020-q2-update/bin/../lib/gcc/arm-none-eabi/9.3.1/../../../../arm-none-eabi/lib/thumb/v7e-m+dp/hard\libc.a(lib_a-tzset_r.o) (_timezone)
c:/program files (x86)/gnu arm embedded toolchain/9 2020-q2-update/bin/../lib/gcc/arm-none-eabi/9.3.1/../../../../arm-none-eabi/lib/thumb/v7e-m+dp/hard\libc.a(lib_a-vfprintf.o)
                              c:/program files (x86)/gnu arm embedded toolchain/9 2020-q2-update/bin/../lib/gcc/arm-none-eabi/9.3.1/../../../../arm-none-eabi/lib/thumb/v7e-m+dp/hard\libc.a(lib_a-printf.o) (_vfprintf_r)
c:/program files (x86)/gnu arm embedded toolchain/9 2020-q2-update/bin/../lib/gcc/arm-none-eabi/9.3.1/../../../../arm-none-eabi/lib/thumb/v7e-m+dp/hard\libc.a(lib_a-vsnprintf.o)
                              ./fcapplication/log.o (vsnprintf)
c:/program files (x86)/gnu arm embedded toolchain/9 2020-q2-update/bin/../lib/gcc/arm-none-eabi/9.3.1/../../../../arm-none-eabi/lib/thumb/v7e-m+dp/hard\libc.a(lib_a-writer.o)
                              c:/program files (x86)/gnu arm embedded toolchain/9 2020-q2-update/bin/../lib/gcc/arm-none-eabi/9.3.1/../../../../arm-none-eabi/lib/thumb/v7e-m+dp/hard\libc.a(lib_a-stdio.o) (_write_r)
c:/program files (x86)/gnu arm embedded toolchain/9 2020-q2-update/bin/../lib/gcc/arm-none-eabi/9.3.1/../../../../arm-none-eabi/lib/thumb/v7e-m+dp/hard\libc.a(lib_a-wsetup.o)
                              c:/program files (x86)/gnu arm embedded toolchain/9 2020-q2-update/bin/../lib/gcc/arm-none-eabi/9.3.1/../../../../arm-none-eabi/lib/thumb/v7e-m+dp/hard\libc.a(lib_a-vfprintf.o) (__swsetup_r)
c:/program files (x86)/gnu arm embedded toolchain/9 2020-q2-update/bin/../lib/gcc/arm-none-eabi/9.3.1/../../../../arm-none-eabi/lib/thumb/v7e-m+dp/hard\libc.a(lib_a-__atexit.o)
                              c:/program files (x86)/gnu arm embedded toolchain/9 2020-q2-update/bin/../lib/gcc/arm-none-eabi/9.3.1/../../../../arm-none-eabi/lib/thumb/v7e-m+dp/hard\libc.a(lib_a-atexit.o) (__register_exitproc)
c:/program files (x86)/gnu arm embedded toolchain/9 2020-q2-update/bin/../lib/gcc/arm-none-eabi/9.3.1/../../../../arm-none-eabi/lib/thumb/v7e-m+dp/hard\libc.a(lib_a-__call_atexit.o)
                              c:/program files (x86)/gnu arm embedded toolchain/9 2020-q2-update/bin/../lib/gcc/arm-none-eabi/9.3.1/../../../../arm-none-eabi/lib/thumb/v7e-m+dp/hard\libc.a(lib_a-exit.o) (__call_exitprocs)
c:/program files (x86)/gnu arm embedded toolchain/9 2020-q2-update/bin/../lib/gcc/arm-none-eabi/9.3.1/../../../../arm-none-eabi/lib/thumb/v7e-m+dp/hard\libc.a(lib_a-closer.o)
                              c:/program files (x86)/gnu arm embedded toolchain/9 2020-q2-update/bin/../lib/gcc/arm-none-eabi/9.3.1/../../../../arm-none-eabi/lib/thumb/v7e-m+dp/hard\libc.a(lib_a-stdio.o) (_close_r)
c:/program files (x86)/gnu arm embedded toolchain/9 2020-q2-update/bin/../lib/gcc/arm-none-eabi/9.3.1/../../../../arm-none-eabi/lib/thumb/v7e-m+dp/hard\libc.a(lib_a-ctype_.o)
                              c:/program files (x86)/gnu arm embedded toolchain/9 2020-q2-update/bin/../lib/gcc/arm-none-eabi/9.3.1/../../../../arm-none-eabi/lib/thumb/v7e-m+dp/hard\libc.a(lib_a-isalpha.o) (_ctype_)
c:/program files (x86)/gnu arm embedded toolchain/9 2020-q2-update/bin/../lib/gcc/arm-none-eabi/9.3.1/../../../../arm-none-eabi/lib/thumb/v7e-m+dp/hard\libc.a(lib_a-div.o)
                              c:/program files (x86)/gnu arm embedded toolchain/9 2020-q2-update/bin/../lib/gcc/arm-none-eabi/9.3.1/../../../../arm-none-eabi/lib/thumb/v7e-m+dp/hard\libc.a(lib_a-mktime.o) (div)
c:/program files (x86)/gnu arm embedded toolchain/9 2020-q2-update/bin/../lib/gcc/arm-none-eabi/9.3.1/../../../../arm-none-eabi/lib/thumb/v7e-m+dp/hard\libc.a(lib_a-dtoa.o)
                              c:/program files (x86)/gnu arm embedded toolchain/9 2020-q2-update/bin/../lib/gcc/arm-none-eabi/9.3.1/../../../../arm-none-eabi/lib/thumb/v7e-m+dp/hard\libc.a(lib_a-svfprintf.o) (_dtoa_r)
c:/program files (x86)/gnu arm embedded toolchain/9 2020-q2-update/bin/../lib/gcc/arm-none-eabi/9.3.1/../../../../arm-none-eabi/lib/thumb/v7e-m+dp/hard\libc.a(lib_a-errno.o)
                              c:/program files (x86)/gnu arm embedded toolchain/9 2020-q2-update/bin/../lib/gcc/arm-none-eabi/9.3.1/../../../../arm-none-eabi/lib/thumb/v7e-m+dp/hard\libc.a(lib_a-strtol.o) (__errno)
c:/program files (x86)/gnu arm embedded toolchain/9 2020-q2-update/bin/../lib/gcc/arm-none-eabi/9.3.1/../../../../arm-none-eabi/lib/thumb/v7e-m+dp/hard\libc.a(lib_a-fflush.o)
                              c:/program files (x86)/gnu arm embedded toolchain/9 2020-q2-update/bin/../lib/gcc/arm-none-eabi/9.3.1/../../../../arm-none-eabi/lib/thumb/v7e-m+dp/hard\libc.a(lib_a-vfprintf.o) (_fflush_r)
c:/program files (x86)/gnu arm embedded toolchain/9 2020-q2-update/bin/../lib/gcc/arm-none-eabi/9.3.1/../../../../arm-none-eabi/lib/thumb/v7e-m+dp/hard\libc.a(lib_a-findfp.o)
                              c:/program files (x86)/gnu arm embedded toolchain/9 2020-q2-update/bin/../lib/gcc/arm-none-eabi/9.3.1/../../../../arm-none-eabi/lib/thumb/v7e-m+dp/hard\libc.a(lib_a-vfprintf.o) (__sinit)
c:/program files (x86)/gnu arm embedded toolchain/9 2020-q2-update/bin/../lib/gcc/arm-none-eabi/9.3.1/../../../../arm-none-eabi/lib/thumb/v7e-m+dp/hard\libc.a(lib_a-fini.o)
                              c:/program files (x86)/gnu arm embedded toolchain/9 2020-q2-update/bin/../lib/gcc/arm-none-eabi/9.3.1/../../../../arm-none-eabi/lib/thumb/v7e-m+dp/hard\libc.a(lib_a-__call_atexit.o) (__libc_fini_array)
c:/program files (x86)/gnu arm embedded toolchain/9 2020-q2-update/bin/../lib/gcc/arm-none-eabi/9.3.1/../../../../arm-none-eabi/lib/thumb/v7e-m+dp/hard\libc.a(lib_a-freer.o)
                              c:/program files (x86)/gnu arm embedded toolchain/9 2020-q2-update/bin/../lib/gcc/arm-none-eabi/9.3.1/../../../../arm-none-eabi/lib/thumb/v7e-m+dp/hard\libc.a(lib_a-svfprintf.o) (_free_r)
c:/program files (x86)/gnu arm embedded toolchain/9 2020-q2-update/bin/../lib/gcc/arm-none-eabi/9.3.1/../../../../arm-none-eabi/lib/thumb/v7e-m+dp/hard\libc.a(lib_a-fwalk.o)
                              c:/program files (x86)/gnu arm embedded toolchain/9 2020-q2-update/bin/../lib/gcc/arm-none-eabi/9.3.1/../../../../arm-none-eabi/lib/thumb/v7e-m+dp/hard\libc.a(lib_a-findfp.o) (_fwalk)
c:/program files (x86)/gnu arm embedded toolchain/9 2020-q2-update/bin/../lib/gcc/arm-none-eabi/9.3.1/../../../../arm-none-eabi/lib/thumb/v7e-m+dp/hard\libc.a(lib_a-gdtoa-gethex.o)
                              c:/program files (x86)/gnu arm embedded toolchain/9 2020-q2-update/bin/../lib/gcc/arm-none-eabi/9.3.1/../../../../arm-none-eabi/lib/thumb/v7e-m+dp/hard\libc.a(lib_a-strtod.o) (__gethex)
c:/program files (x86)/gnu arm embedded toolchain/9 2020-q2-update/bin/../lib/gcc/arm-none-eabi/9.3.1/../../../../arm-none-eabi/lib/thumb/v7e-m+dp/hard\libc.a(lib_a-gdtoa-hexnan.o)
                              c:/program files (x86)/gnu arm embedded toolchain/9 2020-q2-update/bin/../lib/gcc/arm-none-eabi/9.3.1/../../../../arm-none-eabi/lib/thumb/v7e-m+dp/hard\libc.a(lib_a-strtod.o) (__match)
c:/program files (x86)/gnu arm embedded toolchain/9 2020-q2-update/bin/../lib/gcc/arm-none-eabi/9.3.1/../../../../arm-none-eabi/lib/thumb/v7e-m+dp/hard\libc.a(lib_a-getenv_r.o)
                              c:/program files (x86)/gnu arm embedded toolchain/9 2020-q2-update/bin/../lib/gcc/arm-none-eabi/9.3.1/../../../../arm-none-eabi/lib/thumb/v7e-m+dp/hard\libc.a(lib_a-tzset_r.o) (_getenv_r)
c:/program files (x86)/gnu arm embedded toolchain/9 2020-q2-update/bin/../lib/gcc/arm-none-eabi/9.3.1/../../../../arm-none-eabi/lib/thumb/v7e-m+dp/hard\libc.a(lib_a-gettzinfo.o)
                              c:/program files (x86)/gnu arm embedded toolchain/9 2020-q2-update/bin/../lib/gcc/arm-none-eabi/9.3.1/../../../../arm-none-eabi/lib/thumb/v7e-m+dp/hard\libc.a(lib_a-lcltime_r.o) (__gettzinfo)
c:/program files (x86)/gnu arm embedded toolchain/9 2020-q2-update/bin/../lib/gcc/arm-none-eabi/9.3.1/../../../../arm-none-eabi/lib/thumb/v7e-m+dp/hard\libc.a(lib_a-gmtime_r.o)
                              c:/program files (x86)/gnu arm embedded toolchain/9 2020-q2-update/bin/../lib/gcc/arm-none-eabi/9.3.1/../../../../arm-none-eabi/lib/thumb/v7e-m+dp/hard\libc.a(lib_a-lcltime_r.o) (gmtime_r)
c:/program files (x86)/gnu arm embedded toolchain/9 2020-q2-update/bin/../lib/gcc/arm-none-eabi/9.3.1/../../../../arm-none-eabi/lib/thumb/v7e-m+dp/hard\libc.a(lib_a-iswspace.o)
                              c:/program files (x86)/gnu arm embedded toolchain/9 2020-q2-update/bin/../lib/gcc/arm-none-eabi/9.3.1/../../../../arm-none-eabi/lib/thumb/v7e-m+dp/hard\libc.a(lib_a-svfscanf.o) (iswspace)
c:/program files (x86)/gnu arm embedded toolchain/9 2020-q2-update/bin/../lib/gcc/arm-none-eabi/9.3.1/../../../../arm-none-eabi/lib/thumb/v7e-m+dp/hard\libc.a(lib_a-iswspace_l.o)
                              c:/program files (x86)/gnu arm embedded toolchain/9 2020-q2-update/bin/../lib/gcc/arm-none-eabi/9.3.1/../../../../arm-none-eabi/lib/thumb/v7e-m+dp/hard\libc.a(lib_a-iswspace.o) (iswspace_l)
c:/program files (x86)/gnu arm embedded toolchain/9 2020-q2-update/bin/../lib/gcc/arm-none-eabi/9.3.1/../../../../arm-none-eabi/lib/thumb/v7e-m+dp/hard\libc.a(lib_a-lnumeric.o)
                              c:/program files (x86)/gnu arm embedded toolchain/9 2020-q2-update/bin/../lib/gcc/arm-none-eabi/9.3.1/../../../../arm-none-eabi/lib/thumb/v7e-m+dp/hard\libc.a(lib_a-strtod.o) (_C_numeric_locale)
c:/program files (x86)/gnu arm embedded toolchain/9 2020-q2-update/bin/../lib/gcc/arm-none-eabi/9.3.1/../../../../arm-none-eabi/lib/thumb/v7e-m+dp/hard\libc.a(lib_a-locale.o)
                              c:/program files (x86)/gnu arm embedded toolchain/9 2020-q2-update/bin/../lib/gcc/arm-none-eabi/9.3.1/../../../../arm-none-eabi/lib/thumb/v7e-m+dp/hard\libc.a(lib_a-svfscanf.o) (__locale_mb_cur_max)
c:/program files (x86)/gnu arm embedded toolchain/9 2020-q2-update/bin/../lib/gcc/arm-none-eabi/9.3.1/../../../../arm-none-eabi/lib/thumb/v7e-m+dp/hard\libc.a(lib_a-localeconv.o)
                              c:/program files (x86)/gnu arm embedded toolchain/9 2020-q2-update/bin/../lib/gcc/arm-none-eabi/9.3.1/../../../../arm-none-eabi/lib/thumb/v7e-m+dp/hard\libc.a(lib_a-svfprintf.o) (_localeconv_r)
c:/program files (x86)/gnu arm embedded toolchain/9 2020-q2-update/bin/../lib/gcc/arm-none-eabi/9.3.1/../../../../arm-none-eabi/lib/thumb/v7e-m+dp/hard\libc.a(lib_a-lock.o)
                              c:/program files (x86)/gnu arm embedded toolchain/9 2020-q2-update/bin/../lib/gcc/arm-none-eabi/9.3.1/../../../../arm-none-eabi/lib/thumb/v7e-m+dp/hard\libc.a(lib_a-vfprintf.o) (__retarget_lock_init_recursive)
c:/program files (x86)/gnu arm embedded toolchain/9 2020-q2-update/bin/../lib/gcc/arm-none-eabi/9.3.1/../../../../arm-none-eabi/lib/thumb/v7e-m+dp/hard\libc.a(lib_a-lseekr.o)
                              c:/program files (x86)/gnu arm embedded toolchain/9 2020-q2-update/bin/../lib/gcc/arm-none-eabi/9.3.1/../../../../arm-none-eabi/lib/thumb/v7e-m+dp/hard\libc.a(lib_a-stdio.o) (_lseek_r)
c:/program files (x86)/gnu arm embedded toolchain/9 2020-q2-update/bin/../lib/gcc/arm-none-eabi/9.3.1/../../../../arm-none-eabi/lib/thumb/v7e-m+dp/hard\libc.a(lib_a-makebuf.o)
                              c:/program files (x86)/gnu arm embedded toolchain/9 2020-q2-update/bin/../lib/gcc/arm-none-eabi/9.3.1/../../../../arm-none-eabi/lib/thumb/v7e-m+dp/hard\libc.a(lib_a-wsetup.o) (__smakebuf_r)
c:/program files (x86)/gnu arm embedded toolchain/9 2020-q2-update/bin/../lib/gcc/arm-none-eabi/9.3.1/../../../../arm-none-eabi/lib/thumb/v7e-m+dp/hard\libc.a(lib_a-malloc.o)
                              c:/program files (x86)/gnu arm embedded toolchain/9 2020-q2-update/bin/../lib/gcc/arm-none-eabi/9.3.1/../../../../arm-none-eabi/lib/thumb/v7e-m+dp/hard\libc.a(lib_a-svfscanf.o) (malloc)
c:/program files (x86)/gnu arm embedded toolchain/9 2020-q2-update/bin/../lib/gcc/arm-none-eabi/9.3.1/../../../../arm-none-eabi/lib/thumb/v7e-m+dp/hard\libc.a(lib_a-mallocr.o)
                              c:/program files (x86)/gnu arm embedded toolchain/9 2020-q2-update/bin/../lib/gcc/arm-none-eabi/9.3.1/../../../../arm-none-eabi/lib/thumb/v7e-m+dp/hard\libc.a(lib_a-svfprintf.o) (_malloc_r)
c:/program files (x86)/gnu arm embedded toolchain/9 2020-q2-update/bin/../lib/gcc/arm-none-eabi/9.3.1/../../../../arm-none-eabi/lib/thumb/v7e-m+dp/hard\libc.a(lib_a-mbrtowc.o)
                              c:/program files (x86)/gnu arm embedded toolchain/9 2020-q2-update/bin/../lib/gcc/arm-none-eabi/9.3.1/../../../../arm-none-eabi/lib/thumb/v7e-m+dp/hard\libc.a(lib_a-svfscanf.o) (_mbrtowc_r)
c:/program files (x86)/gnu arm embedded toolchain/9 2020-q2-update/bin/../lib/gcc/arm-none-eabi/9.3.1/../../../../arm-none-eabi/lib/thumb/v7e-m+dp/hard\libc.a(lib_a-mbtowc_r.o)
                              c:/program files (x86)/gnu arm embedded toolchain/9 2020-q2-update/bin/../lib/gcc/arm-none-eabi/9.3.1/../../../../arm-none-eabi/lib/thumb/v7e-m+dp/hard\libc.a(lib_a-locale.o) (__ascii_mbtowc)
c:/program files (x86)/gnu arm embedded toolchain/9 2020-q2-update/bin/../lib/gcc/arm-none-eabi/9.3.1/../../../../arm-none-eabi/lib/thumb/v7e-m+dp/hard\libc.a(lib_a-memchr.o)
                              c:/program files (x86)/gnu arm embedded toolchain/9 2020-q2-update/bin/../lib/gcc/arm-none-eabi/9.3.1/../../../../arm-none-eabi/lib/thumb/v7e-m+dp/hard\libc.a(lib_a-svfprintf.o) (memchr)
c:/program files (x86)/gnu arm embedded toolchain/9 2020-q2-update/bin/../lib/gcc/arm-none-eabi/9.3.1/../../../../arm-none-eabi/lib/thumb/v7e-m+dp/hard\libc.a(lib_a-mlock.o)
                              c:/program files (x86)/gnu arm embedded toolchain/9 2020-q2-update/bin/../lib/gcc/arm-none-eabi/9.3.1/../../../../arm-none-eabi/lib/thumb/v7e-m+dp/hard\libc.a(lib_a-freer.o) (__malloc_lock)
c:/program files (x86)/gnu arm embedded toolchain/9 2020-q2-update/bin/../lib/gcc/arm-none-eabi/9.3.1/../../../../arm-none-eabi/lib/thumb/v7e-m+dp/hard\libc.a(lib_a-mprec.o)
                              c:/program files (x86)/gnu arm embedded toolchain/9 2020-q2-update/bin/../lib/gcc/arm-none-eabi/9.3.1/../../../../arm-none-eabi/lib/thumb/v7e-m+dp/hard\libc.a(lib_a-strtod.o) (_Balloc)
c:/program files (x86)/gnu arm embedded toolchain/9 2020-q2-update/bin/../lib/gcc/arm-none-eabi/9.3.1/../../../../arm-none-eabi/lib/thumb/v7e-m+dp/hard\libc.a(lib_a-readr.o)
                              c:/program files (x86)/gnu arm embedded toolchain/9 2020-q2-update/bin/../lib/gcc/arm-none-eabi/9.3.1/../../../../arm-none-eabi/lib/thumb/v7e-m+dp/hard\libc.a(lib_a-stdio.o) (_read_r)
c:/program files (x86)/gnu arm embedded toolchain/9 2020-q2-update/bin/../lib/gcc/arm-none-eabi/9.3.1/../../../../arm-none-eabi/lib/thumb/v7e-m+dp/hard\libc.a(lib_a-realloc.o)
                              c:/program files (x86)/gnu arm embedded toolchain/9 2020-q2-update/bin/../lib/gcc/arm-none-eabi/9.3.1/../../../../arm-none-eabi/lib/thumb/v7e-m+dp/hard\libc.a(lib_a-svfscanf.o) (realloc)
c:/program files (x86)/gnu arm embedded toolchain/9 2020-q2-update/bin/../lib/gcc/arm-none-eabi/9.3.1/../../../../arm-none-eabi/lib/thumb/v7e-m+dp/hard\libc.a(lib_a-reallocr.o)
                              c:/program files (x86)/gnu arm embedded toolchain/9 2020-q2-update/bin/../lib/gcc/arm-none-eabi/9.3.1/../../../../arm-none-eabi/lib/thumb/v7e-m+dp/hard\libc.a(lib_a-realloc.o) (_realloc_r)
c:/program files (x86)/gnu arm embedded toolchain/9 2020-q2-update/bin/../lib/gcc/arm-none-eabi/9.3.1/../../../../arm-none-eabi/lib/thumb/v7e-m+dp/hard\libc.a(lib_a-reent.o)
                              c:/program files (x86)/gnu arm embedded toolchain/9 2020-q2-update/bin/../lib/gcc/arm-none-eabi/9.3.1/../../../../arm-none-eabi/lib/thumb/v7e-m+dp/hard\libc.a(lib_a-writer.o) (errno)
c:/program files (x86)/gnu arm embedded toolchain/9 2020-q2-update/bin/../lib/gcc/arm-none-eabi/9.3.1/../../../../arm-none-eabi/lib/thumb/v7e-m+dp/hard\libc.a(lib_a-s_frexp.o)
                              c:/program files (x86)/gnu arm embedded toolchain/9 2020-q2-update/bin/../lib/gcc/arm-none-eabi/9.3.1/../../../../arm-none-eabi/lib/thumb/v7e-m+dp/hard\libc.a(lib_a-svfprintf.o) (frexp)
c:/program files (x86)/gnu arm embedded toolchain/9 2020-q2-update/bin/../lib/gcc/arm-none-eabi/9.3.1/../../../../arm-none-eabi/lib/thumb/v7e-m+dp/hard\libc.a(lib_a-sbrkr.o)
                              c:/program files (x86)/gnu arm embedded toolchain/9 2020-q2-update/bin/../lib/gcc/arm-none-eabi/9.3.1/../../../../arm-none-eabi/lib/thumb/v7e-m+dp/hard\libc.a(lib_a-freer.o) (_sbrk_r)
c:/program files (x86)/gnu arm embedded toolchain/9 2020-q2-update/bin/../lib/gcc/arm-none-eabi/9.3.1/../../../../arm-none-eabi/lib/thumb/v7e-m+dp/hard\libc.a(lib_a-sccl.o)
                              c:/program files (x86)/gnu arm embedded toolchain/9 2020-q2-update/bin/../lib/gcc/arm-none-eabi/9.3.1/../../../../arm-none-eabi/lib/thumb/v7e-m+dp/hard\libc.a(lib_a-svfscanf.o) (__sccl)
c:/program files (x86)/gnu arm embedded toolchain/9 2020-q2-update/bin/../lib/gcc/arm-none-eabi/9.3.1/../../../../arm-none-eabi/lib/thumb/v7e-m+dp/hard\libc.a(lib_a-sf_nan.o)
                              c:/program files (x86)/gnu arm embedded toolchain/9 2020-q2-update/bin/../lib/gcc/arm-none-eabi/9.3.1/../../../../arm-none-eabi/lib/thumb/v7e-m+dp/hard\libc.a(lib_a-strtod.o) (nanf)
c:/program files (x86)/gnu arm embedded toolchain/9 2020-q2-update/bin/../lib/gcc/arm-none-eabi/9.3.1/../../../../arm-none-eabi/lib/thumb/v7e-m+dp/hard\libc.a(lib_a-siscanf.o)
                              c:/program files (x86)/gnu arm embedded toolchain/9 2020-q2-update/bin/../lib/gcc/arm-none-eabi/9.3.1/../../../../arm-none-eabi/lib/thumb/v7e-m+dp/hard\libc.a(lib_a-tzset_r.o) (siscanf)
c:/program files (x86)/gnu arm embedded toolchain/9 2020-q2-update/bin/../lib/gcc/arm-none-eabi/9.3.1/../../../../arm-none-eabi/lib/thumb/v7e-m+dp/hard\libc.a(lib_a-strtoll.o)
                              c:/program files (x86)/gnu arm embedded toolchain/9 2020-q2-update/bin/../lib/gcc/arm-none-eabi/9.3.1/../../../../arm-none-eabi/lib/thumb/v7e-m+dp/hard\libc.a(lib_a-svfscanf.o) (_strtoll_r)
c:/program files (x86)/gnu arm embedded toolchain/9 2020-q2-update/bin/../lib/gcc/arm-none-eabi/9.3.1/../../../../arm-none-eabi/lib/thumb/v7e-m+dp/hard\libc.a(lib_a-svfiprintf.o)
                              c:/program files (x86)/gnu arm embedded toolchain/9 2020-q2-update/bin/../lib/gcc/arm-none-eabi/9.3.1/../../../../arm-none-eabi/lib/thumb/v7e-m+dp/hard\libc.a(lib_a-svfprintf.o) (__ssprint_r)
c:/program files (x86)/gnu arm embedded toolchain/9 2020-q2-update/bin/../lib/gcc/arm-none-eabi/9.3.1/../../../../arm-none-eabi/lib/thumb/v7e-m+dp/hard\libc.a(lib_a-svfiscanf.o)
                              c:/program files (x86)/gnu arm embedded toolchain/9 2020-q2-update/bin/../lib/gcc/arm-none-eabi/9.3.1/../../../../arm-none-eabi/lib/thumb/v7e-m+dp/hard\libc.a(lib_a-svfscanf.o) (_sungetc_r)
c:/program files (x86)/gnu arm embedded toolchain/9 2020-q2-update/bin/../lib/gcc/arm-none-eabi/9.3.1/../../../../arm-none-eabi/lib/thumb/v7e-m+dp/hard\libc.a(lib_a-ungetc.o)
                              c:/program files (x86)/gnu arm embedded toolchain/9 2020-q2-update/bin/../lib/gcc/arm-none-eabi/9.3.1/../../../../arm-none-eabi/lib/thumb/v7e-m+dp/hard\libc.a(lib_a-svfiscanf.o) (__submore)
c:/program files (x86)/gnu arm embedded toolchain/9 2020-q2-update/bin/../lib/gcc/arm-none-eabi/9.3.1/../../../../arm-none-eabi/lib/thumb/v7e-m+dp/hard\libc.a(lib_a-vfiprintf.o)
                              c:/program files (x86)/gnu arm embedded toolchain/9 2020-q2-update/bin/../lib/gcc/arm-none-eabi/9.3.1/../../../../arm-none-eabi/lib/thumb/v7e-m+dp/hard\libc.a(lib_a-vfprintf.o) (__sprint_r)
c:/program files (x86)/gnu arm embedded toolchain/9 2020-q2-update/bin/../lib/gcc/arm-none-eabi/9.3.1/../../../../arm-none-eabi/lib/thumb/v7e-m+dp/hard\libc.a(lib_a-wctomb_r.o)
                              c:/program files (x86)/gnu arm embedded toolchain/9 2020-q2-update/bin/../lib/gcc/arm-none-eabi/9.3.1/../../../../arm-none-eabi/lib/thumb/v7e-m+dp/hard\libc.a(lib_a-locale.o) (__ascii_wctomb)
c:/program files (x86)/gnu arm embedded toolchain/9 2020-q2-update/bin/../lib/gcc/arm-none-eabi/9.3.1/../../../../arm-none-eabi/lib/thumb/v7e-m+dp/hard\libc.a(lib_a-assert.o)
                              c:/program files (x86)/gnu arm embedded toolchain/9 2020-q2-update/bin/../lib/gcc/arm-none-eabi/9.3.1/../../../../arm-none-eabi/lib/thumb/v7e-m+dp/hard\libc.a(lib_a-dtoa.o) (__assert_func)
c:/program files (x86)/gnu arm embedded toolchain/9 2020-q2-update/bin/../lib/gcc/arm-none-eabi/9.3.1/../../../../arm-none-eabi/lib/thumb/v7e-m+dp/hard\libc.a(lib_a-callocr.o)
                              c:/program files (x86)/gnu arm embedded toolchain/9 2020-q2-update/bin/../lib/gcc/arm-none-eabi/9.3.1/../../../../arm-none-eabi/lib/thumb/v7e-m+dp/hard\libc.a(lib_a-mprec.o) (_calloc_r)
c:/program files (x86)/gnu arm embedded toolchain/9 2020-q2-update/bin/../lib/gcc/arm-none-eabi/9.3.1/../../../../arm-none-eabi/lib/thumb/v7e-m+dp/hard\libc.a(lib_a-environ.o)
                              c:/program files (x86)/gnu arm embedded toolchain/9 2020-q2-update/bin/../lib/gcc/arm-none-eabi/9.3.1/../../../../arm-none-eabi/lib/thumb/v7e-m+dp/hard\libc.a(lib_a-getenv_r.o) (environ)
c:/program files (x86)/gnu arm embedded toolchain/9 2020-q2-update/bin/../lib/gcc/arm-none-eabi/9.3.1/../../../../arm-none-eabi/lib/thumb/v7e-m+dp/hard\libc.a(lib_a-envlock.o)
                              c:/program files (x86)/gnu arm embedded toolchain/9 2020-q2-update/bin/../lib/gcc/arm-none-eabi/9.3.1/../../../../arm-none-eabi/lib/thumb/v7e-m+dp/hard\libc.a(lib_a-getenv_r.o) (__env_lock)
c:/program files (x86)/gnu arm embedded toolchain/9 2020-q2-update/bin/../lib/gcc/arm-none-eabi/9.3.1/../../../../arm-none-eabi/lib/thumb/v7e-m+dp/hard\libc.a(lib_a-fclose.o)
                              c:/program files (x86)/gnu arm embedded toolchain/9 2020-q2-update/bin/../lib/gcc/arm-none-eabi/9.3.1/../../../../arm-none-eabi/lib/thumb/v7e-m+dp/hard\libc.a(lib_a-findfp.o) (_fclose_r)
c:/program files (x86)/gnu arm embedded toolchain/9 2020-q2-update/bin/../lib/gcc/arm-none-eabi/9.3.1/../../../../arm-none-eabi/lib/thumb/v7e-m+dp/hard\libc.a(lib_a-fiprintf.o)
                              c:/program files (x86)/gnu arm embedded toolchain/9 2020-q2-update/bin/../lib/gcc/arm-none-eabi/9.3.1/../../../../arm-none-eabi/lib/thumb/v7e-m+dp/hard\libc.a(lib_a-assert.o) (fiprintf)
c:/program files (x86)/gnu arm embedded toolchain/9 2020-q2-update/bin/../lib/gcc/arm-none-eabi/9.3.1/../../../../arm-none-eabi/lib/thumb/v7e-m+dp/hard\libc.a(lib_a-fputwc.o)
                              c:/program files (x86)/gnu arm embedded toolchain/9 2020-q2-update/bin/../lib/gcc/arm-none-eabi/9.3.1/../../../../arm-none-eabi/lib/thumb/v7e-m+dp/hard\libc.a(lib_a-vfiprintf.o) (_fputwc_r)
c:/program files (x86)/gnu arm embedded toolchain/9 2020-q2-update/bin/../lib/gcc/arm-none-eabi/9.3.1/../../../../arm-none-eabi/lib/thumb/v7e-m+dp/hard\libc.a(lib_a-fstatr.o)
                              c:/program files (x86)/gnu arm embedded toolchain/9 2020-q2-update/bin/../lib/gcc/arm-none-eabi/9.3.1/../../../../arm-none-eabi/lib/thumb/v7e-m+dp/hard\libc.a(lib_a-makebuf.o) (_fstat_r)
c:/program files (x86)/gnu arm embedded toolchain/9 2020-q2-update/bin/../lib/gcc/arm-none-eabi/9.3.1/../../../../arm-none-eabi/lib/thumb/v7e-m+dp/hard\libc.a(lib_a-fvwrite.o)
                              c:/program files (x86)/gnu arm embedded toolchain/9 2020-q2-update/bin/../lib/gcc/arm-none-eabi/9.3.1/../../../../arm-none-eabi/lib/thumb/v7e-m+dp/hard\libc.a(lib_a-vfiprintf.o) (__sfvwrite_r)
c:/program files (x86)/gnu arm embedded toolchain/9 2020-q2-update/bin/../lib/gcc/arm-none-eabi/9.3.1/../../../../arm-none-eabi/lib/thumb/v7e-m+dp/hard\libc.a(lib_a-isattyr.o)
                              c:/program files (x86)/gnu arm embedded toolchain/9 2020-q2-update/bin/../lib/gcc/arm-none-eabi/9.3.1/../../../../arm-none-eabi/lib/thumb/v7e-m+dp/hard\libc.a(lib_a-makebuf.o) (_isatty_r)
c:/program files (x86)/gnu arm embedded toolchain/9 2020-q2-update/bin/../lib/gcc/arm-none-eabi/9.3.1/../../../../arm-none-eabi/lib/thumb/v7e-m+dp/hard\libc.a(lib_a-wbuf.o)
                              c:/program files (x86)/gnu arm embedded toolchain/9 2020-q2-update/bin/../lib/gcc/arm-none-eabi/9.3.1/../../../../arm-none-eabi/lib/thumb/v7e-m+dp/hard\libc.a(lib_a-fputwc.o) (__swbuf_r)
c:/program files (x86)/gnu arm embedded toolchain/9 2020-q2-update/bin/../lib/gcc/arm-none-eabi/9.3.1/../../../../arm-none-eabi/lib/thumb/v7e-m+dp/hard\libc.a(lib_a-wcrtomb.o)
                              c:/program files (x86)/gnu arm embedded toolchain/9 2020-q2-update/bin/../lib/gcc/arm-none-eabi/9.3.1/../../../../arm-none-eabi/lib/thumb/v7e-m+dp/hard\libc.a(lib_a-fputwc.o) (_wcrtomb_r)
c:/program files (x86)/gnu arm embedded toolchain/9 2020-q2-update/bin/../lib/gcc/arm-none-eabi/9.3.1/../../../../arm-none-eabi/lib/thumb/v7e-m+dp/hard\libc.a(lib_a-abort.o)
                              c:/program files (x86)/gnu arm embedded toolchain/9 2020-q2-update/bin/../lib/gcc/arm-none-eabi/9.3.1/../../../../arm-none-eabi/lib/thumb/v7e-m+dp/hard\libc.a(lib_a-assert.o) (abort)
c:/program files (x86)/gnu arm embedded toolchain/9 2020-q2-update/bin/../lib/gcc/arm-none-eabi/9.3.1/../../../../arm-none-eabi/lib/thumb/v7e-m+dp/hard\libc.a(lib_a-signal.o)
                              c:/program files (x86)/gnu arm embedded toolchain/9 2020-q2-update/bin/../lib/gcc/arm-none-eabi/9.3.1/../../../../arm-none-eabi/lib/thumb/v7e-m+dp/hard\libc.a(lib_a-abort.o) (raise)
c:/program files (x86)/gnu arm embedded toolchain/9 2020-q2-update/bin/../lib/gcc/arm-none-eabi/9.3.1/../../../../arm-none-eabi/lib/thumb/v7e-m+dp/hard\libc.a(lib_a-signalr.o)
                              c:/program files (x86)/gnu arm embedded toolchain/9 2020-q2-update/bin/../lib/gcc/arm-none-eabi/9.3.1/../../../../arm-none-eabi/lib/thumb/v7e-m+dp/hard\libc.a(lib_a-signal.o) (_kill_r)
c:/program files (x86)/gnu arm embedded toolchain/9 2020-q2-update/bin/../lib/gcc/arm-none-eabi/9.3.1/../../../../arm-none-eabi/lib/thumb/v7e-m+dp/hard\libnosys.a(close.o)
                              c:/program files (x86)/gnu arm embedded toolchain/9 2020-q2-update/bin/../lib/gcc/arm-none-eabi/9.3.1/../../../../arm-none-eabi/lib/thumb/v7e-m+dp/hard\libc.a(lib_a-closer.o) (_close)
c:/program files (x86)/gnu arm embedded toolchain/9 2020-q2-update/bin/../lib/gcc/arm-none-eabi/9.3.1/../../../../arm-none-eabi/lib/thumb/v7e-m+dp/hard\libnosys.a(fstat.o)
                              c:/program files (x86)/gnu arm embedded toolchain/9 2020-q2-update/bin/../lib/gcc/arm-none-eabi/9.3.1/../../../../arm-none-eabi/lib/thumb/v7e-m+dp/hard\libc.a(lib_a-fstatr.o) (_fstat)
c:/program files (x86)/gnu arm embedded toolchain/9 2020-q2-update/bin/../lib/gcc/arm-none-eabi/9.3.1/../../../../arm-none-eabi/lib/thumb/v7e-m+dp/hard\libnosys.a(getpid.o)
                              c:/program files (x86)/gnu arm embedded toolchain/9 2020-q2-update/bin/../lib/gcc/arm-none-eabi/9.3.1/../../../../arm-none-eabi/lib/thumb/v7e-m+dp/hard\libc.a(lib_a-signalr.o) (_getpid)
c:/program files (x86)/gnu arm embedded toolchain/9 2020-q2-update/bin/../lib/gcc/arm-none-eabi/9.3.1/../../../../arm-none-eabi/lib/thumb/v7e-m+dp/hard\libnosys.a(isatty.o)
                              c:/program files (x86)/gnu arm embedded toolchain/9 2020-q2-update/bin/../lib/gcc/arm-none-eabi/9.3.1/../../../../arm-none-eabi/lib/thumb/v7e-m+dp/hard\libc.a(lib_a-isattyr.o) (_isatty)
c:/program files (x86)/gnu arm embedded toolchain/9 2020-q2-update/bin/../lib/gcc/arm-none-eabi/9.3.1/../../../../arm-none-eabi/lib/thumb/v7e-m+dp/hard\libnosys.a(kill.o)
                              c:/program files (x86)/gnu arm embedded toolchain/9 2020-q2-update/bin/../lib/gcc/arm-none-eabi/9.3.1/../../../../arm-none-eabi/lib/thumb/v7e-m+dp/hard\libc.a(lib_a-signalr.o) (_kill)
c:/program files (x86)/gnu arm embedded toolchain/9 2020-q2-update/bin/../lib/gcc/arm-none-eabi/9.3.1/../../../../arm-none-eabi/lib/thumb/v7e-m+dp/hard\libnosys.a(lseek.o)
                              c:/program files (x86)/gnu arm embedded toolchain/9 2020-q2-update/bin/../lib/gcc/arm-none-eabi/9.3.1/../../../../arm-none-eabi/lib/thumb/v7e-m+dp/hard\libc.a(lib_a-lseekr.o) (_lseek)
c:/program files (x86)/gnu arm embedded toolchain/9 2020-q2-update/bin/../lib/gcc/arm-none-eabi/9.3.1/../../../../arm-none-eabi/lib/thumb/v7e-m+dp/hard\libnosys.a(read.o)
                              c:/program files (x86)/gnu arm embedded toolchain/9 2020-q2-update/bin/../lib/gcc/arm-none-eabi/9.3.1/../../../../arm-none-eabi/lib/thumb/v7e-m+dp/hard\libc.a(lib_a-readr.o) (_read)
c:/program files (x86)/gnu arm embedded toolchain/9 2020-q2-update/bin/../lib/gcc/arm-none-eabi/9.3.1/../../../../arm-none-eabi/lib/thumb/v7e-m+dp/hard\libnosys.a(sbrk.o)
                              c:/program files (x86)/gnu arm embedded toolchain/9 2020-q2-update/bin/../lib/gcc/arm-none-eabi/9.3.1/../../../../arm-none-eabi/lib/thumb/v7e-m+dp/hard\libc.a(lib_a-sbrkr.o) (_sbrk)
c:/program files (x86)/gnu arm embedded toolchain/9 2020-q2-update/bin/../lib/gcc/arm-none-eabi/9.3.1/../../../../arm-none-eabi/lib/thumb/v7e-m+dp/hard\libnosys.a(write.o)
                              c:/program files (x86)/gnu arm embedded toolchain/9 2020-q2-update/bin/../lib/gcc/arm-none-eabi/9.3.1/../../../../arm-none-eabi/lib/thumb/v7e-m+dp/hard\libc.a(lib_a-writer.o) (_write)
c:/program files (x86)/gnu arm embedded toolchain/9 2020-q2-update/bin/../lib/gcc/arm-none-eabi/9.3.1/../../../../arm-none-eabi/lib/thumb/v7e-m+dp/hard\libnosys.a(_exit.o)
                              c:/program files (x86)/gnu arm embedded toolchain/9 2020-q2-update/bin/../lib/gcc/arm-none-eabi/9.3.1/../../../../arm-none-eabi/lib/thumb/v7e-m+dp/hard\libc.a(lib_a-exit.o) (_exit)
c:/program files (x86)/gnu arm embedded toolchain/9 2020-q2-update/bin/../lib/gcc/arm-none-eabi/9.3.1/../../../../arm-none-eabi/lib/thumb/v7e-m+dp/hard\libm.a(lib_a-exp.o)
                              ./fcapplication/astc_filter_derivedrate.o (exp)
c:/program files (x86)/gnu arm embedded toolchain/9 2020-q2-update/bin/../lib/gcc/arm-none-eabi/9.3.1/../../../../arm-none-eabi/lib/thumb/v7e-m+dp/hard\libm.a(lib_a-exp_data.o)
                              c:/program files (x86)/gnu arm embedded toolchain/9 2020-q2-update/bin/../lib/gcc/arm-none-eabi/9.3.1/../../../../arm-none-eabi/lib/thumb/v7e-m+dp/hard\libm.a(lib_a-exp.o) (__exp_data)
c:/program files (x86)/gnu arm embedded toolchain/9 2020-q2-update/bin/../lib/gcc/arm-none-eabi/9.3.1/../../../../arm-none-eabi/lib/thumb/v7e-m+dp/hard\libm.a(lib_a-math_err.o)
                              c:/program files (x86)/gnu arm embedded toolchain/9 2020-q2-update/bin/../lib/gcc/arm-none-eabi/9.3.1/../../../../arm-none-eabi/lib/thumb/v7e-m+dp/hard\libm.a(lib_a-exp.o) (__math_uflow)
c:/program files (x86)/gnu arm embedded toolchain/9 2020-q2-update/bin/../lib/gcc/arm-none-eabi/9.3.1/../../../../arm-none-eabi/lib/thumb/v7e-m+dp/hard\libm.a(lib_a-pow.o)
                              ./fcapplication/ast_gps_process.o (pow)
c:/program files (x86)/gnu arm embedded toolchain/9 2020-q2-update/bin/../lib/gcc/arm-none-eabi/9.3.1/../../../../arm-none-eabi/lib/thumb/v7e-m+dp/hard\libm.a(lib_a-pow_log_data.o)
                              c:/program files (x86)/gnu arm embedded toolchain/9 2020-q2-update/bin/../lib/gcc/arm-none-eabi/9.3.1/../../../../arm-none-eabi/lib/thumb/v7e-m+dp/hard\libm.a(lib_a-pow.o) (__pow_log_data)
c:/program files (x86)/gnu arm embedded toolchain/9 2020-q2-update/bin/../lib/gcc/arm-none-eabi/9.3.1/../../../../arm-none-eabi/lib/thumb/v7e-m+dp/hard\libm.a(lib_a-s_atan.o)
                              ./fcapplication/ast_cna_runadcs.o (atan)
c:/program files (x86)/gnu arm embedded toolchain/9 2020-q2-update/bin/../lib/gcc/arm-none-eabi/9.3.1/../../../../arm-none-eabi/lib/thumb/v7e-m+dp/hard\libm.a(lib_a-s_cos.o)
                              ./fcapplication/na_arraymath.o (cos)
c:/program files (x86)/gnu arm embedded toolchain/9 2020-q2-update/bin/../lib/gcc/arm-none-eabi/9.3.1/../../../../arm-none-eabi/lib/thumb/v7e-m+dp/hard\libm.a(lib_a-s_fabs.o)
                              ./fcapplication/na_arraymath.o (fabs)
c:/program files (x86)/gnu arm embedded toolchain/9 2020-q2-update/bin/../lib/gcc/arm-none-eabi/9.3.1/../../../../arm-none-eabi/lib/thumb/v7e-m+dp/hard\libm.a(lib_a-s_floor.o)
                              ./fcapplication/ast_cna_runadcs.o (floor)
c:/program files (x86)/gnu arm embedded toolchain/9 2020-q2-update/bin/../lib/gcc/arm-none-eabi/9.3.1/../../../../arm-none-eabi/lib/thumb/v7e-m+dp/hard\libm.a(lib_a-s_round.o)
                              ./fcapplication/na_time.o (round)
c:/program files (x86)/gnu arm embedded toolchain/9 2020-q2-update/bin/../lib/gcc/arm-none-eabi/9.3.1/../../../../arm-none-eabi/lib/thumb/v7e-m+dp/hard\libm.a(lib_a-s_sin.o)
                              ./fcapplication/na_arraymath.o (sin)
c:/program files (x86)/gnu arm embedded toolchain/9 2020-q2-update/bin/../lib/gcc/arm-none-eabi/9.3.1/../../../../arm-none-eabi/lib/thumb/v7e-m+dp/hard\libm.a(lib_a-s_tan.o)
                              ./fcapplication/na_refframe.o (tan)
c:/program files (x86)/gnu arm embedded toolchain/9 2020-q2-update/bin/../lib/gcc/arm-none-eabi/9.3.1/../../../../arm-none-eabi/lib/thumb/v7e-m+dp/hard\libm.a(lib_a-w_acos.o)
                              ./fcapplication/na_arraymath.o (acos)
c:/program files (x86)/gnu arm embedded toolchain/9 2020-q2-update/bin/../lib/gcc/arm-none-eabi/9.3.1/../../../../arm-none-eabi/lib/thumb/v7e-m+dp/hard\libm.a(lib_a-w_asin.o)
                              ./fcapplication/na_arraymath.o (asin)
c:/program files (x86)/gnu arm embedded toolchain/9 2020-q2-update/bin/../lib/gcc/arm-none-eabi/9.3.1/../../../../arm-none-eabi/lib/thumb/v7e-m+dp/hard\libm.a(lib_a-w_atan2.o)
                              ./fcapplication/na_arraymath.o (atan2)
c:/program files (x86)/gnu arm embedded toolchain/9 2020-q2-update/bin/../lib/gcc/arm-none-eabi/9.3.1/../../../../arm-none-eabi/lib/thumb/v7e-m+dp/hard\libm.a(lib_a-w_fmod.o)
                              ./fcapplication/na_refframe.o (fmod)
c:/program files (x86)/gnu arm embedded toolchain/9 2020-q2-update/bin/../lib/gcc/arm-none-eabi/9.3.1/../../../../arm-none-eabi/lib/thumb/v7e-m+dp/hard\libm.a(lib_a-w_sqrt.o)
                              ./fcapplication/na_arraymath.o (sqrt)
c:/program files (x86)/gnu arm embedded toolchain/9 2020-q2-update/bin/../lib/gcc/arm-none-eabi/9.3.1/../../../../arm-none-eabi/lib/thumb/v7e-m+dp/hard\libm.a(lib_a-wf_sqrt.o)
                              ./fcapplication/na_arraymath.o (sqrtf)
c:/program files (x86)/gnu arm embedded toolchain/9 2020-q2-update/bin/../lib/gcc/arm-none-eabi/9.3.1/../../../../arm-none-eabi/lib/thumb/v7e-m+dp/hard\libm.a(lib_a-e_acos.o)
                              c:/program files (x86)/gnu arm embedded toolchain/9 2020-q2-update/bin/../lib/gcc/arm-none-eabi/9.3.1/../../../../arm-none-eabi/lib/thumb/v7e-m+dp/hard\libm.a(lib_a-w_acos.o) (__ieee754_acos)
c:/program files (x86)/gnu arm embedded toolchain/9 2020-q2-update/bin/../lib/gcc/arm-none-eabi/9.3.1/../../../../arm-none-eabi/lib/thumb/v7e-m+dp/hard\libm.a(lib_a-e_asin.o)
                              c:/program files (x86)/gnu arm embedded toolchain/9 2020-q2-update/bin/../lib/gcc/arm-none-eabi/9.3.1/../../../../arm-none-eabi/lib/thumb/v7e-m+dp/hard\libm.a(lib_a-w_asin.o) (__ieee754_asin)
c:/program files (x86)/gnu arm embedded toolchain/9 2020-q2-update/bin/../lib/gcc/arm-none-eabi/9.3.1/../../../../arm-none-eabi/lib/thumb/v7e-m+dp/hard\libm.a(lib_a-e_atan2.o)
                              c:/program files (x86)/gnu arm embedded toolchain/9 2020-q2-update/bin/../lib/gcc/arm-none-eabi/9.3.1/../../../../arm-none-eabi/lib/thumb/v7e-m+dp/hard\libm.a(lib_a-w_atan2.o) (__ieee754_atan2)
c:/program files (x86)/gnu arm embedded toolchain/9 2020-q2-update/bin/../lib/gcc/arm-none-eabi/9.3.1/../../../../arm-none-eabi/lib/thumb/v7e-m+dp/hard\libm.a(lib_a-e_fmod.o)
                              c:/program files (x86)/gnu arm embedded toolchain/9 2020-q2-update/bin/../lib/gcc/arm-none-eabi/9.3.1/../../../../arm-none-eabi/lib/thumb/v7e-m+dp/hard\libm.a(lib_a-w_fmod.o) (__ieee754_fmod)
c:/program files (x86)/gnu arm embedded toolchain/9 2020-q2-update/bin/../lib/gcc/arm-none-eabi/9.3.1/../../../../arm-none-eabi/lib/thumb/v7e-m+dp/hard\libm.a(lib_a-e_rem_pio2.o)
                              c:/program files (x86)/gnu arm embedded toolchain/9 2020-q2-update/bin/../lib/gcc/arm-none-eabi/9.3.1/../../../../arm-none-eabi/lib/thumb/v7e-m+dp/hard\libm.a(lib_a-s_cos.o) (__ieee754_rem_pio2)
c:/program files (x86)/gnu arm embedded toolchain/9 2020-q2-update/bin/../lib/gcc/arm-none-eabi/9.3.1/../../../../arm-none-eabi/lib/thumb/v7e-m+dp/hard\libm.a(lib_a-e_sqrt.o)
                              c:/program files (x86)/gnu arm embedded toolchain/9 2020-q2-update/bin/../lib/gcc/arm-none-eabi/9.3.1/../../../../arm-none-eabi/lib/thumb/v7e-m+dp/hard\libm.a(lib_a-w_sqrt.o) (__ieee754_sqrt)
c:/program files (x86)/gnu arm embedded toolchain/9 2020-q2-update/bin/../lib/gcc/arm-none-eabi/9.3.1/../../../../arm-none-eabi/lib/thumb/v7e-m+dp/hard\libm.a(lib_a-ef_sqrt.o)
                              c:/program files (x86)/gnu arm embedded toolchain/9 2020-q2-update/bin/../lib/gcc/arm-none-eabi/9.3.1/../../../../arm-none-eabi/lib/thumb/v7e-m+dp/hard\libm.a(lib_a-wf_sqrt.o) (__ieee754_sqrtf)
c:/program files (x86)/gnu arm embedded toolchain/9 2020-q2-update/bin/../lib/gcc/arm-none-eabi/9.3.1/../../../../arm-none-eabi/lib/thumb/v7e-m+dp/hard\libm.a(lib_a-k_cos.o)
                              c:/program files (x86)/gnu arm embedded toolchain/9 2020-q2-update/bin/../lib/gcc/arm-none-eabi/9.3.1/../../../../arm-none-eabi/lib/thumb/v7e-m+dp/hard\libm.a(lib_a-s_cos.o) (__kernel_cos)
c:/program files (x86)/gnu arm embedded toolchain/9 2020-q2-update/bin/../lib/gcc/arm-none-eabi/9.3.1/../../../../arm-none-eabi/lib/thumb/v7e-m+dp/hard\libm.a(lib_a-k_rem_pio2.o)
                              c:/program files (x86)/gnu arm embedded toolchain/9 2020-q2-update/bin/../lib/gcc/arm-none-eabi/9.3.1/../../../../arm-none-eabi/lib/thumb/v7e-m+dp/hard\libm.a(lib_a-e_rem_pio2.o) (__kernel_rem_pio2)
c:/program files (x86)/gnu arm embedded toolchain/9 2020-q2-update/bin/../lib/gcc/arm-none-eabi/9.3.1/../../../../arm-none-eabi/lib/thumb/v7e-m+dp/hard\libm.a(lib_a-k_sin.o)
                              c:/program files (x86)/gnu arm embedded toolchain/9 2020-q2-update/bin/../lib/gcc/arm-none-eabi/9.3.1/../../../../arm-none-eabi/lib/thumb/v7e-m+dp/hard\libm.a(lib_a-s_cos.o) (__kernel_sin)
c:/program files (x86)/gnu arm embedded toolchain/9 2020-q2-update/bin/../lib/gcc/arm-none-eabi/9.3.1/../../../../arm-none-eabi/lib/thumb/v7e-m+dp/hard\libm.a(lib_a-k_tan.o)
                              c:/program files (x86)/gnu arm embedded toolchain/9 2020-q2-update/bin/../lib/gcc/arm-none-eabi/9.3.1/../../../../arm-none-eabi/lib/thumb/v7e-m+dp/hard\libm.a(lib_a-s_tan.o) (__kernel_tan)
c:/program files (x86)/gnu arm embedded toolchain/9 2020-q2-update/bin/../lib/gcc/arm-none-eabi/9.3.1/../../../../arm-none-eabi/lib/thumb/v7e-m+dp/hard\libm.a(lib_a-s_lib_ver.o)
                              c:/program files (x86)/gnu arm embedded toolchain/9 2020-q2-update/bin/../lib/gcc/arm-none-eabi/9.3.1/../../../../arm-none-eabi/lib/thumb/v7e-m+dp/hard\libm.a(lib_a-w_acos.o) (__fdlib_version)
c:/program files (x86)/gnu arm embedded toolchain/9 2020-q2-update/bin/../lib/gcc/arm-none-eabi/9.3.1/../../../../arm-none-eabi/lib/thumb/v7e-m+dp/hard\libm.a(lib_a-s_scalbn.o)
                              c:/program files (x86)/gnu arm embedded toolchain/9 2020-q2-update/bin/../lib/gcc/arm-none-eabi/9.3.1/../../../../arm-none-eabi/lib/thumb/v7e-m+dp/hard\libm.a(lib_a-k_rem_pio2.o) (scalbn)

Allocating common symbols
Common symbol       size              file

errno               0x4               c:/program files (x86)/gnu arm embedded toolchain/9 2020-q2-update/bin/../lib/gcc/arm-none-eabi/9.3.1/../../../../arm-none-eabi/lib/thumb/v7e-m+dp/hard\libc.a(lib_a-reent.o)
__lock___malloc_recursive_mutex
                    0x1               c:/program files (x86)/gnu arm embedded toolchain/9 2020-q2-update/bin/../lib/gcc/arm-none-eabi/9.3.1/../../../../arm-none-eabi/lib/thumb/v7e-m+dp/hard\libc.a(lib_a-lock.o)
__lock___atexit_recursive_mutex
                    0x1               c:/program files (x86)/gnu arm embedded toolchain/9 2020-q2-update/bin/../lib/gcc/arm-none-eabi/9.3.1/../../../../arm-none-eabi/lib/thumb/v7e-m+dp/hard\libc.a(lib_a-lock.o)
__lock___dd_hash_mutex
                    0x1               c:/program files (x86)/gnu arm embedded toolchain/9 2020-q2-update/bin/../lib/gcc/arm-none-eabi/9.3.1/../../../../arm-none-eabi/lib/thumb/v7e-m+dp/hard\libc.a(lib_a-lock.o)
__lock___sinit_recursive_mutex
                    0x1               c:/program files (x86)/gnu arm embedded toolchain/9 2020-q2-update/bin/../lib/gcc/arm-none-eabi/9.3.1/../../../../arm-none-eabi/lib/thumb/v7e-m+dp/hard\libc.a(lib_a-lock.o)
__lock___sfp_recursive_mutex
                    0x1               c:/program files (x86)/gnu arm embedded toolchain/9 2020-q2-update/bin/../lib/gcc/arm-none-eabi/9.3.1/../../../../arm-none-eabi/lib/thumb/v7e-m+dp/hard\libc.a(lib_a-lock.o)
__lock___at_quick_exit_mutex
                    0x1               c:/program files (x86)/gnu arm embedded toolchain/9 2020-q2-update/bin/../lib/gcc/arm-none-eabi/9.3.1/../../../../arm-none-eabi/lib/thumb/v7e-m+dp/hard\libc.a(lib_a-lock.o)
__lock___env_recursive_mutex
                    0x1               c:/program files (x86)/gnu arm embedded toolchain/9 2020-q2-update/bin/../lib/gcc/arm-none-eabi/9.3.1/../../../../arm-none-eabi/lib/thumb/v7e-m+dp/hard\libc.a(lib_a-lock.o)
__lock___tz_mutex   0x1               c:/program files (x86)/gnu arm embedded toolchain/9 2020-q2-update/bin/../lib/gcc/arm-none-eabi/9.3.1/../../../../arm-none-eabi/lib/thumb/v7e-m+dp/hard\libc.a(lib_a-lock.o)
__lock___arc4random_mutex
                    0x1               c:/program files (x86)/gnu arm embedded toolchain/9 2020-q2-update/bin/../lib/gcc/arm-none-eabi/9.3.1/../../../../arm-none-eabi/lib/thumb/v7e-m+dp/hard\libc.a(lib_a-lock.o)

Discarded input sections

 .group         0x00000000       0x10 ./fcapplication/mainofapplication.o
 .group         0x00000000        0xc ./fcapplication/mainofapplication.o
 .group         0x00000000        0xc ./fcapplication/mainofapplication.o
 .group         0x00000000        0xc ./fcapplication/mainofapplication.o
 .group         0x00000000        0xc ./fcapplication/mainofapplication.o
 .group         0x00000000        0xc ./fcapplication/mainofapplication.o
 .group         0x00000000        0xc ./fcapplication/mainofapplication.o
 .group         0x00000000       0x14 ./fcapplication/mainofapplication.o
 .group         0x00000000       0x14 ./fcapplication/mainofapplication.o
 .group         0x00000000        0xc ./fcapplication/mainofapplication.o
 .group         0x00000000        0xc ./fcapplication/mainofapplication.o
 .group         0x00000000        0xc ./fcapplication/mainofapplication.o
 .group         0x00000000        0xc ./fcapplication/mainofapplication.o
 .group         0x00000000        0xc ./fcapplication/mainofapplication.o
 .group         0x00000000       0x10 ./fcapplication/csphandler.o
 .group         0x00000000        0xc ./fcapplication/csphandler.o
 .group         0x00000000        0xc ./fcapplication/csphandler.o
 .group         0x00000000        0xc ./fcapplication/csphandler.o
 .group         0x00000000        0xc ./fcapplication/csphandler.o
 .group         0x00000000        0xc ./fcapplication/csphandler.o
 .group         0x00000000        0xc ./fcapplication/csphandler.o
 .group         0x00000000        0xc ./fcapplication/csphandler.o
 .group         0x00000000        0xc ./fcapplication/csphandler.o
 .group         0x00000000        0xc ./fcapplication/csphandler.o
 .text._ZN20TimeSyncRtcCallbacksD2Ev
                0x00000000        0x2 ./fcapplication/csphandler.o
 .text._ZN20TimeSyncRtcCallbacks14getPreciseTimeERmS0_
                0x00000000       0x18 ./fcapplication/csphandler.o
 .text._ZN20TimeSyncRtcCallbacks14getLastPpsTimeERmS0_
                0x00000000       0x18 ./fcapplication/csphandler.o
 .text._ZN20TimeSyncRtcCallbacks21resetRtcSyncedWithPPSEv
                0x00000000        0xe ./fcapplication/csphandler.o
 .text._ZN20TimeSyncRtcCallbacks18isRtcSyncedWithPPSEv
                0x00000000        0xe ./fcapplication/csphandler.o
 .text._ZN20TimeSyncRtcCallbacks12getTimestampEv
                0x00000000       0x14 ./fcapplication/csphandler.o
 .text._ZN20TimeSyncRtcCallbacks12setTimestampEm
                0x00000000       0x1e ./fcapplication/csphandler.o
 .text._ZN20TimeSyncRtcCallbacksD0Ev
                0x00000000        0xe ./fcapplication/csphandler.o
 .rodata._ZTV20TimeSyncRtcCallbacks
                0x00000000       0x28 ./fcapplication/csphandler.o
 .group         0x00000000       0x10 ./fcapplication/cmdframcy15b104q.o
 .group         0x00000000       0x10 ./fcapplication/cmdframcy15b104q.o
 .group         0x00000000        0xc ./fcapplication/cmdframcy15b104q.o
 .group         0x00000000        0xc ./fcapplication/cmdframcy15b104q.o
 .group         0x00000000        0xc ./fcapplication/cmdframcy15b104q.o
 .group         0x00000000        0xc ./fcapplication/cmdframcy15b104q.o
 .group         0x00000000        0xc ./fcapplication/cmdframcy15b104q.o
 .group         0x00000000        0xc ./fcapplication/cmdframcy15b104q.o
 .group         0x00000000        0xc ./fcapplication/cmdframcy15b104q.o
 .group         0x00000000        0xc ./fcapplication/cmdframcy15b104q.o
 .group         0x00000000       0x10 ./fcapplication/confighandler.o
 .group         0x00000000       0x10 ./fcapplication/confighandler.o
 .group         0x00000000        0x8 ./fcapplication/confighandler.o
 .group         0x00000000        0x8 ./fcapplication/confighandler.o
 .group         0x00000000        0x8 ./fcapplication/confighandler.o
 .group         0x00000000        0x8 ./fcapplication/confighandler.o
 .group         0x00000000        0x8 ./fcapplication/confighandler.o
 .group         0x00000000        0x8 ./fcapplication/confighandler.o
 .group         0x00000000        0x8 ./fcapplication/confighandler.o
 .group         0x00000000        0x8 ./fcapplication/confighandler.o
 .group         0x00000000        0x8 ./fcapplication/confighandler.o
 .group         0x00000000        0xc ./fcapplication/confighandler.o
 .group         0x00000000        0xc ./fcapplication/confighandler.o
 .group         0x00000000        0xc ./fcapplication/confighandler.o
 .group         0x00000000        0xc ./fcapplication/confighandler.o
 .group         0x00000000       0x10 ./fcapplication/telemetryhandler.o
 .group         0x00000000        0x8 ./fcapplication/telemetryhandler.o
 .group         0x00000000        0xc ./fcapplication/telemetryhandler.o
 .group         0x00000000       0x10 ./fcapplication/fwupdhandler.o
 .group         0x00000000        0x8 ./fcapplication/fwupdhandler.o
 .group         0x00000000        0x8 ./fcapplication/fwupdhandler.o
 .group         0x00000000       0x10 ./fcapplication/fwupdhandler.o
 .group         0x00000000        0xc ./fcapplication/fwupdhandler.o
 .group         0x00000000        0xc ./fcapplication/fwupdhandler.o
 .group         0x00000000        0xc ./fcapplication/fwupdhandler.o
 .group         0x00000000        0xc ./fcapplication/fwupdhandler.o
 .group         0x00000000        0xc ./fcapplication/fwupdhandler.o
 .group         0x00000000        0xc ./fcapplication/fwupdhandler.o
 .group         0x00000000       0x10 ./fcapplication/adcssensors.o
 .group         0x00000000        0xc ./fcapplication/adcssensors.o
 .group         0x00000000        0xc ./fcapplication/adcssensors.o
 .group         0x00000000       0x10 ./fcapplication/adcstelemetryhandler.o
 .group         0x00000000        0x8 ./fcapplication/adcstelemetryhandler.o
 .group         0x00000000        0xc ./fcapplication/adcstelemetryhandler.o
 .group         0x00000000        0xc ./fcapplication/adcstelemetryhandler.o
 .group         0x00000000        0x8 ./fcapplication/cli.o
 .group         0x00000000        0xc ./fcapplication/config.o
 .group         0x00000000        0xc ./fcapplication/config.o
 .group         0x00000000        0xc ./fcapplication/config.o
 .group         0x00000000        0xc ./fcapplication/config.o
 .group         0x00000000        0xc ./fcapplication/configclicommands.o
 .group         0x00000000        0x8 ./fcapplication/configclicommands.o
 .group         0x00000000        0x8 ./fcapplication/configclicommands.o
 .group         0x00000000        0x8 ./fcapplication/configclicommands.o
 .group         0x00000000        0x8 ./fcapplication/configclicommands.o
 .group         0x00000000        0x8 ./fcapplication/configclicommands.o
 .group         0x00000000        0x8 ./fcapplication/configclicommands.o
 .group         0x00000000        0x8 ./fcapplication/configclicommands.o
 .group         0x00000000        0x8 ./fcapplication/configclicommands.o
 .group         0x00000000        0x8 ./fcapplication/configclicommands.o
 .group         0x00000000        0x8 ./fcapplication/configclicommands.o
 .group         0x00000000        0x8 ./fcapplication/configclicommands.o
 .group         0x00000000        0x8 ./fcapplication/configclicommands.o
 .group         0x00000000        0xc ./fcapplication/configclicommands.o
 .group         0x00000000        0x8 ./fcapplication/configclicommands.o
 .group         0x00000000        0x8 ./fcapplication/configclicommands.o
 .group         0x00000000        0x8 ./fcapplication/configclicommands.o
 .group         0x00000000        0x8 ./fcapplication/configclicommands.o
 .group         0x00000000        0xc ./fcapplication/configclicommands.o
 .group         0x00000000        0xc ./fcapplication/configservice.o
 .group         0x00000000        0xc ./fcapplication/configservice.o
 .group         0x00000000        0xc ./fcapplication/configservice.o
 .group         0x00000000        0xc ./fcapplication/configservice.o
 .group         0x00000000        0xc ./fcapplication/configservice.o
 .group         0x00000000        0xc ./fcapplication/configservice.o
 .group         0x00000000        0xc ./fcapplication/configservice.o
 .group         0x00000000        0xc ./fcapplication/configservice.o
 .group         0x00000000        0xc ./fcapplication/configservice.o
 .group         0x00000000        0xc ./fcapplication/configservice.o
 .group         0x00000000        0xc ./fcapplication/configservice.o
 .group         0x00000000        0xc ./fcapplication/configservice.o
 .group         0x00000000        0xc ./fcapplication/configservice.o
 .group         0x00000000        0xc ./fcapplication/configservice.o
 .group         0x00000000        0xc ./fcapplication/configservice.o
 .group         0x00000000        0xc ./fcapplication/configservice.o
 .group         0x00000000        0xc ./fcapplication/configservice.o
 .group         0x00000000        0xc ./fcapplication/configservice.o
 .group         0x00000000        0xc ./fcapplication/cspclicommands.o
 .group         0x00000000        0xc ./fcapplication/cspclicommands.o
 .group         0x00000000        0x8 ./fcapplication/fwupdclihelpers.o
 .group         0x00000000        0xc ./fcapplication/framcy15b104q.o
 .group         0x00000000        0x8 ./fcapplication/framcy15b104q.o
 .group         0x00000000        0x8 ./fcapplication/sunsensornsfss.o
 .group         0x00000000        0x8 ./fcapplication/sunsensornsfss.o
 .group         0x00000000        0x8 ./fcapplication/sunsensornsfss.o
 .group         0x00000000        0x8 ./fcapplication/sunsensornsfss.o
 .group         0x00000000        0x8 ./fcapplication/sunsensornsfss.o
 .group         0x00000000        0xc ./fcapplication/ast_gps_process.o
 .group         0x00000000        0xc ./fcapplication/cna_attitudecontrolsystem.o
 .group         0x00000000        0x8 ./fcapplication/cna_dynamicmodel.o
 .group         0x00000000       0x14 ./fcapplication/cna_kalman_startracker_imumultimeasbiased.o
 .group         0x00000000        0xc ./fcapplication/cna_kalman_startracker_imumultimeasbiased.o
 .text._ZN38CKalman_StarTracker_IMUMultimeasBiasedD2Ev
                0x00000000       0x14 ./fcapplication/cna_kalman_startracker_imumultimeasbiased.o
 .text._ZN38CKalman_StarTracker_IMUMultimeasBiasedD0Ev
                0x00000000       0x16 ./fcapplication/cna_kalman_startracker_imumultimeasbiased.o
 .rodata._ZTV38CKalman_StarTracker_IMUMultimeasBiased
                0x00000000       0x30 ./fcapplication/cna_kalman_startracker_imumultimeasbiased.o
 .group         0x00000000       0x14 ./fcapplication/cna_kalman_sun_3gyro_3mag.o
 .group         0x00000000        0xc ./fcapplication/cna_kalman_sun_3gyro_3mag.o
 .text._ZN22CKalman_Sun_3gyro_3MagD2Ev
                0x00000000       0x14 ./fcapplication/cna_kalman_sun_3gyro_3mag.o
 .text._ZN22CKalman_Sun_3gyro_3MagD0Ev
                0x00000000       0x16 ./fcapplication/cna_kalman_sun_3gyro_3mag.o
 .rodata._ZTV22CKalman_Sun_3gyro_3Mag
                0x00000000       0x30 ./fcapplication/cna_kalman_sun_3gyro_3mag.o
 .group         0x00000000        0x8 ./fcapplication/cna_kalmanabstract.o
 .group         0x00000000        0x8 ./fcapplication/cna_kalmanabstract.o
 .group         0x00000000        0x8 ./fcapplication/cna_kalmanabstract.o
 .group         0x00000000        0x8 ./fcapplication/cna_kalmanabstract.o
 .group         0x00000000        0x8 ./fcapplication/cna_kalmanabstract.o
 .group         0x00000000        0x8 ./fcapplication/cna_kalmanabstract.o
 .text._ZN24CNA_DynamicModelAbstract12ApplyBiassesER10_T_VectorXRKS0_
                0x00000000        0x2 ./fcapplication/cna_kalmanabstract.o
 .group         0x00000000        0x8 ./fcapplication/cna_measurementmodel.o
 .group         0x00000000        0x8 ./fcapplication/cna_measurementmodel.o
 .text._ZN28CNA_MeasurementModelAbstract15RefineResidualsER10_T_VectorX
                0x00000000        0x2 ./fcapplication/cna_measurementmodel.o
 .text._ZN28CNA_MeasurementModelAbstract18z_InitMeasurementsER10_T_VectorXR25NA_T_SatelliteEnvironmentRK22_NA_T_ADCSMeasurementsPh
                0x00000000        0x2 ./fcapplication/cna_measurementmodel.o
 .group         0x00000000       0x10 ./fcapplication/canapp.o
 .group         0x00000000        0xc ./fcapplication/canapp.o
 .group         0x00000000        0xc ./fcapplication/canapp.o
 .group         0x00000000        0xc ./fcapplication/canapp.o
 .group         0x00000000       0x10 ./fcapplication/uartapp.o
 .group         0x00000000        0xc ./fcapplication/uartapp.o
 .group         0x00000000        0xc ./fcapplication/uartapp.o
 .group         0x00000000        0xc ./fcapplication/uartapp.o
 .group         0x00000000       0x10 ./fcapplication/i2cmasterapp.o
 .group         0x00000000        0xc ./fcapplication/i2cmasterapp.o
 .group         0x00000000        0xc ./fcapplication/i2cmasterapp.o
 .group         0x00000000        0xc ./fcapplication/i2cmasterapp.o
 .group         0x00000000        0xc ./fcapplication/i2cmasterapp.o
 .group         0x00000000       0x10 ./fcapplication/spimasterapp.o
 .group         0x00000000        0xc ./fcapplication/spimasterapp.o
 .group         0x00000000        0xc ./fcapplication/spimasterapp.o
 .group         0x00000000        0xc ./fcapplication/spimasterapp.o
 .group         0x00000000        0xc ./fcapplication/spimasterapp.o
 .group         0x00000000        0xc ./fcapplication/spimasterapp.o
 .group         0x00000000       0x10 ./fcapplication/flashapp.o
 .group         0x00000000        0xc ./fcapplication/flashapp.o
 .group         0x00000000        0xc ./fcapplication/flashapp.o
 .group         0x00000000        0xc ./fcapplication/flashapp.o
 .group         0x00000000        0xc ./fcapplication/script_engine.o
 .group         0x00000000        0x8 ./fcapplication/startrackernst1b.o
 .group         0x00000000       0x10 ./fcapplication/telemetryservice.o
 .debug_frame   0x00000000       0x88 c:/program files (x86)/gnu arm embedded toolchain/9 2020-q2-update/bin/../lib/gcc/arm-none-eabi/9.3.1/../../../../arm-none-eabi/lib/thumb/v7e-m+dp/hard\libm.a(lib_a-exp.o)
 .ARM.attributes
                0x00000000       0x32 c:/program files (x86)/gnu arm embedded toolchain/9 2020-q2-update/bin/../lib/gcc/arm-none-eabi/9.3.1/../../../../arm-none-eabi/lib/thumb/v7e-m+dp/hard\libm.a(lib_a-exp.o)
 .ARM.attributes
                0x00000000       0x30 c:/program files (x86)/gnu arm embedded toolchain/9 2020-q2-update/bin/../lib/gcc/arm-none-eabi/9.3.1/../../../../arm-none-eabi/lib/thumb/v7e-m+dp/hard\libm.a(lib_a-exp_data.o)
 .debug_frame   0x00000000       0xc4 c:/program files (x86)/gnu arm embedded toolchain/9 2020-q2-update/bin/../lib/gcc/arm-none-eabi/9.3.1/../../../../arm-none-eabi/lib/thumb/v7e-m+dp/hard\libm.a(lib_a-math_err.o)
 .ARM.attributes
                0x00000000       0x32 c:/program files (x86)/gnu arm embedded toolchain/9 2020-q2-update/bin/../lib/gcc/arm-none-eabi/9.3.1/../../../../arm-none-eabi/lib/thumb/v7e-m+dp/hard\libm.a(lib_a-math_err.o)
 .debug_frame   0x00000000      0x130 c:/program files (x86)/gnu arm embedded toolchain/9 2020-q2-update/bin/../lib/gcc/arm-none-eabi/9.3.1/../../../../arm-none-eabi/lib/thumb/v7e-m+dp/hard\libm.a(lib_a-pow.o)
 .ARM.attributes
                0x00000000       0x32 c:/program files (x86)/gnu arm embedded toolchain/9 2020-q2-update/bin/../lib/gcc/arm-none-eabi/9.3.1/../../../../arm-none-eabi/lib/thumb/v7e-m+dp/hard\libm.a(lib_a-pow.o)
 .ARM.attributes
                0x00000000       0x30 c:/program files (x86)/gnu arm embedded toolchain/9 2020-q2-update/bin/../lib/gcc/arm-none-eabi/9.3.1/../../../../arm-none-eabi/lib/thumb/v7e-m+dp/hard\libm.a(lib_a-pow_log_data.o)
 .debug_frame   0x00000000       0x2c c:/program files (x86)/gnu arm embedded toolchain/9 2020-q2-update/bin/../lib/gcc/arm-none-eabi/9.3.1/../../../../arm-none-eabi/lib/thumb/v7e-m+dp/hard\libm.a(lib_a-s_atan.o)
 .ARM.attributes
                0x00000000       0x32 c:/program files (x86)/gnu arm embedded toolchain/9 2020-q2-update/bin/../lib/gcc/arm-none-eabi/9.3.1/../../../../arm-none-eabi/lib/thumb/v7e-m+dp/hard\libm.a(lib_a-s_atan.o)
 .debug_frame   0x00000000       0x34 c:/program files (x86)/gnu arm embedded toolchain/9 2020-q2-update/bin/../lib/gcc/arm-none-eabi/9.3.1/../../../../arm-none-eabi/lib/thumb/v7e-m+dp/hard\libm.a(lib_a-s_cos.o)
 .ARM.attributes
                0x00000000       0x32 c:/program files (x86)/gnu arm embedded toolchain/9 2020-q2-update/bin/../lib/gcc/arm-none-eabi/9.3.1/../../../../arm-none-eabi/lib/thumb/v7e-m+dp/hard\libm.a(lib_a-s_cos.o)
 .debug_frame   0x00000000       0x20 c:/program files (x86)/gnu arm embedded toolchain/9 2020-q2-update/bin/../lib/gcc/arm-none-eabi/9.3.1/../../../../arm-none-eabi/lib/thumb/v7e-m+dp/hard\libm.a(lib_a-s_fabs.o)
 .ARM.attributes
                0x00000000       0x32 c:/program files (x86)/gnu arm embedded toolchain/9 2020-q2-update/bin/../lib/gcc/arm-none-eabi/9.3.1/../../../../arm-none-eabi/lib/thumb/v7e-m+dp/hard\libm.a(lib_a-s_fabs.o)
 .debug_frame   0x00000000       0x3c c:/program files (x86)/gnu arm embedded toolchain/9 2020-q2-update/bin/../lib/gcc/arm-none-eabi/9.3.1/../../../../arm-none-eabi/lib/thumb/v7e-m+dp/hard\libm.a(lib_a-s_floor.o)
 .ARM.attributes
                0x00000000       0x32 c:/program files (x86)/gnu arm embedded toolchain/9 2020-q2-update/bin/../lib/gcc/arm-none-eabi/9.3.1/../../../../arm-none-eabi/lib/thumb/v7e-m+dp/hard\libm.a(lib_a-s_floor.o)
 .debug_frame   0x00000000       0x3c c:/program files (x86)/gnu arm embedded toolchain/9 2020-q2-update/bin/../lib/gcc/arm-none-eabi/9.3.1/../../../../arm-none-eabi/lib/thumb/v7e-m+dp/hard\libm.a(lib_a-s_round.o)
 .ARM.attributes
                0x00000000       0x32 c:/program files (x86)/gnu arm embedded toolchain/9 2020-q2-update/bin/../lib/gcc/arm-none-eabi/9.3.1/../../../../arm-none-eabi/lib/thumb/v7e-m+dp/hard\libm.a(lib_a-s_round.o)
 .debug_frame   0x00000000       0x34 c:/program files (x86)/gnu arm embedded toolchain/9 2020-q2-update/bin/../lib/gcc/arm-none-eabi/9.3.1/../../../../arm-none-eabi/lib/thumb/v7e-m+dp/hard\libm.a(lib_a-s_sin.o)
 .ARM.attributes
                0x00000000       0x32 c:/program files (x86)/gnu arm embedded toolchain/9 2020-q2-update/bin/../lib/gcc/arm-none-eabi/9.3.1/../../../../arm-none-eabi/lib/thumb/v7e-m+dp/hard\libm.a(lib_a-s_sin.o)
 .debug_frame   0x00000000       0x38 c:/program files (x86)/gnu arm embedded toolchain/9 2020-q2-update/bin/../lib/gcc/arm-none-eabi/9.3.1/../../../../arm-none-eabi/lib/thumb/v7e-m+dp/hard\libm.a(lib_a-s_tan.o)
 .ARM.attributes
                0x00000000       0x32 c:/program files (x86)/gnu arm embedded toolchain/9 2020-q2-update/bin/../lib/gcc/arm-none-eabi/9.3.1/../../../../arm-none-eabi/lib/thumb/v7e-m+dp/hard\libm.a(lib_a-s_tan.o)
 .debug_frame   0x00000000       0x54 c:/program files (x86)/gnu arm embedded toolchain/9 2020-q2-update/bin/../lib/gcc/arm-none-eabi/9.3.1/../../../../arm-none-eabi/lib/thumb/v7e-m+dp/hard\libm.a(lib_a-w_acos.o)
 .ARM.attributes
                0x00000000       0x32 c:/program files (x86)/gnu arm embedded toolchain/9 2020-q2-update/bin/../lib/gcc/arm-none-eabi/9.3.1/../../../../arm-none-eabi/lib/thumb/v7e-m+dp/hard\libm.a(lib_a-w_acos.o)
 .debug_frame   0x00000000       0x54 c:/program files (x86)/gnu arm embedded toolchain/9 2020-q2-update/bin/../lib/gcc/arm-none-eabi/9.3.1/../../../../arm-none-eabi/lib/thumb/v7e-m+dp/hard\libm.a(lib_a-w_asin.o)
 .ARM.attributes
                0x00000000       0x32 c:/program files (x86)/gnu arm embedded toolchain/9 2020-q2-update/bin/../lib/gcc/arm-none-eabi/9.3.1/../../../../arm-none-eabi/lib/thumb/v7e-m+dp/hard\libm.a(lib_a-w_asin.o)
 .debug_frame   0x00000000       0x20 c:/program files (x86)/gnu arm embedded toolchain/9 2020-q2-update/bin/../lib/gcc/arm-none-eabi/9.3.1/../../../../arm-none-eabi/lib/thumb/v7e-m+dp/hard\libm.a(lib_a-w_atan2.o)
 .ARM.attributes
                0x00000000       0x32 c:/program files (x86)/gnu arm embedded toolchain/9 2020-q2-update/bin/../lib/gcc/arm-none-eabi/9.3.1/../../../../arm-none-eabi/lib/thumb/v7e-m+dp/hard\libm.a(lib_a-w_atan2.o)
 .debug_frame   0x00000000       0x50 c:/program files (x86)/gnu arm embedded toolchain/9 2020-q2-update/bin/../lib/gcc/arm-none-eabi/9.3.1/../../../../arm-none-eabi/lib/thumb/v7e-m+dp/hard\libm.a(lib_a-w_fmod.o)
 .ARM.attributes
                0x00000000       0x32 c:/program files (x86)/gnu arm embedded toolchain/9 2020-q2-update/bin/../lib/gcc/arm-none-eabi/9.3.1/../../../../arm-none-eabi/lib/thumb/v7e-m+dp/hard\libm.a(lib_a-w_fmod.o)
 .debug_frame   0x00000000       0x50 c:/program files (x86)/gnu arm embedded toolchain/9 2020-q2-update/bin/../lib/gcc/arm-none-eabi/9.3.1/../../../../arm-none-eabi/lib/thumb/v7e-m+dp/hard\libm.a(lib_a-w_sqrt.o)
 .ARM.attributes
                0x00000000       0x32 c:/program files (x86)/gnu arm embedded toolchain/9 2020-q2-update/bin/../lib/gcc/arm-none-eabi/9.3.1/../../../../arm-none-eabi/lib/thumb/v7e-m+dp/hard\libm.a(lib_a-w_sqrt.o)
 .debug_frame   0x00000000       0x44 c:/program files (x86)/gnu arm embedded toolchain/9 2020-q2-update/bin/../lib/gcc/arm-none-eabi/9.3.1/../../../../arm-none-eabi/lib/thumb/v7e-m+dp/hard\libm.a(lib_a-wf_sqrt.o)
 .ARM.attributes
                0x00000000       0x32 c:/program files (x86)/gnu arm embedded toolchain/9 2020-q2-update/bin/../lib/gcc/arm-none-eabi/9.3.1/../../../../arm-none-eabi/lib/thumb/v7e-m+dp/hard\libm.a(lib_a-wf_sqrt.o)
 .debug_frame   0x00000000       0x9c c:/program files (x86)/gnu arm embedded toolchain/9 2020-q2-update/bin/../lib/gcc/arm-none-eabi/9.3.1/../../../../arm-none-eabi/lib/thumb/v7e-m+dp/hard\libm.a(lib_a-e_acos.o)
 .ARM.attributes
                0x00000000       0x32 c:/program files (x86)/gnu arm embedded toolchain/9 2020-q2-update/bin/../lib/gcc/arm-none-eabi/9.3.1/../../../../arm-none-eabi/lib/thumb/v7e-m+dp/hard\libm.a(lib_a-e_acos.o)
 .debug_frame   0x00000000       0x94 c:/program files (x86)/gnu arm embedded toolchain/9 2020-q2-update/bin/../lib/gcc/arm-none-eabi/9.3.1/../../../../arm-none-eabi/lib/thumb/v7e-m+dp/hard\libm.a(lib_a-e_asin.o)
 .ARM.attributes
                0x00000000       0x32 c:/program files (x86)/gnu arm embedded toolchain/9 2020-q2-update/bin/../lib/gcc/arm-none-eabi/9.3.1/../../../../arm-none-eabi/lib/thumb/v7e-m+dp/hard\libm.a(lib_a-e_asin.o)
 .debug_frame   0x00000000       0x50 c:/program files (x86)/gnu arm embedded toolchain/9 2020-q2-update/bin/../lib/gcc/arm-none-eabi/9.3.1/../../../../arm-none-eabi/lib/thumb/v7e-m+dp/hard\libm.a(lib_a-e_atan2.o)
 .ARM.attributes
                0x00000000       0x32 c:/program files (x86)/gnu arm embedded toolchain/9 2020-q2-update/bin/../lib/gcc/arm-none-eabi/9.3.1/../../../../arm-none-eabi/lib/thumb/v7e-m+dp/hard\libm.a(lib_a-e_atan2.o)
 .debug_frame   0x00000000       0x44 c:/program files (x86)/gnu arm embedded toolchain/9 2020-q2-update/bin/../lib/gcc/arm-none-eabi/9.3.1/../../../../arm-none-eabi/lib/thumb/v7e-m+dp/hard\libm.a(lib_a-e_fmod.o)
 .ARM.attributes
                0x00000000       0x32 c:/program files (x86)/gnu arm embedded toolchain/9 2020-q2-update/bin/../lib/gcc/arm-none-eabi/9.3.1/../../../../arm-none-eabi/lib/thumb/v7e-m+dp/hard\libm.a(lib_a-e_fmod.o)
 .debug_frame   0x00000000       0x40 c:/program files (x86)/gnu arm embedded toolchain/9 2020-q2-update/bin/../lib/gcc/arm-none-eabi/9.3.1/../../../../arm-none-eabi/lib/thumb/v7e-m+dp/hard\libm.a(lib_a-e_rem_pio2.o)
 .ARM.attributes
                0x00000000       0x32 c:/program files (x86)/gnu arm embedded toolchain/9 2020-q2-update/bin/../lib/gcc/arm-none-eabi/9.3.1/../../../../arm-none-eabi/lib/thumb/v7e-m+dp/hard\libm.a(lib_a-e_rem_pio2.o)
 .debug_frame   0x00000000       0x20 c:/program files (x86)/gnu arm embedded toolchain/9 2020-q2-update/bin/../lib/gcc/arm-none-eabi/9.3.1/../../../../arm-none-eabi/lib/thumb/v7e-m+dp/hard\libm.a(lib_a-e_sqrt.o)
 .ARM.attributes
                0x00000000       0x32 c:/program files (x86)/gnu arm embedded toolchain/9 2020-q2-update/bin/../lib/gcc/arm-none-eabi/9.3.1/../../../../arm-none-eabi/lib/thumb/v7e-m+dp/hard\libm.a(lib_a-e_sqrt.o)
 .debug_frame   0x00000000       0x20 c:/program files (x86)/gnu arm embedded toolchain/9 2020-q2-update/bin/../lib/gcc/arm-none-eabi/9.3.1/../../../../arm-none-eabi/lib/thumb/v7e-m+dp/hard\libm.a(lib_a-ef_sqrt.o)
 .ARM.attributes
                0x00000000       0x32 c:/program files (x86)/gnu arm embedded toolchain/9 2020-q2-update/bin/../lib/gcc/arm-none-eabi/9.3.1/../../../../arm-none-eabi/lib/thumb/v7e-m+dp/hard\libm.a(lib_a-ef_sqrt.o)
 .debug_frame   0x00000000       0x20 c:/program files (x86)/gnu arm embedded toolchain/9 2020-q2-update/bin/../lib/gcc/arm-none-eabi/9.3.1/../../../../arm-none-eabi/lib/thumb/v7e-m+dp/hard\libm.a(lib_a-k_cos.o)
 .ARM.attributes
                0x00000000       0x32 c:/program files (x86)/gnu arm embedded toolchain/9 2020-q2-update/bin/../lib/gcc/arm-none-eabi/9.3.1/../../../../arm-none-eabi/lib/thumb/v7e-m+dp/hard\libm.a(lib_a-k_cos.o)
 .debug_frame   0x00000000       0x70 c:/program files (x86)/gnu arm embedded toolchain/9 2020-q2-update/bin/../lib/gcc/arm-none-eabi/9.3.1/../../../../arm-none-eabi/lib/thumb/v7e-m+dp/hard\libm.a(lib_a-k_rem_pio2.o)
 .ARM.attributes
                0x00000000       0x32 c:/program files (x86)/gnu arm embedded toolchain/9 2020-q2-update/bin/../lib/gcc/arm-none-eabi/9.3.1/../../../../arm-none-eabi/lib/thumb/v7e-m+dp/hard\libm.a(lib_a-k_rem_pio2.o)
 .debug_frame   0x00000000       0x20 c:/program files (x86)/gnu arm embedded toolchain/9 2020-q2-update/bin/../lib/gcc/arm-none-eabi/9.3.1/../../../../arm-none-eabi/lib/thumb/v7e-m+dp/hard\libm.a(lib_a-k_sin.o)
 .ARM.attributes
                0x00000000       0x32 c:/program files (x86)/gnu arm embedded toolchain/9 2020-q2-update/bin/../lib/gcc/arm-none-eabi/9.3.1/../../../../arm-none-eabi/lib/thumb/v7e-m+dp/hard\libm.a(lib_a-k_sin.o)
 .debug_frame   0x00000000       0x5c c:/program files (x86)/gnu arm embedded toolchain/9 2020-q2-update/bin/../lib/gcc/arm-none-eabi/9.3.1/../../../../arm-none-eabi/lib/thumb/v7e-m+dp/hard\libm.a(lib_a-k_tan.o)
 .ARM.attributes
                0x00000000       0x32 c:/program files (x86)/gnu arm embedded toolchain/9 2020-q2-update/bin/../lib/gcc/arm-none-eabi/9.3.1/../../../../arm-none-eabi/lib/thumb/v7e-m+dp/hard\libm.a(lib_a-k_tan.o)
 .ARM.attributes
                0x00000000       0x30 c:/program files (x86)/gnu arm embedded toolchain/9 2020-q2-update/bin/../lib/gcc/arm-none-eabi/9.3.1/../../../../arm-none-eabi/lib/thumb/v7e-m+dp/hard\libm.a(lib_a-s_lib_ver.o)
 .debug_frame   0x00000000       0x54 c:/program files (x86)/gnu arm embedded toolchain/9 2020-q2-update/bin/../lib/gcc/arm-none-eabi/9.3.1/../../../../arm-none-eabi/lib/thumb/v7e-m+dp/hard\libm.a(lib_a-s_scalbn.o)
 .ARM.attributes
                0x00000000       0x32 c:/program files (x86)/gnu arm embedded toolchain/9 2020-q2-update/bin/../lib/gcc/arm-none-eabi/9.3.1/../../../../arm-none-eabi/lib/thumb/v7e-m+dp/hard\libm.a(lib_a-s_scalbn.o)

Memory Configuration

Name             Origin             Length             Attributes
FLASH            0x08000000         0x00100000         xr
RAM              0x20000000         0x00020000         xrw
ITCMRAM          0x00000000         0x00010000         xrw
*default*        0x00000000         0xffffffff

Linker script and memory map

LOAD c:/program files (x86)/gnu arm embedded toolchain/9 2020-q2-update/bin/../lib/gcc/arm-none-eabi/9.3.1/thumb/v7e-m+dp/hard/crti.o
LOAD c:/program files (x86)/gnu arm embedded toolchain/9 2020-q2-update/bin/../lib/gcc/arm-none-eabi/9.3.1/thumb/v7e-m+dp/hard/crtbegin.o
LOAD c:/program files (x86)/gnu arm embedded toolchain/9 2020-q2-update/bin/../lib/gcc/arm-none-eabi/9.3.1/../../../../arm-none-eabi/lib/thumb/v7e-m+dp/hard/crt0.o
LOAD ./fcapplication/mainofapplication.o
LOAD ./fcapplication/stm32h7xx_it.o
LOAD ./fcapplication/stm32h7xx_hal_msp.o
LOAD ./fcapplication/csphandler.o
LOAD ./fcapplication/dwt.o
LOAD ./fcapplication/commands.o
LOAD ./fcapplication/cmdi2c.o
LOAD ./fcapplication/crc_hw.o
LOAD ./fcapplication/cmdspi.o
LOAD ./fcapplication/cmdframcy15b104q.o
LOAD ./fcapplication/peripheralapps.o
LOAD ./fcapplication/oshooks.o
LOAD ./fcapplication/confighandler.o
LOAD ./fcapplication/cmdadc.o
LOAD ./fcapplication/overcurrentprotectiontask.o
LOAD ./fcapplication/system_dbg.o
LOAD ./fcapplication/telemetryhandler.o
LOAD ./fcapplication/cmdlog.o
LOAD ./fcapplication/log.o
LOAD ./fcapplication/fwupdhandler.o
LOAD ./fcapplication/cspcpureset.o
LOAD ./fcapplication/cmdrtc.o
LOAD ./fcapplication/file_table.o
LOAD ./fcapplication/powercontrolunithandler.o
LOAD ./fcapplication/system_stm32h7xx.o
LOAD ./fcapplication/startup_stm32h743xx.o
LOAD ./fcapplication/adcsactuators.o
LOAD ./fcapplication/adcssensors.o
LOAD ./fcapplication/adcsapp.o
LOAD ./fcapplication/adcstelemetryhandler.o
LOAD ./fcapplication/cli.o
LOAD ./fcapplication/clicmd.o
LOAD ./fcapplication/clicmdindexer.o
LOAD ./fcapplication/clicmdindexnode.o
LOAD ./fcapplication/cliwriter.o
LOAD ./fcapplication/cliservice.o
LOAD ./fcapplication/clihelpers.o
LOAD ./fcapplication/config.o
LOAD ./fcapplication/configclicommands.o
LOAD ./fcapplication/configservice.o
LOAD ./fcapplication/configclient.o
LOAD ./fcapplication/csp_bridge.o
LOAD ./fcapplication/csp_buffer.o
LOAD ./fcapplication/csp_conn.o
LOAD ./fcapplication/csp_crc32.o
LOAD ./fcapplication/csp_debug.o
LOAD ./fcapplication/csp_dedup.o
LOAD ./fcapplication/csp_endian.o
LOAD ./fcapplication/csp_iflist.o
LOAD ./fcapplication/csp_io.o
LOAD ./fcapplication/csp_port.o
LOAD ./fcapplication/csp_promisc.o
LOAD ./fcapplication/csp_qfifo.o
LOAD ./fcapplication/csp_route.o
LOAD ./fcapplication/csp_service_handler.o
LOAD ./fcapplication/csp_services.o
LOAD ./fcapplication/csp_sfp.o
LOAD ./fcapplication/csp_rdp.o
LOAD ./fcapplication/csp_udp.o
LOAD ./fcapplication/csp_rtable_static.o
LOAD ./fcapplication/csp_if_lo.o
LOAD ./fcapplication/csp_if_can.o
LOAD ./fcapplication/csp_malloc.o
LOAD ./fcapplication/csp_queue.o
LOAD ./fcapplication/csp_semaphore.o
LOAD ./fcapplication/csp_system.o
LOAD ./fcapplication/csp_thread.o
LOAD ./fcapplication/csp_time.o
LOAD ./fcapplication/cspclicommands.o
LOAD ./fcapplication/cspserver.o
LOAD ./fcapplication/cmdmagnetorquers.o
LOAD ./fcapplication/magnetorquers.o
LOAD ./fcapplication/file_system.o
LOAD ./fcapplication/ftransfer_sat.o
LOAD ./fcapplication/fs_tests.o
LOAD ./fcapplication/cmdfs.o
LOAD ./fcapplication/filesystem.o
LOAD ./fcapplication/fwupd.o
LOAD ./fcapplication/fwupdclicommands.o
LOAD ./fcapplication/fwupdcrc32.o
LOAD ./fcapplication/fwupdmemdescriptor.o
LOAD ./fcapplication/fwupdservice.o
LOAD ./fcapplication/fwupddescriptorhandler.o
LOAD ./fcapplication/fwupdclihelpers.o
LOAD ./fcapplication/flash_mt25q.o
LOAD ./fcapplication/cmdflash_mt25q.o
LOAD ./fcapplication/framcy15b104q.o
LOAD ./fcapplication/fram_fm22l16.o
LOAD ./fcapplication/croutine.o
LOAD ./fcapplication/event_groups.o
LOAD ./fcapplication/list.o
LOAD ./fcapplication/queue.o
LOAD ./fcapplication/tasks.o
LOAD ./fcapplication/timers.o
LOAD ./fcapplication/port.o
LOAD ./fcapplication/heap_4.o
LOAD ./fcapplication/cmdsunsensor.o
LOAD ./fcapplication/sunsensornsfss.o
LOAD ./fcapplication/gps.o
LOAD ./fcapplication/sentence.o
LOAD ./fcapplication/stm32h7xx_hal_spi_ex.o
LOAD ./fcapplication/stm32h7xx_hal_qspi.o
LOAD ./fcapplication/stm32h7xx_hal_flash.o
LOAD ./fcapplication/stm32h7xx_ll_fmc.o
LOAD ./fcapplication/stm32h7xx_hal.o
LOAD ./fcapplication/stm32h7xx_hal_mdma.o
LOAD ./fcapplication/stm32h7xx_hal_i2c.o
LOAD ./fcapplication/stm32h7xx_hal_dma.o
LOAD ./fcapplication/stm32h7xx_hal_pwr.o
LOAD ./fcapplication/stm32h7xx_hal_cortex.o
LOAD ./fcapplication/stm32h7xx_hal_spi.o
LOAD ./fcapplication/stm32h7xx_hal_gpio.o
LOAD ./fcapplication/stm32h7xx_hal_fdcan.o
LOAD ./fcapplication/stm32h7xx_hal_flash_ex.o
LOAD ./fcapplication/stm32h7xx_hal_tim.o
LOAD ./fcapplication/stm32h7xx_hal_uart.o
LOAD ./fcapplication/stm32h7xx_hal_rcc.o
LOAD ./fcapplication/stm32h7xx_hal_rcc_ex.o
LOAD ./fcapplication/stm32h7xx_hal_sram.o
LOAD ./fcapplication/stm32h7xx_hal_uart_ex.o
LOAD ./fcapplication/stm32h7xx_hal_dma_ex.o
LOAD ./fcapplication/stm32h7xx_hal_tim_ex.o
LOAD ./fcapplication/stm32h7xx_hal_i2c_ex.o
LOAD ./fcapplication/stm32h7xx_hal_pwr_ex.o
LOAD ./fcapplication/stm32h7xx_hal_iwdg.o
LOAD ./fcapplication/stm32h7xx_hal_usart.o
LOAD ./fcapplication/stm32h7xx_hal_rtc.o
LOAD ./fcapplication/stm32h7xx_hal_rtc_ex.o
LOAD ./fcapplication/stm32h7xx_hal_crc.o
LOAD ./fcapplication/stm32h7xx_hal_crc_ex.o
LOAD ./fcapplication/stm32h7xx_hal_adc.o
LOAD ./fcapplication/stm32h7xx_hal_adc_ex.o
LOAD ./fcapplication/cmdgyrostim210.o
LOAD ./fcapplication/crc8ccitt.o
LOAD ./fcapplication/gyrostim210.o
LOAD ./fcapplication/cmdmagnetometer.o
LOAD ./fcapplication/magnetometermmc5883ma.o
LOAD ./fcapplication/memoryoperators.o
LOAD ./fcapplication/na_arraymath.o
LOAD ./fcapplication/na_arrayxxmath.o
LOAD ./fcapplication/na_statusstrs.o
LOAD ./fcapplication/ast_cna_runadcs.o
LOAD ./fcapplication/ast_gaintable.o
LOAD ./fcapplication/ast_gps_process.o
LOAD ./fcapplication/ast_mag_process.o
LOAD ./fcapplication/ast_sens_process.o
LOAD ./fcapplication/astc_filter_derivedrate.o
LOAD ./fcapplication/cna_adcsconfig.o
LOAD ./fcapplication/cna_alphabetagamafilter.o
LOAD ./fcapplication/cna_attitudecontrolsystem.o
LOAD ./fcapplication/cna_dynamicmodel.o
LOAD ./fcapplication/cna_kalman_startracker_imumultimeasbiased.o
LOAD ./fcapplication/cna_kalman_sun_3gyro_3mag.o
LOAD ./fcapplication/cna_kalmanabstract.o
LOAD ./fcapplication/cna_measurementmodel.o
LOAD ./fcapplication/cna_rwvelocity.o
LOAD ./fcapplication/na_filter.o
LOAD ./fcapplication/na_igrfmodel.o
LOAD ./fcapplication/na_refframe.o
LOAD ./fcapplication/na_rigidbody.o
LOAD ./fcapplication/na_sgp4.o
LOAD ./fcapplication/na_sundirectionmodel.o
LOAD ./fcapplication/na_time.o
LOAD ./fcapplication/navigationdefines.o
LOAD ./fcapplication/pch.o
LOAD ./fcapplication/sgp4ext.o
LOAD ./fcapplication/sgp4io.o
LOAD ./fcapplication/sgp4unit.o
LOAD ./fcapplication/patternfinder.o
LOAD ./fcapplication/canapp.o
LOAD ./fcapplication/rtcapp.o
LOAD ./fcapplication/uartapp.o
LOAD ./fcapplication/i2cmasterapp.o
LOAD ./fcapplication/spimasterapp.o
LOAD ./fcapplication/flashapp.o
LOAD ./fcapplication/canclicommands.o
LOAD ./fcapplication/rtcbase.o
LOAD ./fcapplication/reqrepclienttransportcsp.o
LOAD ./fcapplication/reqrepservicetransportcsp.o
LOAD ./fcapplication/bcrw4.o
LOAD ./fcapplication/script_engine.o
LOAD ./fcapplication/cmdscriptengine.o
LOAD ./fcapplication/semihostingoff.o
LOAD ./fcapplication/cmdstartracker.o
LOAD ./fcapplication/startrackernst1b.o
LOAD ./fcapplication/supervisor.o
LOAD ./fcapplication/telemetrycollectorbasic.o
LOAD ./fcapplication/telemetryhelpers.o
LOAD ./fcapplication/telemetryservice.o
LOAD ./fcapplication/timesyncclient.o
LOAD ./fcapplication/timesyncservice.o
LOAD ./fcapplication/timesynctask.o
LOAD ./fcapplication/adc.o
LOAD ./fcapplication/systemclock.o
LOAD ./fcapplication/watchdog.o
LOAD ./fcapplication/gpio.o
LOAD ./fcapplication/can1.o
LOAD ./fcapplication/can2.o
LOAD ./fcapplication/candrivers.o
LOAD ./fcapplication/uart4.o
LOAD ./fcapplication/uart5.o
LOAD ./fcapplication/uart7.o
LOAD ./fcapplication/uart8.o
LOAD ./fcapplication/uart1.o
LOAD ./fcapplication/uart3.o
LOAD ./fcapplication/uart6.o
LOAD ./fcapplication/uartdrivers.o
LOAD ./fcapplication/i2c1.o
LOAD ./fcapplication/i2c2.o
LOAD ./fcapplication/i2c3.o
LOAD ./fcapplication/i2c4.o
LOAD ./fcapplication/i2cdrivers.o
LOAD ./fcapplication/spi1.o
LOAD ./fcapplication/spi2.o
LOAD ./fcapplication/spi4.o
LOAD ./fcapplication/spi5.o
LOAD ./fcapplication/spidrivers.o
LOAD ./fcapplication/flash.o
LOAD ./fcapplication/tim8.o
LOAD ./fcapplication/tim2.o
LOAD ./fcapplication/timdrivers.o
LOAD ./fcapplication/mcuoption.o
LOAD ./fcapplication/tim5.o
LOAD ./fcapplication/rtc.o
LOAD ./fcapplication/tim12.o
LOAD ./fcapplication/rtcdrivers.o
LOAD ./fcapplication/cmdlvc.o
LOAD ./fcapplication/lvc.o
START GROUP
LOAD c:/program files (x86)/gnu arm embedded toolchain/9 2020-q2-update/bin/../lib/gcc/arm-none-eabi/9.3.1/thumb/v7e-m+dp/hard\libgcc.a
LOAD c:/program files (x86)/gnu arm embedded toolchain/9 2020-q2-update/bin/../lib/gcc/arm-none-eabi/9.3.1/../../../../arm-none-eabi/lib/thumb/v7e-m+dp/hard\libc.a
END GROUP
START GROUP
LOAD c:/program files (x86)/gnu arm embedded toolchain/9 2020-q2-update/bin/../lib/gcc/arm-none-eabi/9.3.1/thumb/v7e-m+dp/hard\libgcc.a
LOAD c:/program files (x86)/gnu arm embedded toolchain/9 2020-q2-update/bin/../lib/gcc/arm-none-eabi/9.3.1/../../../../arm-none-eabi/lib/thumb/v7e-m+dp/hard\libc.a
LOAD c:/program files (x86)/gnu arm embedded toolchain/9 2020-q2-update/bin/../lib/gcc/arm-none-eabi/9.3.1/../../../../arm-none-eabi/lib/thumb/v7e-m+dp/hard\libnosys.a
END GROUP
LOAD c:/program files (x86)/gnu arm embedded toolchain/9 2020-q2-update/bin/../lib/gcc/arm-none-eabi/9.3.1/thumb/v7e-m+dp/hard/crtend.o
LOAD c:/program files (x86)/gnu arm embedded toolchain/9 2020-q2-update/bin/../lib/gcc/arm-none-eabi/9.3.1/thumb/v7e-m+dp/hard/crtn.o
                0x20020000                _estack = 0x20020000
                0x00000200                _Min_Heap_Size = 0x200
                0x00000400                _Min_Stack_Size = 0x400

.isr_vector     0x08000000      0x298
                0x08000000                . = ALIGN (0x4)
 *(.isr_vector)
 .isr_vector    0x08000000      0x298 ./fcapplication/startup_stm32h743xx.o
                0x08000000                g_pfnVectors
                0x08000298                . = ALIGN (0x4)

.text           0x080002c0    0x52800
                0x080002c0                . = ALIGN (0x4)
 *(.text)
 .text          0x080002c0        0x0 c:/program files (x86)/gnu arm embedded toolchain/9 2020-q2-update/bin/../lib/gcc/arm-none-eabi/9.3.1/thumb/v7e-m+dp/hard/crti.o
 .text          0x080002c0       0x40 c:/program files (x86)/gnu arm embedded toolchain/9 2020-q2-update/bin/../lib/gcc/arm-none-eabi/9.3.1/thumb/v7e-m+dp/hard/crtbegin.o
 .text          0x08000300       0x7c c:/program files (x86)/gnu arm embedded toolchain/9 2020-q2-update/bin/../lib/gcc/arm-none-eabi/9.3.1/../../../../arm-none-eabi/lib/thumb/v7e-m+dp/hard/crt0.o
                0x08000300                _stack_init
                0x08000308                _mainCRTStartup
                0x08000308                _start
 .text          0x0800037c      0x5c8 ./fcapplication/mainofapplication.o
                0x0800037c                debug_uart_write
                0x08000392                Cli_script_input(unsigned char const*, unsigned short)
                0x080003a0                Cli_script_flush_bfr()
                0x080003ac                starTrackerSyncCtrl(bool)
                0x08000422                debug_datawire_write(char const*)
 .text          0x08000944       0x1a ./fcapplication/stm32h7xx_it.o
                0x08000944                NMI_Handler
                0x08000946                HardFault_Handler
                0x08000948                MemManage_Handler
                0x0800094a                BusFault_Handler
                0x0800094c                UsageFault_Handler
                0x0800094e                DebugMon_Handler
                0x08000950                SysTick_Handler
 *fill*         0x0800095e        0x2 
 .text          0x08000960       0x68 ./fcapplication/stm32h7xx_hal_msp.o
                0x08000960                HAL_MspInit
 .text          0x080009c8      0x2cc ./fcapplication/csphandler.o
                0x08000b20                can_send
                0x08000b44                can_init
                0x08000b64                cspHandler::init(void (*)(), void (*)(unsigned char*, unsigned long))
 .text          0x08000c94       0x80 ./fcapplication/dwt.o
                0x08000c94                DWT_Stop_watch_us
                0x08000cc4                DWT_Get_Tick
                0x08000cd0                DWT_Init
 .text          0x08000d14      0x558 ./fcapplication/commands.o
 .text          0x0800126c       0xf8 ./fcapplication/cmdi2c.o
 .text          0x08001364      0x104 ./fcapplication/crc_hw.o
                0x08001364                MX_CRC_Init
                0x08001398                HAL_CRC_MspInit
                0x080013c8                HAL_CRC_MspDeInit
                0x080013e8                HW_CRC_32_Calculate
 .text          0x08001468        0x0 ./fcapplication/cmdspi.o
 .text          0x08001468      0x31c ./fcapplication/cmdframcy15b104q.o
 .text          0x08001784       0xa4 ./fcapplication/peripheralapps.o
                0x08001784                peripheralApps::getUart4AppInstance()
                0x0800178c                peripheralApps::getUart5AppInstance()
                0x08001794                peripheralApps::getUart7AppInstance()
                0x0800179c                peripheralApps::getUart8AppInstance()
                0x080017a4                peripheralApps::getUart1AppInstance()
                0x080017ac                peripheralApps::getUart3AppInstance()
                0x080017b4                peripheralApps::getUart6AppInstance()
                0x080017bc                peripheralApps::getSpi1MasterAppInstance()
                0x080017c4                peripheralApps::getSpi2MasterAppInstance()
                0x080017cc                peripheralApps::getSpi4MasterAppInstance()
                0x080017d4                peripheralApps::getSpi5MasterAppInstance()
                0x080017dc                peripheralApps::getI2c1MasterAppInstance()
                0x080017e4                peripheralApps::getI2c2MasterAppInstance()
                0x080017ec                peripheralApps::getI2c3MasterAppInstance()
                0x080017f4                peripheralApps::getI2c4MasterAppInstance()
                0x080017fc                peripheralApps::getCan1AppInstance()
                0x08001804                peripheralApps::getCan2AppInstance()
                0x0800180c                getCanAppInstanceForCli(unsigned char)
                0x08001820                peripheralApps::getRtcAppInstance()
 .text          0x08001828       0x5c ./fcapplication/oshooks.o
                0x08001828                vApplicationGetIdleTaskMemory
                0x0800183c                vApplicationIdleHook
                0x0800183e                vApplicationStackOverflowHook
                0x08001840                vApplicationMallocFailedHook
                0x08001842                Get_Sys_Uptime
                0x0800185c                HAL_SYSTICK_Callback
 .text          0x08001884       0x10 ./fcapplication/confighandler.o
                0x08001884                configHandler::getConfigInstance()
                0x0800188c                getConfigInstanceForCli()
 .text          0x08001894      0x3b8 ./fcapplication/cmdadc.o
 .text          0x08001c4c      0x228 ./fcapplication/overcurrentprotectiontask.o
                0x08001e1c                overcurrentProtectionTask::init(PowerControlUnit*, unsigned char, unsigned long, void (*)(), unsigned long)
 .text          0x08001e74       0xc8 ./fcapplication/system_dbg.o
                0x08001e74                RST_reason_save
                0x08001e94                RST_reason_id
                0x08001ec8                RST_reason_txt
                0x08001f00                RST_get_last_reason_id
                0x08001f0c                RST_get_last_reason_txt
                0x08001f18                RST_get_last_reason_value
 .text          0x08001f3c       0xe8 ./fcapplication/telemetryhandler.o
                0x08001f3c                telemetryHandler::collect(telemetryTypes::GeneralTelemetry&)
                0x08001fb4                telemetryHandler::collect(telemetryTypes::StartupTelemetry&)
                0x08002014                telemetryHandler::getStartupTelemetryInstance()
                0x0800201c                telemetryHandler::getGeneralTelemetryCollectorInstance()
 .text          0x08002024      0x25c ./fcapplication/cmdlog.o
 .text          0x08002280      0x4a8 ./fcapplication/log.o
                0x08002280                Log::Log(unsigned short)
                0x08002280                Log::Log(unsigned short)
                0x0800228c                Log::getError()
                0x08002292                Log::init()
                0x080022c0                Log::writefb(std::array<unsigned char, 128u>&, unsigned char, char const*, std::__va_list)
                0x080022ea                Log::writefb(std::array<unsigned char, 128u>&, unsigned char, unsigned long, char const*, std::__va_list)
                0x08002320                Log::writefb(std::array<unsigned char, 128u>&, unsigned char, char const*, ...)
                0x08002354                Log::write(char const*, char const*, ...)
                0x08002470                Log::write(char const*, char const*, std::__va_list)
                0x08002580                Log::write(char const*, unsigned long, char const*, ...)
                0x080026a0                Log::read(std::array<unsigned char, 128u>&, unsigned long)
                0x08002706                Log::clear()
                0x08002716                fileLog::getUseInstance()
                0x08002720                fileLog::getErrInstance()
 .text          0x08002728       0xa8 ./fcapplication/fwupdhandler.o
                0x08002728                fwUpdHandler::supportInit()
                0x080027c0                getFwUpdInstanceForCli()
                0x080027c8                fwUpdHandler::getFwUpdInstance()
 .text          0x080027d0        0x4 ./fcapplication/cspcpureset.o
                0x080027d0                cpu_reset
 *fill*         0x080027d4        0x4 
 .text          0x080027d8      0x3dc ./fcapplication/cmdrtc.o
 .text          0x08002bb4       0x20 ./fcapplication/file_table.o
                0x08002bb4                FilePassword1
                0x08002bc0                FS_get_table_crc
                0x08002bc8                FS_get_table
                0x08002bd0                FS_get_table_sz
 .text          0x08002bd4       0x24 ./fcapplication/powercontrolunithandler.o
                0x08002bd4                powerControlUnitHandler::getSunSensorsPowerControlUnit()
                0x08002bdc                powerControlUnitHandler::getExtTempAndMagneticSensorsPowerControlUnit()
                0x08002be4                powerControlUnitHandler::getGpsPowerControlUnit()
                0x08002bec                powerControlUnitHandler::getArrayOfUnits()
                0x08002bf4                powerControlUnitHandler::getNumOfUnitsInArray()
 .text          0x08002bf8      0x1d0 ./fcapplication/system_stm32h7xx.o
                0x08002bf8                SystemInit
                0x08002c5c                SystemCoreClockUpdate
 .text          0x08002dc8       0x14 ./fcapplication/startup_stm32h743xx.o
 .text          0x08002ddc       0x10 ./fcapplication/adcsactuators.o
                0x08002ddc                adcsActuators::getMagnetorquersInstance()
                0x08002de4                adcsActuators::getRWAInstance()
 .text          0x08002dec       0x4c ./fcapplication/adcssensors.o
                0x08002dec                getGyroSTIM210InstanceForCli()
                0x08002df4                adcsSensors::getGyroPollInstance()
                0x08002dfc                adcsSensors::getGpsInstance()
                0x08002e04                adcsSensors::getMagnetometerInstance()
                0x08002e0c                adcsSensors::getSunSensorInstance(unsigned char)
                0x08002e20                adcsSensors::getStarTrackerInstance(unsigned char)
 .text          0x08002e38      0x68c ./fcapplication/adcsapp.o
                0x08002eb4                ADCSApp::ADCSDataCollector::init()
                0x08002f24                ADCSApp::ADCSDataCollector::processTaskRoutine()
                0x08002fea                ADCSApp::ADCSDataCollector::task(void*)
                0x08002ff6                ADCSApp::init(UartApp&, UartApp&, UartApp&, CanApp&, void*, unsigned long*, unsigned short, char const*, unsigned long, void (*)(), unsigned long)
                0x08003140                ADCSApp::readMAG(double)
                0x08003228                ADCSApp::readFSS(double)
                0x08003310                ADCSApp::setEMTCmd()
                0x08003352                ADCSApp::setRWACmd()
                0x0800337e                ADCSApp::markDataNotPresent()
                0x080033ca                ADCSApp::processTaskRoutine()
                0x080034ae                ADCSApp::task(void*)
 .text          0x080034c4      0x1ac ./fcapplication/adcstelemetryhandler.o
                0x080034c4                telemetryHandler::collect(telemetryTypes::AdcsTelemetry&)
                0x08003668                telemetryHandler::getAdcsTelemetryCollectorInstance()
 .text          0x08003670      0x5b8 ./fcapplication/cli.o
                0x080036a0                Cli::~Cli()
                0x080036a0                Cli::~Cli()
                0x080036ac                Cli::setWriteFunction(unsigned short (*)(unsigned char const*, unsigned short))
                0x080036b0                Cli::setWriter(CliWriter&)
                0x080036b6                Cli::flushTempBuf()
                0x080036c2                Cli::Cli(unsigned char*, unsigned short, unsigned short (*)(unsigned char const*, unsigned short), bool, char const*)
                0x080036c2                Cli::Cli(unsigned char*, unsigned short, unsigned short (*)(unsigned char const*, unsigned short), bool, char const*)
                0x08003700                Cli::sendPrompt()
                0x08003720                Cli::getLastCmdResult()
                0x08003726                Cli::printCmdHelp(char const*, CliCmd const&, bool)
                0x08003788                Cli::getCmdByName(char const*)
                0x080037ce                Cli::printHelp(unsigned char, char**)
                0x080038a0                Cli::getChildCmd(CliCmd const&, unsigned char, char**)
                0x080038d4                Cli::processCmd(char const*, unsigned char, char**)
                0x0800396c                Cli::processLine(char*, unsigned short)
                0x08003b40                Cli::rawDataInput(unsigned char const*, unsigned short)
                0x08003bf0                Cli::areThereAnyCmdDublications()
 .text          0x08003c28        0x0 ./fcapplication/clicmd.o
 .text          0x08003c28       0xfc ./fcapplication/clicmdindexer.o
                0x08003c2a                CliCmdIndexer::getInstance()
                0x08003c58                CliCmdIndexer::addNode(CliCmdIndexNode*)
                0x08003c7a                CliCmdIndexer::getFirstNode()
                0x08003c7e                CliCmdIndexer::getNumOfNodes()
                0x08003c82                CliCmdIndexer::CliCmdIndexer()
                0x08003c82                CliCmdIndexer::CliCmdIndexer()
                0x08003c8c                CliCmdIndexer::~CliCmdIndexer()
                0x08003c8c                CliCmdIndexer::~CliCmdIndexer()
                0x08003c8e                CliCmdIndexer::getPreviousNode(CliCmdIndexNode*)
                0x08003cb4                CliCmdIndexer::removeNode(CliCmdIndexNode*)
 .text          0x08003d24       0x36 ./fcapplication/clicmdindexnode.o
                0x08003d24                CliCmdIndexNode::CliCmdIndexNode(CliCmd const*)
                0x08003d24                CliCmdIndexNode::CliCmdIndexNode(CliCmd const*)
                0x08003d3c                CliCmdIndexNode::~CliCmdIndexNode()
                0x08003d3c                CliCmdIndexNode::~CliCmdIndexNode()
                0x08003d4e                CliCmdIndexNode::setNextNode(CliCmdIndexNode*)
                0x08003d52                CliCmdIndexNode::getNextNode()
                0x08003d56                CliCmdIndexNode::getCmd()
 *fill*         0x08003d5a        0x2 
 .text          0x08003d5c      0x1dc ./fcapplication/cliwriter.o
                0x08003d5c                CliWriter::CliWriter(unsigned short (*)(unsigned char const*, unsigned short))
                0x08003d5c                CliWriter::CliWriter(unsigned short (*)(unsigned char const*, unsigned short))
                0x08003d60                CliWriter::~CliWriter()
                0x08003d60                CliWriter::~CliWriter()
                0x08003d62                CliWriter::setWriteFunction(unsigned short (*)(unsigned char const*, unsigned short))
                0x08003d66                CliWriter::write(unsigned char const*, unsigned short)
                0x08003d7a                CliWriter::write(char const*)
                0x08003d9a                CliWriter::writef(char const*, ...)
                0x08003dd2                CliWriter& CliWriter::operator<< <signed char>(signed char)
                0x08003de8                CliWriter& CliWriter::operator<< <short>(short)
                0x08003dfc                CliWriter& CliWriter::operator<< <int>(int)
                0x08003e10                CliWriter& CliWriter::operator<< <unsigned char>(unsigned char)
                0x08003e24                CliWriter& CliWriter::operator<< <unsigned short>(unsigned short)
                0x08003e38                CliWriter& CliWriter::operator<< <unsigned int>(unsigned int)
                0x08003e4c                CliWriter& CliWriter::operator<< <unsigned long long>(unsigned long long)
                0x08003e60                CliWriter& CliWriter::operator<< <unsigned long>(unsigned long)
                0x08003e74                CliWriter& CliWriter::operator<< <float>(float)
                0x08003e90                CliWriter& CliWriter::operator<< <double>(double)
                0x08003ea8                CliWriter& CliWriter::operator<< <bool>(bool)
                0x08003ec8                CliWriter::operator<<(char const*)
                0x08003ed4                CliWriter::operator<<(char*)
                0x08003ee0                CliWriter& CliWriter::operator<< <CliWriter::Hex>(CliWriter::Hex)
                0x08003f10                CliWriter& CliWriter::operator<< <CliWriter::String>(CliWriter::String)
 .text          0x08003f38      0x170 ./fcapplication/cliservice.o
                0x08003f94                cliService::handle(Cli&, csp_packet_t*, unsigned int)
                0x08003ff8                cliService::outputFunction(unsigned char const*, unsigned short, void (*)())
 .text          0x080040a8      0x5f4 ./fcapplication/clihelpers.o
                0x080040cc                CliHelpers::getFlag(char, unsigned char, char**)
                0x080041da                CliHelpers::validateFlags(CliWriter&, char const*, unsigned char, char**)
                0x08004328                CliHelpers::isitDigitf(char const*)
                0x08004378                CliHelpers::isitDigitf(CliWriter&, char const*)
                0x08004398                CliHelpers::isitDigit(char const*)
                0x080043d6                CliHelpers::isitDigit(CliWriter&, char const*)
                0x080043f4                CliHelpers::isitDigitHex(char const*)
                0x08004422                CliHelpers::isitDigitHex(CliWriter&, char const*)
                0x08004440                CliHelpers::hexDecode(char const*, unsigned int, unsigned char*, unsigned int)
                0x080044be                CliHelpers::hexDecode(CliWriter&, char const*, unsigned int, unsigned char*, unsigned int)
                0x080044e4                CliHelpers::isString(CliWriter&, char const*, unsigned int, unsigned int)
                0x08004564                bool CliHelpers::getArg<unsigned char>(CliWriter&, char const*, unsigned char&)
                0x080045bc                bool CliHelpers::getArg<unsigned short>(CliWriter&, char const*, unsigned short&)
                0x08004618                bool CliHelpers::getArg<unsigned long>(CliWriter&, char const*, unsigned long&)
                0x0800467c                bool CliHelpers::getArg<char const*>(CliWriter&, char const*, char const*&)
 .text          0x0800469c      0x45c ./fcapplication/config.o
                0x0800469c                Config::Config(ConfigPropDescr const*, unsigned short, ConfigProperties&, Config::EventCallbacks&, Config::StorageCallbacks&, unsigned long, unsigned long)
                0x0800469c                Config::Config(ConfigPropDescr const*, unsigned short, ConfigProperties&, Config::EventCallbacks&, Config::StorageCallbacks&, unsigned long, unsigned long)
                0x080046de                Config::~Config()
                0x080046de                Config::~Config()
                0x080046e0                Config::errorCodeToString(Config::ErrorCode)
                0x080046ec                Config::accessRoleToString(ConfigAccessRole)
                0x080046fc                Config::propSourceToString(ConfigProperties::Source)
                0x0800470c                Config::elevateAccessRole(ConfigAccessRole, unsigned long)
                0x0800473e                Config::unlock()
                0x0800475a                Config::lock()
                0x08004776                Config::findDescriptor(unsigned short)
                0x080047f4                Config::getType(unsigned short, ConfigPropDescr::Type&)
                0x08004818                Config::getDescriptor(unsigned short)
                0x0800481c                Config::findDescriptor(char const*)
                0x080048cc                Config::loadDefault()
                0x0800490c                Config::loadFallback()
                0x08004960                Config::loadMain()
                0x080049b4                Config::init(bool)
                0x08004a6a                Config::save(bool)
 .text          0x08004af8     0x188c ./fcapplication/configclicommands.o
 .text          0x08006384      0xfe8 ./fcapplication/configservice.o
                0x08006384                ConfigService::~ConfigService()
                0x08006384                ConfigService::~ConfigService()
                0x08006386                ConfigService::~ConfigService()
                0x08006394                ConfigService::ConfigService(Config&)
                0x08006394                ConfigService::ConfigService(Config&)
                0x08006820                ConfigService::handle(unsigned char const*, unsigned short, unsigned char*, unsigned short)
 .text          0x0800736c      0x4b2 ./fcapplication/configclient.o
                0x0800736c                ConfigClient::ConfigClient(ReqRepClientTransportBase&)
                0x0800736c                ConfigClient::ConfigClient(ReqRepClientTransportBase&)
                0x08007370                ConfigClient::~ConfigClient()
                0x08007370                ConfigClient::~ConfigClient()
                0x08007372                ConfigClient::loadMain(unsigned long)
                0x080073f4                ConfigClient::loadDefault(unsigned long)
                0x08007476                ConfigClient::loadFallback(unsigned long)
                0x080074f8                ConfigClient::unlock(unsigned long)
                0x0800757a                ConfigClient::lock(unsigned long)
                0x080075fc                ConfigClient::save(unsigned long)
                0x0800767a                ConfigClient::saveAsFallback(unsigned long)
                0x080076fc                ConfigClient::elevateAccessRole(ConfigAccessRole, unsigned long, unsigned long)
                0x08007786                ConfigClient::getCurrStatus(Config::Status&, unsigned long)
 *fill*         0x0800781e        0x2 
 .text          0x08007820       0xe0 ./fcapplication/csp_bridge.o
                0x08007820                csp_bridge
                0x080078bc                csp_bridge_start
 .text          0x08007900      0x248 ./fcapplication/csp_buffer.o
                0x08007900                csp_buffer_init
                0x0800797c                csp_buffer_get_isr
                0x080079bc                csp_buffer_get
                0x08007a34                csp_buffer_free_isr
                0x08007a7c                csp_buffer_free
                0x08007b08                csp_buffer_clone
                0x08007b30                csp_buffer_remaining
                0x08007b3c                csp_buffer_size
 .text          0x08007b48      0x454 ./fcapplication/csp_conn.o
                0x08007b48                csp_conn_check_timeouts
                0x08007b4a                csp_conn_get_rxq
                0x08007b4e                csp_conn_lock
                0x08007b62                csp_conn_unlock
                0x08007b6e                csp_conn_enqueue_packet
                0x08007bb0                csp_conn_init
                0x08007c3c                csp_conn_find
                0x08007c6c                csp_conn_flush_rx_queue
                0x08007c90                csp_conn_allocate
                0x08007d20                csp_conn_new
                0x08007d44                csp_close
                0x08007da4                csp_connect
                0x08007e98                csp_conn_dport
                0x08007ea0                csp_conn_sport
                0x08007ea8                csp_conn_dst
                0x08007eb0                csp_conn_src
                0x08007eb8                csp_conn_flags
                0x08007ebc                csp_conn_print_table
                0x08007f18                csp_conn_print_table_str
 .text          0x08007f9c       0xe4 ./fcapplication/csp_crc32.o
                0x08007f9c                csp_crc32_memory_few
                0x08007fc4                csp_crc32_memory
                0x08007ff0                csp_crc32_append
                0x08008034                csp_crc32_verify
 .text          0x08008080       0x90 ./fcapplication/csp_debug.o
                0x08008080                csp_debug_hook_set
                0x0800808c                do_csp_debug
                0x080080dc                csp_debug_set_level
                0x080080ec                csp_debug_get_level
                0x080080fc                csp_debug_toggle_level
 .text          0x08008110       0x74 ./fcapplication/csp_dedup.o
                0x08008110                csp_dedup_is_duplicate
 .text          0x08008184       0x88 ./fcapplication/csp_endian.o
                0x08008184                csp_hton16
                0x0800818a                csp_ntoh16
                0x08008190                csp_hton32
                0x08008194                csp_ntoh32
                0x08008198                csp_hton64
                0x080081a0                csp_ntoh64
                0x080081a4                csp_htobe16
                0x080081aa                csp_htole16
                0x080081ac                csp_betoh16
                0x080081b2                csp_letoh16
                0x080081b4                csp_htobe32
                0x080081b8                csp_htole32
                0x080081ba                csp_betoh32
                0x080081be                csp_letoh32
                0x080081c0                csp_htobe64
                0x080081c4                csp_htole64
                0x080081c6                csp_betoh64
                0x080081ca                csp_letoh64
                0x080081cc                csp_htonflt
                0x080081dc                csp_ntohflt
                0x080081ec                csp_htondbl
                0x080081fc                csp_ntohdbl
 *fill*         0x0800820c        0x4 
 .text          0x08008210       0xfc ./fcapplication/csp_iflist.o
                0x08008210                csp_iflist_get_by_name
                0x08008234                csp_iflist_add
                0x08008258                csp_bytesize
                0x080082ac                csp_iflist_print
 .text          0x0800830c      0x4d4 ./fcapplication/csp_io.o
                0x0800830c                csp_set_address
                0x08008318                csp_get_address
                0x08008324                csp_set_hostname
                0x08008330                csp_get_hostname
                0x0800833c                csp_set_model
                0x08008348                csp_get_model
                0x08008354                csp_set_revision
                0x08008360                csp_get_revision
                0x0800836c                csp_init
                0x080083b4                csp_socket
                0x0800842c                csp_accept
                0x0800844e                csp_read
                0x08008476                csp_send_direct
                0x08008568                csp_send
                0x080085ac                csp_send_prio
                0x080085c4                csp_transaction_persistent
                0x08008658                csp_transaction
                0x0800868c                csp_recvfrom
                0x080086b2                csp_sendto
                0x08008750                csp_sendto_reply
                0x08008784                csp_sendto_simple_reply
 .text          0x080087e0       0xc4 ./fcapplication/csp_port.o
                0x080087e0                csp_port_get_socket
                0x0800880c                csp_port_init
                0x08008824                csp_listen
                0x08008844                csp_bind
 .text          0x080088a4       0x90 ./fcapplication/csp_promisc.o
                0x080088a4                csp_promisc_enable
                0x080088cc                csp_promisc_disable
                0x080088d8                csp_promisc_read
                0x080088f8                csp_promisc_add
 .text          0x08008934       0xc0 ./fcapplication/csp_qfifo.o
                0x08008934                csp_qfifo_init
                0x08008958                csp_qfifo_read
                0x08008978                csp_qfifo_write
 .text          0x080089f4      0x2c4 ./fcapplication/csp_route.o
                0x08008a50                csp_route_work
                0x08008c60                csp_task_router
                0x08008c78                csp_route_start_task
 .text          0x08008cb8      0x55c ./fcapplication/csp_service_handler.o
                0x08008e88                csp_cmp_set_memcpy
                0x08008e94                csp_cmp_handler
                0x08008ef2                csp_service_handler
                0x08009044                csp_cmp_handler_no_conn
                0x080090a0                csp_service_handler_no_conn
 .text          0x08009214      0x3c4 ./fcapplication/csp_services.o
                0x08009214                csp_ping
                0x080092b6                csp_ping_repeat
                0x0800936a                csp_ping_noreply
                0x080093d0                csp_reboot
                0x08009400                csp_shutdown
                0x08009430                csp_ps
                0x080094c8                csp_memfree
                0x08009510                csp_buf_free
                0x0800955c                csp_uptime
                0x080095a8                csp_cmp
 .text          0x080095d8      0x1d0 ./fcapplication/csp_sfp.o
                0x080095d8                csp_sfp_send_own_memcpy
                0x08009688                csp_sfp_send
                0x080096a0                csp_sfp_recv_fp
                0x08009798                csp_sfp_recv
 .text          0x080097a8        0x0 ./fcapplication/csp_rdp.o
 .text          0x080097a8       0x54 ./fcapplication/csp_udp.o
                0x080097a8                csp_udp_new_packet
 .text          0x080097fc      0x110 ./fcapplication/csp_rtable_static.o
                0x080097fc                csp_rtable_find_iface
                0x08009824                csp_rtable_find_mac
                0x0800984c                csp_rtable_clear
                0x0800985c                csp_route_table_load
                0x0800986c                csp_route_table_save
                0x08009878                csp_rtable_set
                0x080098b4                csp_rtable_print
 .text          0x0800990c       0x34 ./fcapplication/csp_if_lo.o
                0x0800990c                csp_lo_tx
 .text          0x08009940      0x444 ./fcapplication/csp_if_can.o
                0x0800995c                csp_can_tx
                0x08009ac4                csp_can_process_frame
                0x08009c7c                csp_can_rx_frame
                0x08009cc8                csp_can_init
 .text          0x08009d84        0x8 ./fcapplication/csp_malloc.o
                0x08009d84                csp_malloc
                0x08009d88                csp_free
 .text          0x08009d8c       0x28 ./fcapplication/csp_queue.o
                0x08009d8c                csp_queue_create
                0x08009d92                csp_queue_remove
                0x08009d96                csp_queue_enqueue
                0x08009d9c                csp_queue_enqueue_isr
                0x08009da2                csp_queue_dequeue
                0x08009da8                csp_queue_dequeue_isr
                0x08009dac                csp_queue_size
                0x08009db0                csp_queue_size_isr
 .text          0x08009db4       0xc4 ./fcapplication/csp_semaphore.o
                0x08009db4                csp_mutex_create
                0x08009dc8                csp_bin_sem_create
                0x08009de8                csp_bin_sem_remove
                0x08009df8                csp_mutex_remove
                0x08009dfc                csp_bin_sem_wait
                0x08009e24                csp_mutex_lock
                0x08009e28                csp_bin_sem_post
                0x08009e50                csp_mutex_unlock
                0x08009e54                csp_bin_sem_post_isr
 .text          0x08009e78       0x94 ./fcapplication/csp_system.o
                0x08009e78                csp_sys_tasklist
                0x08009e82                csp_sys_tasklist_size
                0x08009e8e                csp_sys_memfree
                0x08009ec4                cpu_set_reset_cause
                0x08009ec8                csp_sys_reboot
                0x08009ee8                csp_sys_shutdown
                0x08009f08                csp_sys_set_color
 .text          0x08009f0c       0x1a ./fcapplication/csp_thread.o
                0x08009f0c                csp_thread_create
 .text          0x08009f26       0x28 ./fcapplication/csp_time.o
                0x08009f26                csp_get_ms
                0x08009f2a                csp_get_ms_isr
                0x08009f2e                csp_get_s
                0x08009f3e                csp_get_s_isr
 *fill*         0x08009f4e        0x2 
 .text          0x08009f50      0x4c8 ./fcapplication/cspclicommands.o
 .text          0x0800a418       0x78 ./fcapplication/cspserver.o
                0x0800a418                CspServer::CspServer(void (&)(csp_packet_t*), void (&)())
                0x0800a418                CspServer::CspServer(void (&)(csp_packet_t*), void (&)())
                0x0800a422                CspServer::~CspServer()
                0x0800a422                CspServer::~CspServer()
                0x0800a424                CspServer::cspServerHandler()
                0x0800a46e                CspServer::cspServerTask(void*)
                0x0800a472                CspServer::init(char const*, unsigned long, unsigned long, unsigned long*, xSTATIC_TCB*)
 .text          0x0800a490       0x9c ./fcapplication/cmdmagnetorquers.o
 .text          0x0800a52c       0x94 ./fcapplication/magnetorquers.o
                0x0800a52c                Magnetorquers::set(unsigned short, GPIO_TypeDef*, unsigned short, GPIO_TypeDef*, Magnetorquers::MTQ_STATE)
                0x0800a568                Magnetorquers::setMtq(Magnetorquers::MTQ_IDX, Magnetorquers::MTQ_STATE)
 .text          0x0800a5c0     0x2448 ./fcapplication/file_system.o
                0x0800ad9c                TaskFlsys
                0x0800ba1c                FS_format_file
                0x0800ba98                FS_write_entry
                0x0800baf0                FS_add_entry
                0x0800bb48                FS_add_entry_preformat
                0x0800bba8                FS_read_entry
                0x0800be10                FS_file_check
                0x0800c080                FS_clear_file
                0x0800c0f0                FS_get_file_info
                0x0800c334                FS_add_stream
                0x0800c410                FS_max_log_entries
                0x0800c478                FS_max_static_entries
                0x0800c4de                FS_get_err_list
                0x0800c500                FS_file_table_crc
                0x0800c56c                FS_file_locking
                0x0800c610                FS_entry_optimizer
                0x0800c62e                FS_configure_memory
                0x0800c77e                FS_init
                0x0800c9e4                FS_getWdtKickPeriod
                0x0800c9f0                FS_getWdtKickCallback
                0x0800c9fc                FS_getCrcCallback
 .text          0x0800ca08      0xc34 ./fcapplication/ftransfer_sat.o
                0x0800ca8c                TaskFTransfer
                0x0800d010                FT_get_err_list
                0x0800d030                FileTransfer_Init
                0x0800d0c8                FileTransfer_Handle
 .text          0x0800d63c      0x42c ./fcapplication/fs_tests.o
                0x0800d684                TaskPrint
                0x0800d83c                write_test
                0x0800d8bc                Task1
                0x0800d8ec                Task2
                0x0800d920                Task3
                0x0800d958                start_test
                0x0800d9a4                stop_test
                0x0800d9bc                FS_test_init
 .text          0x0800da68     0x118c ./fcapplication/cmdfs.o
                0x0800ebdc                debugWriter(unsigned char*, unsigned long)
 .text          0x0800ebf4      0x2b4 ./fcapplication/filesystem.o
                0x0800ec0c                FileSystem::Static::read(unsigned short, unsigned long, unsigned char*, unsigned long, unsigned long&)
                0x0800eca4                FileSystem::Static::calcFileSize(unsigned short)
                0x0800ecd0                FileSystem::Static::calcCrc(unsigned short, unsigned long&, unsigned long&)
                0x0800ed22                FileSystem::Static::writeEntrySync(unsigned short, unsigned long, unsigned char const*, unsigned int)
                0x0800ed84                FileSystem::Static::Writer::Writer(unsigned short, unsigned char*, unsigned int)
                0x0800ed84                FileSystem::Static::Writer::Writer(unsigned short, unsigned char*, unsigned int)
                0x0800edb4                FileSystem::Static::Writer::close()
                0x0800ede0                FileSystem::Static::Writer::~Writer()
                0x0800ede0                FileSystem::Static::Writer::~Writer()
                0x0800edec                FileSystem::Static::Writer::write(unsigned char const*, unsigned int)
                0x0800ee36                FileSystem::Static::copy(unsigned short, unsigned short)
 .text          0x0800eea8      0x5a8 ./fcapplication/fwupd.o
                0x0800eea8                FwUpd::errorCodeToString(FwUpd::ErrorCode)
                0x0800eeb4                FwUpd::stateToString(FwUpd::State)
                0x0800eec4                FwUpd::FwUpd(FwUpd::Memory&)
                0x0800eec4                FwUpd::FwUpd(FwUpd::Memory&)
                0x0800ef94                FwUpd::~FwUpd()
                0x0800ef94                FwUpd::~FwUpd()
                0x0800efaa                FwUpd::getGoldenImageUpdateDescr(FwUpdDescriptor&)
                0x0800efce                FwUpd::abortUpdate()
                0x0800f000                FwUpd::validateStorageSignature(FwUpdImageType, unsigned long, bool, unsigned long&, unsigned long&)
                0x0800f046                FwUpd::validateInstalledImageSignature(FwUpdImageType, unsigned long&, unsigned long&)
                0x0800f084                FwUpd::verifyInstallation()
                0x0800f0de                FwUpd::installImage()
                0x0800f1d8                FwUpd::getCurrState() const
                0x0800f1de                FwUpd::getCurrUpdateDescr(FwUpdDescriptor&) const
                0x0800f204                FwUpd::getSysInfo(FwUpdSysInfo&) const
                0x0800f216                FwUpd::isUpdateDescrValid(FwUpdDescriptor const&)
                0x0800f280                FwUpd::startUpdate(FwUpdDescriptor const&)
                0x0800f2d4                FwUpd::startUpdateOfGoldenImage(FwUpdImageType)
                0x0800f358                FwUpd::areMemoryDescriptorsValid()
                0x0800f3e0                FwUpd::initialize(FwUpdSysInfo const&)
 .text          0x0800f450      0x3b0 ./fcapplication/fwupdclicommands.o
 .text          0x0800f800       0x40 ./fcapplication/fwupdcrc32.o
                0x0800f800                FwUpdCrc32::update(unsigned char)
                0x0800f818                FwUpdCrc32::update(unsigned char const*, unsigned long)
                0x0800f832                FwUpdCrc32::reset()
                0x0800f83a                FwUpdCrc32::get()
 .text          0x0800f840      0x402 ./fcapplication/fwupdmemdescriptor.o
                0x0800f840                FwUpdMemDescriptor::FwUpdMemDescriptor(unsigned long, FwUpdMemDriverBase&, FwUpdMemDescriptor::Layout const&, void (*)())
                0x0800f840                FwUpdMemDescriptor::FwUpdMemDescriptor(unsigned long, FwUpdMemDriverBase&, FwUpdMemDescriptor::Layout const&, void (*)())
                0x0800f84e                FwUpdMemDescriptor::~FwUpdMemDescriptor()
                0x0800f84e                FwUpdMemDescriptor::~FwUpdMemDescriptor()
                0x0800f850                FwUpdMemDescriptor::isValid() const
                0x0800f85c                FwUpdMemDescriptor::isOverlapping(FwUpdMemDescriptor const&) const
                0x0800f880                FwUpdMemDescriptor::kickWatchdog() const
                0x0800f888                FwUpdMemDescriptor::copyTo(FwUpdMemDescriptor const&, unsigned long)
                0x0800f974                FwUpdMemDescriptor::calculateCrc(unsigned long, unsigned long&) const
                0x0800f988                FwUpdMemDescriptor::calculateCrc(unsigned long&) const
                0x0800f992                FwUpdMemDescriptor::isMemoryEqualTo(FwUpdMemDescriptor const&, unsigned long) const
                0x0800f9d4                FwUpdMemDescriptor::appendSignatureCustomMagic(unsigned long, unsigned long)
                0x0800fa2c                FwUpdMemDescriptor::appendSignature(unsigned long)
                0x0800fa34                FwUpdMemDescriptor::validateSignatureCustomMagic(unsigned long, unsigned long, unsigned long&, unsigned long&) const
                0x0800fb28                FwUpdMemDescriptor::validateSignature(unsigned long, unsigned long&, unsigned long&) const
                0x0800fb3c                FwUpdMemDescriptor::validateSignature(unsigned long&, unsigned long&) const
                0x0800fb4e                FwUpdMemDescriptor::write(unsigned long, unsigned char const*, unsigned short)
                0x0800fb9c                FwUpdMemDescriptor::write(unsigned char const*, unsigned short)
                0x0800fbae                FwUpdMemDescriptor::read(unsigned long, unsigned char*, unsigned short) const
                0x0800fbe2                FwUpdMemDescriptor::read(unsigned char*, unsigned short) const
                0x0800fbf4                FwUpdMemDescriptor::erase(unsigned long, unsigned long)
                0x0800fc38                FwUpdMemDescriptor::erase(unsigned long)
 *fill*         0x0800fc42        0x2 
 .text          0x0800fc44      0x348 ./fcapplication/fwupdservice.o
                0x0800fc44                FwUpdService::~FwUpdService()
                0x0800fc44                FwUpdService::~FwUpdService()
                0x0800fc46                FwUpdService::~FwUpdService()
                0x0800fc54                FwUpdService::handle(unsigned char const*, unsigned short, unsigned char*, unsigned short)
                0x0800ff7e                FwUpdService::FwUpdService(FwUpd&)
                0x0800ff7e                FwUpdService::FwUpdService(FwUpd&)
 .text          0x0800ff8c      0x15c ./fcapplication/fwupddescriptorhandler.o
                0x0800ff8c                FwUpdDescriptorHandler::FwUpdDescriptorHandler(FwUpdMemDescriptor&)
                0x0800ff8c                FwUpdDescriptorHandler::FwUpdDescriptorHandler(FwUpdMemDescriptor&)
                0x0800ffa4                FwUpdDescriptorHandler::~FwUpdDescriptorHandler()
                0x0800ffa4                FwUpdDescriptorHandler::~FwUpdDescriptorHandler()
                0x0800ffa6                FwUpdDescriptorHandler::getCurrUpdateDescr(FwUpdDescriptor&)
                0x0800ffc6                FwUpdDescriptorHandler::checkDoesItFitInMemory()
                0x0800ffd6                FwUpdDescriptorHandler::checkIsCurrEntryValid()
                0x08010000                FwUpdDescriptorHandler::initializeFromMemory()
                0x08010028                FwUpdDescriptorHandler::deleteCurrEntryFromMemory()
                0x08010040                FwUpdDescriptorHandler::reset()
                0x08010062                FwUpdDescriptorHandler::saveCurrEntryInMemory()
                0x08010092                FwUpdDescriptorHandler::setNewUpdateDescr(FwUpdDescriptor const&)
 .text          0x080100e8      0x270 ./fcapplication/fwupdclihelpers.o
                0x080100e8                FwUpdCliHelpers::stringToImageType(char const*)
                0x0801012c                FwUpdCliHelpers::operator<<(CliWriter&, FwUpdImageType)
                0x08010160                FwUpdCliHelpers::operator<<(CliWriter&, FwUpd::ErrorCode)
                0x08010194                FwUpdCliHelpers::operator<<(CliWriter&, FwUpdSysInfo::McuUid const&)
                0x080101c0                FwUpdCliHelpers::operator<<(CliWriter&, FwUpdSysInfo const&)
                0x08010294                FwUpdCliHelpers::operator<<(CliWriter&, FwUpdDescriptor const&)
                0x08010304                FwUpdCliHelpers::stringToMcuId(char const*)
 .text          0x08010358     0x1100 ./fcapplication/flash_mt25q.o
                0x08010948                EXTFL_get_err_list
                0x0801096c                EXTFL_MT25Q_Init
                0x08010bac                HAL_QSPI_MspInit
                0x08010d70                HAL_QSPI_MspDeInit
                0x08010e18                EXTFL_rw_reg
                0x08010e6e                EXTFL_read_data
                0x08011010                EXTFL_write_data
                0x080112a4                EXTFL_erase_sector
                0x080113f4                HAL_QSPI_ErrorCallback
                0x08011428                HAL_QSPI_CmdCpltCallback
                0x0801142c                HAL_QSPI_RxCpltCallback
                0x08011430                HAL_QSPI_TxCpltCallback
                0x08011434                HAL_QSPI_StatusMatchCallback
                0x08011436                HAL_QSPI_TimeOutCallback
                0x08011438                HAL_QSPI_FifoThresholdCallback
                0x0801143a                HAL_QSPI_RxHalfCpltCallback
                0x0801143c                HAL_QSPI_TxHalfCpltCallback
                0x0801143e                HAL_QSPI_AbortCpltCallback
                0x08011440                QUADSPI_IRQHandler
                0x0801144c                MDMA_IRQHandler
 .text          0x08011458      0x504 ./fcapplication/cmdflash_mt25q.o
 .text          0x0801195c      0x190 ./fcapplication/framcy15b104q.o
                0x0801195c                FramCY15B104Q::FramCY15B104Q(SpiMasterApp&, FramCY15B104Q::PinControl&)
                0x0801195c                FramCY15B104Q::FramCY15B104Q(SpiMasterApp&, FramCY15B104Q::PinControl&)
                0x08011968                FramCY15B104Q::~FramCY15B104Q()
                0x08011968                FramCY15B104Q::~FramCY15B104Q()
                0x0801196a                FramCY15B104Q::read(unsigned long, unsigned char*, unsigned short)
                0x080119d2                FramCY15B104Q::readId(std::array<unsigned char, 9u>&)
                0x08011a18                FramCY15B104Q::init()
                0x08011a58                FramCY15B104Q::writeEnable()
                0x08011a7a                FramCY15B104Q::write(unsigned long, unsigned char const*, unsigned short)
 .text          0x08011aec      0x2d8 ./fcapplication/fram_fm22l16.o
                0x08011aec                FRAM_FM22L16_Init
                0x08011bac                HAL_SRAM_MspInit
                0x08011c1c                HAL_SRAM_MspDeInit
                0x08011c5c                FRAM1_write_data
                0x08011c84                FRAM2_write_data
                0x08011cac                FRAM1_read_data
                0x08011cd8                FRAM2_read_data
                0x08011d04                FRAM1_erase_1kb
                0x08011d36                FRAM2_erase_1kb
                0x08011d68                FRAM1_erase_128B
                0x08011d96                FRAM2_erase_128B
 .text          0x08011dc4        0x0 ./fcapplication/croutine.o
 .text          0x08011dc4      0x370 ./fcapplication/event_groups.o
                0x08011dc4                xEventGroupCreateStatic
                0x08011dee                xEventGroupCreate
                0x08011e0a                xEventGroupWaitBits
                0x08011f1c                xEventGroupClearBits
                0x08011f62                xEventGroupGetBitsFromISR
                0x08011f7e                xEventGroupSetBits
                0x08012004                xEventGroupSync
                0x080120e0                vEventGroupDelete
                0x08012124                vEventGroupSetBitsCallback
                0x08012128                vEventGroupClearBitsCallback
                0x0801212c                uxEventGroupGetNumber
 .text          0x08012134       0x80 ./fcapplication/list.o
                0x08012134                vListInitialise
                0x0801214a                vListInitialiseItem
                0x08012150                vListInsertEnd
                0x08012168                vListInsert
                0x08012196                uxListRemove
 .text          0x080121b4      0xa10 ./fcapplication/queue.o
                0x080122b8                xQueueGenericReset
                0x08012338                xQueueGenericCreateStatic
                0x080123d2                xQueueGenericCreate
                0x08012420                xQueueCreateCountingSemaphoreStatic
                0x08012464                xQueueCreateCountingSemaphore
                0x080124a0                xQueueGenericSend
                0x08012604                xQueueCreateMutexStatic
                0x0801262e                xQueueCreateMutex
                0x08012668                xQueueGenericSendFromISR
                0x0801272a                xQueueGiveFromISR
                0x080127d2                xQueueGenericReceive
                0x08012954                xQueueReceiveFromISR
                0x080129f2                xQueuePeekFromISR
                0x08012a68                uxQueueMessagesWaiting
                0x08012a92                uxQueueSpacesAvailable
                0x08012ac0                uxQueueMessagesWaitingFromISR
                0x08012ad8                uxQueueGetQueueNumber
                0x08012adc                vQueueSetQueueNumber
                0x08012ae0                ucQueueGetQueueType
                0x08012ae6                xQueueIsQueueEmptyFromISR
                0x08012b04                xQueueIsQueueFullFromISR
                0x08012b24                vQueueAddToRegistry
                0x08012b48                pcQueueGetName
                0x08012b6c                vQueueUnregisterQueue
                0x08012b94                vQueueDelete
 .text          0x08012bc4     0x14b0 ./fcapplication/tasks.o
                0x08012e9e                xTaskCreateStatic
                0x08012ee2                xTaskCreate
                0x08012f3c                vTaskDelete
                0x08012ff8                eTaskGetState
                0x08013044                vTaskPrioritySet
                0x08013120                vTaskStartScheduler
                0x08013184                vTaskEndScheduler
                0x080131a4                vTaskSuspendAll
                0x080131b8                xTaskGetTickCount
                0x080131c4                xTaskGetTickCountFromISR
                0x080131d8                uxTaskGetNumberOfTasks
                0x080131e4                pcTaskGetName
                0x08013208                xTaskIncrementTick
                0x08013308                xTaskResumeAll
                0x080133e8                vTaskDelayUntil
                0x08013474                vTaskDelay
                0x0801352c                xTaskGetHandle
                0x080135a4                vTaskSwitchContext
                0x08013658                vTaskPlaceOnEventList
                0x08013688                vTaskPlaceOnUnorderedEventList
                0x080136d8                xTaskRemoveFromEventList
                0x08013754                xTaskRemoveFromUnorderedEventList
                0x080137d8                vTaskSetTimeOutState
                0x080137f4                xTaskCheckForTimeOut
                0x08013864                vTaskMissedYield
                0x08013874                uxTaskGetTaskNumber
                0x0801387a                vTaskSetTaskNumber
                0x08013880                vTaskGetInfo
                0x08013934                uxTaskGetSystemState
                0x080139c4                xTaskGetCurrentTaskHandle
                0x080139d0                xTaskGetSchedulerState
                0x080139f0                vTaskPriorityInherit
                0x08013a84                xTaskPriorityDisinherit
                0x08013b2c                vTaskList
                0x08013be4                vTaskGetRunTimeStats
                0x08013c98                uxTaskResetEventItemValue
                0x08013cb0                pvTaskIncrementMutexHeldCount
                0x08013cc8                ulTaskNotifyTake
                0x08013d2c                xTaskNotifyWait
                0x08013db8                xTaskGenericNotify
                0x08013e88                xTaskGenericNotifyFromISR
                0x08013f84                vTaskNotifyGiveFromISR
                0x08014044                xTaskNotifyStateClear
 .text          0x08014074        0x0 ./fcapplication/timers.o
 *fill*         0x08014074        0xc 
 .text          0x08014080      0x2f4 ./fcapplication/port.o
                0x080140d8                pxPortInitialiseStack
                0x080140fc                SVC_Handler
                0x08014124                vPortEndScheduler
                0x08014148                vPortEnterCritical
                0x0801418c                vPortExitCritical
                0x080141b4                PendSV_Handler
                0x08014224                xPortSysTickHandler
                0x08014250                vPortSetupTimerInterrupt
                0x08014278                xPortStartScheduler
                0x08014318                vPortValidateInterruptPriority
 .text          0x08014374      0x1c8 ./fcapplication/heap_4.o
                0x080143b8                pvPortMalloc
                0x080144b8                vPortFree
                0x08014520                xPortGetFreeHeapSize
                0x0801452c                xPortGetMinimumEverFreeHeapSize
                0x08014538                vPortInitialiseBlocks
 .text          0x0801453c      0x164 ./fcapplication/cmdsunsensor.o
 .text          0x080146a0      0x180 ./fcapplication/sunsensornsfss.o
                0x080146a0                SunSensorNSFSS::SunSensorNSFSS(I2cMasterApp&, unsigned char)
                0x080146a0                SunSensorNSFSS::SunSensorNSFSS(I2cMasterApp&, unsigned char)
                0x080146ac                SunSensorNSFSS::~SunSensorNSFSS()
                0x080146ac                SunSensorNSFSS::~SunSensorNSFSS()
                0x080146ae                SunSensorNSFSS::startSunMeasurement()
                0x080146d0                SunSensorNSFSS::startTempMeasurement()
                0x080146f0                SunSensorNSFSS::readSunData(unsigned short&, unsigned short&, unsigned short&, unsigned short&)
                0x0801476c                SunSensorNSFSS::readTemperature(short&)
                0x080147b8                SunSensorNSFSS::fromRawToDegreesCelsius(short)
                0x080147c2                SunSensorNSFSS::getDeviceId(unsigned long&)
                0x080147ce                SunSensorNSFSS::readDeviceId(unsigned long&)
                0x0801480c                SunSensorNSFSS::init()
 .text          0x08014820      0x2bc ./fcapplication/gps.o
                0x08014820                Gps::~Gps()
                0x08014820                Gps::~Gps()
                0x08014822                Gps::flushLineBuf()
                0x0801482e                Gps::Gps(unsigned char*, unsigned short, RtcApp&, bool (*)(), signed char)
                0x0801482e                Gps::Gps(unsigned char*, unsigned short, RtcApp&, bool (*)(), signed char)
                0x08014874                Gps::rawDataInput(unsigned char const*, unsigned short)
 *fill*         0x08014adc        0x4 
 .text          0x08014ae0     0x1294 ./fcapplication/sentence.o
                0x08014b40                Sentence::isStrNumber(char*, unsigned short)
                0x08014b72                Sentence::parseStrNumber(char*, unsigned short, double*)
                0x08014bb0                Sentence::parseCrc(unsigned char const*, unsigned short, unsigned char*)
                0x08014bf2                Sentence::isValid(unsigned char const*, unsigned short)
                0x08014c5e                Sentence::parseTime(char*, unsigned short, unsigned long long*)
                0x08014d28                Sentence::parseDate(char*, unsigned short, double*)
                0x08014db0                Sentence::parseGeoCoordAngle(char*, unsigned short, double*)
                0x08014e2c                Sentence::parseLatitudeCardinal(char*, unsigned short, double*)
                0x08014ea0                Sentence::parseLongitudeCardinal(char*, unsigned short, double*)
                0x08014f10                Sentence::parseAutoSelectionMode(char*, unsigned short, double*)
                0x08014f38                Sentence::parseRecWarningStatus(char*, unsigned short, double*)
                0x08014f80                Sentence::parseLengthUnit(char*, unsigned short, double*)
                0x08014f96                Sentence::parseSpeedUnit(char*, unsigned short, double*)
                0x08014fa2                Sentence::parseGpsTimeToNtp(char*, unsigned short, unsigned long long*)
                0x08015028                Sentence::getParammeter(unsigned char const*, char*, unsigned short)
                0x08015062                Sentence::parseProcess(unsigned char const*, unsigned short, Sentence::gpgga_t*)
                0x080151bc                Sentence::parseProcess(unsigned char const*, unsigned short, Sentence::gpgsa_t*)
                0x080153b0                Sentence::parseProcess(unsigned char const*, unsigned short, Sentence::gprmc_t*)
                0x080154d8                Sentence::parseProcess(unsigned char const*, unsigned short, Sentence::gpvtg_t*)
                0x080155b8                Sentence::parseProcess(unsigned char const*, unsigned short, Sentence::gpgsv_t*)
                0x08015674                Sentence::parseProcess(unsigned char const*, unsigned short, Sentence::pslsp_t*)
                0x0801578c                Sentence::parseProcess(unsigned char const*, unsigned short, Sentence::pslsv_t*)
                0x080158a4                Sentence::parseProcess(unsigned char const*, unsigned short, Sentence::pslss_t*)
                0x080159ac                Sentence::parser(unsigned char const*, unsigned short, Sentence::sentenceData_t*)
 .text          0x08015d74      0x128 ./fcapplication/stm32h7xx_hal_spi_ex.o
                0x08015d74                HAL_SPIEx_FlushRxFifo
                0x08015dc4                HAL_SPIEx_EnableLockConfiguration
                0x08015e20                HAL_SPIEx_ConfigureUnderrun
 .text          0x08015e9c      0xd3c ./fcapplication/stm32h7xx_hal_qspi.o
                0x080160de                HAL_QSPI_Init
                0x080161c2                HAL_QSPI_DeInit
                0x080161fa                HAL_QSPI_Command
                0x08016280                HAL_QSPI_Command_IT
                0x08016302                HAL_QSPI_Transmit
                0x080163b2                HAL_QSPI_Receive
                0x0801646e                HAL_QSPI_Transmit_IT
                0x080164da                HAL_QSPI_Receive_IT
                0x0801654e                HAL_QSPI_Transmit_DMA
                0x080165f4                HAL_QSPI_Receive_DMA
                0x080166a4                HAL_QSPI_AutoPolling
                0x08016744                HAL_QSPI_AutoPolling_IT
                0x080167e0                HAL_QSPI_MemoryMapped
                0x080168ac                HAL_QSPI_IRQHandler
                0x08016a74                HAL_QSPI_GetState
                0x08016a7a                HAL_QSPI_GetError
                0x08016a7e                HAL_QSPI_Abort
                0x08016afa                HAL_QSPI_Abort_IT
                0x08016b6e                HAL_QSPI_SetTimeout
                0x08016b72                HAL_QSPI_SetFifoThreshold
                0x08016bbc                HAL_QSPI_GetFifoThreshold
 .text          0x08016bd8      0x61c ./fcapplication/stm32h7xx_hal_flash.o
                0x08016d24                HAL_FLASH_Program_IT
                0x08016da8                HAL_FLASH_IRQHandler
                0x08016f8c                HAL_FLASH_Unlock
                0x08016fc0                HAL_FLASH_Lock
                0x08016fe0                HAL_FLASH_OB_Unlock
                0x08017004                HAL_FLASH_OB_Lock
                0x08017018                HAL_FLASH_GetError
                0x08017024                FLASH_WaitForLastOperation
                0x080170d4                HAL_FLASH_Program
                0x08017194                FLASH_OB_WaitForLastOperation
                0x080171dc                HAL_FLASH_OB_Launch
 .text          0x080171f4      0x3bc ./fcapplication/stm32h7xx_ll_fmc.o
                0x080171f4                FMC_NORSRAM_Init
                0x0801728c                FMC_NORSRAM_DeInit
                0x080172be                FMC_NORSRAM_Timing_Init
                0x0801730c                FMC_NORSRAM_Extended_Timing_Init
                0x08017348                FMC_NORSRAM_WriteOperation_Enable
                0x08017358                FMC_NORSRAM_WriteOperation_Disable
                0x08017368                FMC_NAND_Init
                0x08017398                FMC_NAND_CommonSpace_Timing_Init
                0x080173b4                FMC_NAND_AttributeSpace_Timing_Init
                0x080173d0                FMC_NAND_DeInit
                0x080173ec                FMC_NAND_ECC_Enable
                0x080173f8                FMC_NAND_ECC_Disable
                0x08017404                FMC_NAND_GetECC
                0x08017436                FMC_SDRAM_Init
                0x080174a0                FMC_SDRAM_Timing_Init
                0x08017526                FMC_SDRAM_DeInit
                0x08017544                FMC_SDRAM_WriteProtection_Enable
                0x08017554                FMC_SDRAM_WriteProtection_Disable
                0x08017564                FMC_SDRAM_SendCommand
                0x0801758a                FMC_SDRAM_ProgramRefreshRate
                0x08017596                FMC_SDRAM_SetAutoRefreshNumber
                0x080175a2                FMC_SDRAM_GetModeStatus
 .text          0x080175b0      0x484 ./fcapplication/stm32h7xx_hal.o
                0x080175b2                HAL_MspDeInit
                0x080175b4                HAL_DeInit
                0x08017614                HAL_InitTick
                0x08017640                HAL_Init
                0x08017656                HAL_IncTick
                0x08017664                HAL_GetTick
                0x08017670                HAL_Delay
                0x0801768a                HAL_SuspendTick
                0x0801769c                HAL_ResumeTick
                0x080176ac                HAL_GetHalVersion
                0x080176b2                HAL_GetREVID
                0x080176c0                HAL_GetDEVID
                0x080176d0                HAL_GetUIDw0
                0x080176dc                HAL_GetUIDw1
                0x080176e8                HAL_GetUIDw2
                0x080176f4                HAL_SYSCFG_VREFBUF_VoltageScalingConfig
                0x08017708                HAL_SYSCFG_VREFBUF_HighImpedanceConfig
                0x0801771c                HAL_SYSCFG_VREFBUF_TrimmingConfig
                0x08017730                HAL_SYSCFG_EnableVREFBUF
                0x08017760                HAL_SYSCFG_DisableVREFBUF
                0x08017770                HAL_SYSCFG_ETHInterfaceSelect
                0x08017784                HAL_SYSCFG_AnalogSwitchConfig
                0x08017798                HAL_SYSCFG_EnableBOOST
                0x080177a8                HAL_SYSCFG_DisableBOOST
                0x080177b8                HAL_SYSCFG_CM7BootAddConfig
                0x080177f0                HAL_EnableCompensationCell
                0x08017800                HAL_DisableCompensationCell
                0x08017810                HAL_SYSCFG_EnableIOSpeedOptimize
                0x08017820                HAL_SYSCFG_DisableIOSpeedOptimize
                0x08017830                HAL_SYSCFG_CompensationCodeSelect
                0x08017844                HAL_SYSCFG_CompensationCodeConfig
                0x0801785c                HAL_DBGMCU_EnableDBGSleepMode
                0x0801786c                HAL_DBGMCU_DisableDBGSleepMode
                0x0801787c                HAL_DBGMCU_EnableDBGStopMode
                0x0801788c                HAL_DBGMCU_DisableDBGStopMode
                0x0801789c                HAL_DBGMCU_EnableDBGStandbyMode
                0x080178ac                HAL_DBGMCU_DisableDBGStandbyMode
                0x080178bc                HAL_EnableDomain3DBGStopMode
                0x080178cc                HAL_DisableDomain3DBGStopMode
                0x080178dc                HAL_EnableDomain3DBGStandbyMode
                0x080178ec                HAL_DisableDomain3DBGStandbyMode
                0x080178fc                HAL_SetFMCMemorySwappingConfig
                0x08017910                HAL_GetFMCMemorySwappingConfig
                0x08017920                HAL_EXTI_EdgeConfig
                0x0801795a                HAL_EXTI_GenerateSWInterrupt
                0x08017974                HAL_EXTI_D1_ClearFlag
                0x08017992                HAL_EXTI_D1_EventInputConfig
                0x080179e4                HAL_EXTI_D3_EventInputConfig
 .text          0x08017a34      0xa18 ./fcapplication/stm32h7xx_hal_mdma.o
                0x08017aa4                HAL_MDMA_Init
                0x08017bac                HAL_MDMA_DeInit
                0x08017bf8                HAL_MDMA_ConfigPostRequestMask
                0x08017c4e                HAL_MDMA_RegisterCallback
                0x08017c9c                HAL_MDMA_UnRegisterCallback
                0x08017d04                HAL_MDMA_LinkedList_CreateNode
                0x08017e1c                HAL_MDMA_LinkedList_AddNode
                0x08017eea                HAL_MDMA_LinkedList_RemoveNode
                0x08017fa2                HAL_MDMA_LinkedList_EnableCircularMode
                0x08017fec                HAL_MDMA_LinkedList_DisableCircularMode
                0x08018038                HAL_MDMA_Start
                0x0801809c                HAL_MDMA_Start_IT
                0x08018130                HAL_MDMA_Abort
                0x080181a0                HAL_MDMA_Abort_IT
                0x080181c6                HAL_MDMA_PollForTransfer
                0x080182a2                HAL_MDMA_GenerateSWRequest
                0x080182d4                HAL_MDMA_IRQHandler
                0x08018440                HAL_MDMA_GetState
                0x08018446                HAL_MDMA_GetError
 .text          0x0801844c     0x21d4 ./fcapplication/stm32h7xx_hal_i2c.o
                0x08018886                HAL_I2C_Init
                0x0801892a                HAL_I2C_DeInit
                0x0801895c                HAL_I2C_Master_Transmit
                0x08018a92                HAL_I2C_Master_Receive
                0x08018bc8                HAL_I2C_Slave_Transmit
                0x08018d04                HAL_I2C_Slave_Receive
                0x08018e3e                HAL_I2C_Master_Transmit_IT
                0x08018ec4                HAL_I2C_Master_Receive_IT
                0x08018f4c                HAL_I2C_Slave_Transmit_IT
                0x08018fa4                HAL_I2C_Slave_Receive_IT
                0x08018ffc                HAL_I2C_Master_Transmit_DMA
                0x080190f0                HAL_I2C_Master_Receive_DMA
                0x080191e4                HAL_I2C_Slave_Transmit_DMA
                0x0801927c                HAL_I2C_Slave_Receive_DMA
                0x08019318                HAL_I2C_Mem_Write
                0x08019488                HAL_I2C_Mem_Read
                0x08019604                HAL_I2C_Mem_Write_IT
                0x080196d8                HAL_I2C_Mem_Read_IT
                0x080197b0                HAL_I2C_Mem_Write_DMA
                0x080198b8                HAL_I2C_Mem_Read_DMA
                0x080199c4                HAL_I2C_IsDeviceReady
                0x08019ad2                HAL_I2C_Master_Sequential_Transmit_IT
                0x08019b54                HAL_I2C_Master_Sequential_Receive_IT
                0x08019bd8                HAL_I2C_Slave_Sequential_Transmit_IT
                0x08019c70                HAL_I2C_Slave_Sequential_Receive_IT
                0x08019d04                HAL_I2C_EnableListen_IT
                0x08019d2c                HAL_I2C_DisableListen_IT
                0x08019d62                HAL_I2C_Master_Abort_IT
                0x08019dc2                HAL_I2C_EV_IRQHandler
                0x08019e1e                HAL_I2C_SlaveTxCpltCallback
                0x08019e20                HAL_I2C_SlaveRxCpltCallback
                0x08019e74                HAL_I2C_AddrCallback
                0x08019e76                HAL_I2C_ListenCpltCallback
                0x08019ed8                HAL_I2C_MemTxCpltCallback
                0x08019eda                HAL_I2C_MemRxCpltCallback
                0x08019ede                HAL_I2C_AbortCpltCallback
                0x0801a57c                HAL_I2C_ER_IRQHandler
                0x0801a60e                HAL_I2C_GetState
                0x0801a614                HAL_I2C_GetMode
                0x0801a61a                HAL_I2C_GetError
 .text          0x0801a620      0xb38 ./fcapplication/stm32h7xx_hal_dma.o
                0x0801a6c4                HAL_DMA_Init
                0x0801a914                HAL_DMA_DeInit
                0x0801a9c0                HAL_DMA_Start
                0x0801aa0e                HAL_DMA_Start_IT
                0x0801aac0                HAL_DMA_Abort
                0x0801ab9c                HAL_DMA_Abort_IT
                0x0801ac34                HAL_DMA_PollForTransfer
                0x0801ae28                HAL_DMA_IRQHandler
                0x0801b098                HAL_DMA_RegisterCallback
                0x0801b0e6                HAL_DMA_UnRegisterCallback
                0x0801b14e                HAL_DMA_GetState
                0x0801b154                HAL_DMA_GetError
 .text          0x0801b158      0x1ec ./fcapplication/stm32h7xx_hal_pwr.o
                0x0801b158                HAL_PWR_DeInit
                0x0801b15a                HAL_PWR_EnableBkUpAccess
                0x0801b16c                HAL_PWR_DisableBkUpAccess
                0x0801b17c                HAL_PWR_ConfigPVD
                0x0801b1f4                HAL_PWR_EnablePVD
                0x0801b204                HAL_PWR_DisablePVD
                0x0801b214                HAL_PWR_EnableWakeUpPin
                0x0801b22c                HAL_PWR_DisableWakeUpPin
                0x0801b23c                HAL_PWR_EnterSLEEPMode
                0x0801b25c                HAL_PWR_EnterSTOPMode
                0x0801b2b4                HAL_PWR_EnterSTANDBYMode
                0x0801b2e4                HAL_PWR_EnableSleepOnExit
                0x0801b2f4                HAL_PWR_DisableSleepOnExit
                0x0801b304                HAL_PWR_EnableSEVOnPend
                0x0801b314                HAL_PWR_DisableSEVOnPend
                0x0801b324                HAL_PWR_PVDCallback
                0x0801b326                HAL_PWR_PVD_IRQHandler
 .text          0x0801b344      0x284 ./fcapplication/stm32h7xx_hal_cortex.o
                0x0801b344                HAL_NVIC_SetPriorityGrouping
                0x0801b368                HAL_NVIC_SetPriority
                0x0801b3cc                HAL_NVIC_EnableIRQ
                0x0801b3e8                HAL_NVIC_DisableIRQ
                0x0801b410                HAL_NVIC_SystemReset
                0x0801b434                HAL_SYSTICK_Config
                0x0801b460                HAL_MPU_ConfigRegion
                0x0801b4b0                HAL_NVIC_GetPriorityGrouping
                0x0801b4c0                HAL_NVIC_GetPriority
                0x0801b518                HAL_NVIC_SetPendingIRQ
                0x0801b538                HAL_NVIC_GetPendingIRQ
                0x0801b55c                HAL_NVIC_ClearPendingIRQ
                0x0801b57c                HAL_NVIC_GetActive
                0x0801b5a0                HAL_SYSTICK_CLKSourceConfig
                0x0801b5ba                HAL_SYSTICK_IRQHandler
                0x0801b5c2                HAL_GetCurrentCPUID
 .text          0x0801b5c8     0x1768 ./fcapplication/stm32h7xx_hal_spi.o
                0x0801b848                HAL_SPI_Init
                0x0801b95e                HAL_SPI_DeInit
                0x0801b98c                HAL_SPI_Transmit
                0x0801bbbe                HAL_SPI_TransmitReceive
                0x0801beea                HAL_SPI_Receive
                0x0801c106                HAL_SPI_Transmit_IT
                0x0801c1c4                HAL_SPI_TransmitReceive_IT
                0x0801c2a8                HAL_SPI_Receive_IT
                0x0801c380                HAL_SPI_Transmit_DMA
                0x0801c4d4                HAL_SPI_TransmitReceive_DMA
                0x0801c6a0                HAL_SPI_Receive_DMA
                0x0801c814                HAL_SPI_Abort
                0x0801c8e8                HAL_SPI_DMAPause
                0x0801c8f8                HAL_SPI_DMAResume
                0x0801c908                HAL_SPI_DMAStop
                0x0801c996                HAL_SPI_TxHalfCpltCallback
                0x0801c9a2                HAL_SPI_RxHalfCpltCallback
                0x0801c9ae                HAL_SPI_TxRxHalfCpltCallback
                0x0801c9e6                HAL_SPI_IRQHandler
                0x0801cbf6                HAL_SPI_AbortCpltCallback
                0x0801cbf8                HAL_SPI_Abort_IT
                0x0801cd24                HAL_SPI_GetState
                0x0801cd2a                HAL_SPI_GetError
 .text          0x0801cd30      0x374 ./fcapplication/stm32h7xx_hal_gpio.o
                0x0801cd30                HAL_GPIO_Init
                0x0801cf04                HAL_GPIO_DeInit
                0x0801d044                HAL_GPIO_ReadPin
                0x0801d050                HAL_GPIO_WritePin
                0x0801d05a                HAL_GPIO_TogglePin
                0x0801d062                HAL_GPIO_LockPin
                0x0801d08c                HAL_GPIO_EXTI_Callback
                0x0801d08e                HAL_GPIO_EXTI_IRQHandler
 .text          0x0801d0a4     0x1c18 ./fcapplication/stm32h7xx_hal_fdcan.o
                0x0801d122                HAL_FDCAN_Init
                0x0801d4d0                HAL_FDCAN_EnterPowerDownMode
                0x0801d510                HAL_FDCAN_ExitPowerDownMode
                0x0801d55a                HAL_FDCAN_ConfigClockCalibration
                0x0801d5dc                HAL_FDCAN_GetClockCalibrationState
                0x0801d5ec                HAL_FDCAN_ResetClockCalibrationState
                0x0801d600                HAL_FDCAN_GetClockCalibrationCounter
                0x0801d624                HAL_FDCAN_ConfigFilter
                0x0801d6a2                HAL_FDCAN_ConfigGlobalFilter
                0x0801d6d6                HAL_FDCAN_ConfigExtendedIdMask
                0x0801d6f8                HAL_FDCAN_ConfigRxFifoOverwrite
                0x0801d738                HAL_FDCAN_ConfigFifoWatermark
                0x0801d78c                HAL_FDCAN_ConfigRamWatchdog
                0x0801d7b4                HAL_FDCAN_ConfigTimestampCounter
                0x0801d7dc                HAL_FDCAN_EnableTimestampCounter
                0x0801d804                HAL_FDCAN_DisableTimestampCounter
                0x0801d82a                HAL_FDCAN_GetTimestampCounter
                0x0801d832                HAL_FDCAN_ResetTimestampCounter
                0x0801d854                HAL_FDCAN_ConfigTimeoutCounter
                0x0801d882                HAL_FDCAN_EnableTimeoutCounter
                0x0801d8a8                HAL_FDCAN_DisableTimeoutCounter
                0x0801d8ce                HAL_FDCAN_GetTimeoutCounter
                0x0801d8d6                HAL_FDCAN_ResetTimeoutCounter
                0x0801d8f6                HAL_FDCAN_ConfigTxDelayCompensation
                0x0801d91a                HAL_FDCAN_EnableTxDelayCompensation
                0x0801d940                HAL_FDCAN_DisableTxDelayCompensation
                0x0801d966                HAL_FDCAN_Start
                0x0801d998                HAL_FDCAN_Stop
                0x0801d9ec                HAL_FDCAN_DeInit
                0x0801da0c                HAL_FDCAN_AddMessageToTxFifoQ
                0x0801da64                HAL_FDCAN_AddMessageToTxBuffer
                0x0801dac8                HAL_FDCAN_EnableTxBufferRequest
                0x0801daea                HAL_FDCAN_AbortTxRequest
                0x0801db0c                HAL_FDCAN_GetRxMessage
                0x0801dc4c                HAL_FDCAN_GetTxEvent
                0x0801dcfc                HAL_FDCAN_GetHighPriorityMessageStatus
                0x0801dd2a                HAL_FDCAN_GetProtocolStatus
                0x0801dd74                HAL_FDCAN_GetErrorCounters
                0x0801dd94                HAL_FDCAN_IsRxBufferMessageAvailable
                0x0801ddca                HAL_FDCAN_IsTxBufferMessagePending
                0x0801ddda                HAL_FDCAN_GetRxFifoFillLevel
                0x0801ddf0                HAL_FDCAN_GetTxFifoFreeLevel
                0x0801ddfc                HAL_FDCAN_IsRestrictedOperationMode
                0x0801de06                HAL_FDCAN_ExitRestrictedOperationMode
                0x0801de34                HAL_FDCAN_TT_ConfigOperation
                0x0801dfdc                HAL_FDCAN_TT_ConfigReferenceMessage
                0x0801e028                HAL_FDCAN_TT_ConfigTrigger
                0x0801e09a                HAL_FDCAN_TT_SetGlobalTime
                0x0801e114                HAL_FDCAN_TT_SetClockSynchronization
                0x0801e192                HAL_FDCAN_TT_ConfigStopWatch
                0x0801e1e8                HAL_FDCAN_TT_ConfigRegisterTimeMark
                0x0801e272                HAL_FDCAN_TT_EnableRegisterTimeMarkPulse
                0x0801e2c2                HAL_FDCAN_TT_DisableRegisterTimeMarkPulse
                0x0801e312                HAL_FDCAN_TT_EnableTriggerTimeMarkPulse
                0x0801e376                HAL_FDCAN_TT_DisableTriggerTimeMarkPulse
                0x0801e3da                HAL_FDCAN_TT_EnableHardwareGapControl
                0x0801e43e                HAL_FDCAN_TT_DisableHardwareGapControl
                0x0801e4a2                HAL_FDCAN_TT_EnableTimeMarkGapControl
                0x0801e506                HAL_FDCAN_TT_DisableTimeMarkGapControl
                0x0801e56a                HAL_FDCAN_TT_SetNextIsGap
                0x0801e5d4                HAL_FDCAN_TT_SetEndOfGap
                0x0801e63e                HAL_FDCAN_TT_ConfigExternalSyncPhase
                0x0801e682                HAL_FDCAN_TT_EnableExternalSynchronization
                0x0801e6d2                HAL_FDCAN_TT_DisableExternalSynchronization
                0x0801e722                HAL_FDCAN_TT_GetOperationStatus
                0x0801e77c                HAL_FDCAN_ConfigInterruptLines
                0x0801e7b2                HAL_FDCAN_TT_ConfigInterruptLines
                0x0801e7e8                HAL_FDCAN_ActivateNotification
                0x0801e868                HAL_FDCAN_DeactivateNotification
                0x0801e8ac                HAL_FDCAN_TT_ActivateNotification
                0x0801e8fe                HAL_FDCAN_TT_DeactivateNotification
                0x0801e92c                HAL_FDCAN_ClockCalibrationCallback
                0x0801e92e                HAL_FDCAN_TxEventFifoCallback
                0x0801e934                HAL_FDCAN_TxFifoEmptyCallback
                0x0801e938                HAL_FDCAN_TxBufferAbortCallback
                0x0801e93a                HAL_FDCAN_RxBufferNewMessageCallback
                0x0801e93c                HAL_FDCAN_TimestampWraparoundCallback
                0x0801e93e                HAL_FDCAN_TimeoutOccurredCallback
                0x0801e940                HAL_FDCAN_HighPriorityMessageCallback
                0x0801e944                HAL_FDCAN_TT_ScheduleSyncCallback
                0x0801e946                HAL_FDCAN_TT_TimeMarkCallback
                0x0801e948                HAL_FDCAN_TT_StopWatchCallback
                0x0801e94a                HAL_FDCAN_TT_GlobalTimeCallback
                0x0801e94c                HAL_FDCAN_IRQHandler
                0x0801ecb0                HAL_FDCAN_GetState
                0x0801ecb6                HAL_FDCAN_GetError
 .text          0x0801ecbc      0x824 ./fcapplication/stm32h7xx_hal_flash_ex.o
                0x0801ed10                HAL_FLASHEx_OBProgram
                0x0801f160                HAL_FLASHEx_OBGetConfig
                0x0801f24c                HAL_FLASHEx_Unlock_Bank1
                0x0801f270                HAL_FLASHEx_Lock_Bank1
                0x0801f284                HAL_FLASHEx_Unlock_Bank2
                0x0801f2ac                HAL_FLASHEx_Lock_Bank2
                0x0801f2c4                FLASH_Erase_Sector
                0x0801f33c                HAL_FLASHEx_Erase
                0x0801f450                HAL_FLASHEx_Erase_IT
 .text          0x0801f4e0     0x1f98 ./fcapplication/stm32h7xx_hal_tim.o
                0x0801f5ac                HAL_TIM_Base_DeInit
                0x0801f5ea                HAL_TIM_Base_Start
                0x0801f606                HAL_TIM_Base_Stop
                0x0801f638                HAL_TIM_Base_Start_IT
                0x0801f650                HAL_TIM_Base_Stop_IT
                0x0801f67e                HAL_TIM_Base_Start_DMA
                0x0801f6d4                HAL_TIM_Base_Stop_DMA
                0x0801f708                HAL_TIM_OC_MspInit
                0x0801f70a                HAL_TIM_OC_MspDeInit
                0x0801f70c                HAL_TIM_OC_DeInit
                0x0801f74a                HAL_TIM_PWM_MspInit
                0x0801f74c                HAL_TIM_PWM_MspDeInit
                0x0801f74e                HAL_TIM_PWM_DeInit
                0x0801f78c                HAL_TIM_IC_MspInit
                0x0801f78e                HAL_TIM_IC_MspDeInit
                0x0801f790                HAL_TIM_IC_DeInit
                0x0801f7ce                HAL_TIM_OnePulse_MspInit
                0x0801f7d0                HAL_TIM_OnePulse_MspDeInit
                0x0801f7d2                HAL_TIM_OnePulse_DeInit
                0x0801f810                HAL_TIM_OnePulse_Start
                0x0801f868                HAL_TIM_OnePulse_Stop
                0x0801f8ec                HAL_TIM_OnePulse_Start_IT
                0x0801f954                HAL_TIM_OnePulse_Stop_IT
                0x0801f9e8                HAL_TIM_Encoder_MspInit
                0x0801f9ea                HAL_TIM_Encoder_MspDeInit
                0x0801f9ec                HAL_TIM_Encoder_DeInit
                0x0801fa2a                HAL_TIM_Encoder_Start
                0x0801fa70                HAL_TIM_Encoder_Stop
                0x0801fabc                HAL_TIM_Encoder_Start_IT
                0x0801fb2c                HAL_TIM_Encoder_Stop_IT
                0x0801fba4                HAL_TIM_Encoder_Start_DMA
                0x0801fcbc                HAL_TIM_Encoder_Stop_DMA
                0x0801fd34                HAL_TIM_DMABurst_WriteStart
                0x0801fdf0                HAL_TIM_DMABurst_WriteStop
                0x0801fe50                HAL_TIM_DMABurst_ReadStart
                0x0801ff0c                HAL_TIM_DMABurst_ReadStop
                0x0801ff10                HAL_TIM_GenerateEvent
                0x0801ff34                HAL_TIM_ConfigTI1Input
                0x0801ff44                HAL_TIM_ReadCapturedValue
                0x0801ff84                HAL_TIM_PeriodElapsedCallback
                0x0801ff98                HAL_TIM_IC_CaptureCallback
                0x0801ff9a                TIM_DMACaptureCplt
                0x0801ffd6                HAL_TIM_PWM_PulseFinishedCallback
                0x0801ffd8                TIM_DMADelayPulseCplt
                0x08020014                HAL_TIM_TriggerCallback
                0x08020016                HAL_TIM_IRQHandler
                0x08020186                HAL_TIM_ErrorCallback
                0x08020188                TIM_DMAError
                0x08020198                HAL_TIM_Base_GetState
                0x0802019e                HAL_TIM_OC_GetState
                0x080201a4                HAL_TIM_PWM_GetState
                0x080201aa                HAL_TIM_IC_GetState
                0x080201b0                HAL_TIM_OnePulse_GetState
                0x080201b6                HAL_TIM_Encoder_GetState
                0x080201bc                TIM_Base_SetConfig
                0x0802028c                HAL_TIM_Base_Init
                0x080202c0                HAL_TIM_OC_Init
                0x080202f4                HAL_TIM_PWM_Init
                0x08020328                HAL_TIM_IC_Init
                0x0802035c                HAL_TIM_OnePulse_Init
                0x080203a8                HAL_TIM_Encoder_Init
                0x0802043e                TIM_OC1_SetConfig
                0x080204d8                TIM_OC2_SetConfig
                0x08020564                TIM_OC3_SetConfig
                0x080205e8                TIM_OC4_SetConfig
                0x0802064c                HAL_TIM_OC_ConfigChannel
                0x080206ba                HAL_TIM_PWM_ConfigChannel
                0x080207c4                TIM_TI1_SetConfig
                0x08020838                HAL_TIM_IC_ConfigChannel
                0x0802094c                HAL_TIM_OnePulse_ConfigChannel
                0x08020a4c                TIM_ETR_SetConfig
                0x08020a60                HAL_TIM_ConfigOCrefClear
                0x08020b4e                HAL_TIM_ConfigClockSource
                0x08020d80                HAL_TIM_SlaveConfigSynchronization
                0x08020dbe                HAL_TIM_SlaveConfigSynchronization_IT
                0x08020dfc                TIM_CCxChannelCmd
                0x08020e16                HAL_TIM_OC_Start
                0x08020e64                HAL_TIM_PWM_Start
                0x08020e68                HAL_TIM_OC_Stop
                0x08020ee0                HAL_TIM_OC_Start_IT
                0x08020f60                HAL_TIM_PWM_Start_IT
                0x08020f64                HAL_TIM_OC_Stop_IT
                0x08021010                HAL_TIM_PWM_Stop_IT
                0x08021014                HAL_TIM_OC_Start_DMA
                0x0802110c                HAL_TIM_PWM_Start_DMA
                0x08021110                HAL_TIM_OC_Stop_DMA
                0x080211c4                HAL_TIM_PWM_Stop_DMA
                0x080211c8                HAL_TIM_PWM_Stop
                0x08021248                HAL_TIM_IC_Start
                0x08021264                HAL_TIM_IC_Stop
                0x08021296                HAL_TIM_IC_Start_IT
                0x080212e4                HAL_TIM_IC_Stop_IT
                0x08021348                HAL_TIM_IC_Start_DMA
                0x0802140c                HAL_TIM_IC_Stop_DMA
 .text          0x08021478     0x1544 ./fcapplication/stm32h7xx_hal_uart.o
                0x08021496                HAL_UART_DeInit
                0x080214ce                HAL_UART_Transmit_IT
                0x08021522                HAL_UART_Receive_IT
                0x080215bc                HAL_UART_Transmit_DMA
                0x08021634                HAL_UART_Receive_DMA
                0x080216b8                HAL_UART_DMAPause
                0x08021714                HAL_UART_DMAResume
                0x08021768                HAL_UART_DMAStop
                0x080217c6                HAL_UART_Abort
                0x08021834                HAL_UART_AbortTransmit
                0x08021872                HAL_UART_AbortReceive
                0x080218ea                HAL_UART_TxHalfCpltCallback
                0x080218f6                HAL_UART_RxCpltCallback
                0x08021932                HAL_UART_RxHalfCpltCallback
                0x080219b0                HAL_UART_AbortCpltCallback
                0x080219b2                HAL_UART_Abort_IT
                0x08021acc                HAL_UART_AbortTransmitCpltCallback
                0x08021ace                HAL_UART_AbortTransmit_IT
                0x08021b3e                HAL_UART_AbortReceiveCpltCallback
                0x08021b40                HAL_UART_AbortReceive_IT
                0x08021bb8                HAL_MultiProcessor_EnterMuteMode
                0x08021bc6                HAL_HalfDuplex_EnableTransmitter
                0x08021bfa                HAL_HalfDuplex_EnableReceiver
                0x08021c2e                HAL_LIN_SendBreak
                0x08021c5c                HAL_UART_GetState
                0x08021c68                HAL_UART_GetError
                0x08021c6c                UART_SetConfig
                0x08022250                UART_AdvFeatureConfig
                0x080222fa                UART_WaitOnFlagUntilTimeout
                0x08022360                HAL_UART_Transmit
                0x0802240e                HAL_UART_Receive
                0x080224ea                UART_CheckIdleState
                0x08022550                HAL_UART_Init
                0x080225b4                HAL_HalfDuplex_Init
                0x08022620                HAL_LIN_Init
                0x080226a8                HAL_MultiProcessor_Init
                0x0802272e                HAL_MultiProcessor_EnableMuteMode
                0x0802275a                HAL_MultiProcessor_DisableMuteMode
                0x080227f4                HAL_UART_IRQHandler
 .text          0x080229bc      0xad8 ./fcapplication/stm32h7xx_hal_rcc.o
                0x080229bc                HAL_RCC_DeInit
                0x080229fc                HAL_RCC_OscConfig
                0x08022e98                HAL_RCC_MCOConfig
                0x08022f34                HAL_RCC_EnableCSS
                0x08022f44                HAL_RCC_GetSysClockFreq
                0x080230a4                HAL_RCC_ClockConfig
                0x08023254                HAL_RCC_GetHCLKFreq
                0x08023288                HAL_RCC_GetPCLK1Freq
                0x080232b4                HAL_RCC_GetPCLK2Freq
                0x080232e0                HAL_RCC_GetOscConfig
                0x08023424                HAL_RCC_GetClockConfig
                0x08023478                HAL_RCC_CSSCallback
                0x0802347a                HAL_RCC_NMI_IRQHandler
 .text          0x08023494     0x1540 ./fcapplication/stm32h7xx_hal_rcc_ex.o
                0x080235fc                HAL_RCCEx_PeriphCLKConfig
                0x08023ff8                HAL_RCCEx_GetPeriphCLKConfig
                0x08024238                HAL_RCCEx_GetD1PCLK1Freq
                0x08024264                HAL_RCCEx_GetD3PCLK1Freq
                0x08024290                HAL_RCCEx_GetPLL2ClockFreq
                0x080243cc                HAL_RCCEx_GetPLL3ClockFreq
                0x08024508                HAL_RCCEx_GetPLL1ClockFreq
                0x08024644                HAL_RCCEx_GetPeriphCLKFreq
                0x08024770                HAL_RCCEx_GetD1SysClockFreq
                0x080247a4                HAL_RCCEx_EnableLSECSS
                0x080247b4                HAL_RCCEx_DisableLSECSS
                0x080247cc                HAL_RCCEx_WakeUpStopCLKConfig
                0x080247e0                HAL_RCCEx_KerWakeUpStopCLKConfig
                0x080247f4                HAL_RCCEx_WWDGxSysResetConfig
                0x08024808                HAL_RCCEx_CRSConfig
                0x08024874                HAL_RCCEx_CRSSoftwareSynchronizationGenerate
                0x08024884                HAL_RCCEx_CRSGetSynchronizationInfo
                0x080248c8                HAL_RCCEx_CRSWaitSynchronization
                0x08024958                HAL_RCCEx_CRS_SyncOkCallback
                0x0802495a                HAL_RCCEx_CRS_SyncWarnCallback
                0x0802495c                HAL_RCCEx_CRS_ExpectedSyncCallback
                0x0802495e                HAL_RCCEx_CRS_ErrorCallback
                0x08024960                HAL_RCCEx_CRS_IRQHandler
 .text          0x080249d4      0x30c ./fcapplication/stm32h7xx_hal_sram.o
                0x080249d4                HAL_SRAM_DMA_XferErrorCallback
                0x080249d6                HAL_SRAM_DMA_XferCpltCallback
                0x080249da                HAL_SRAM_Init
                0x08024a3e                HAL_SRAM_DeInit
                0x08024a5c                HAL_SRAM_Read_8b
                0x08024a98                HAL_SRAM_Write_8b
                0x08024ae0                HAL_SRAM_Read_16b
                0x08024b18                HAL_SRAM_Write_16b
                0x08024b5c                HAL_SRAM_Read_32b
                0x08024b9a                HAL_SRAM_Write_32b
                0x08024be4                HAL_SRAM_Read_DMA
                0x08024c28                HAL_SRAM_Write_DMA
                0x08024c80                HAL_SRAM_WriteOperation_Enable
                0x08024caa                HAL_SRAM_WriteOperation_Disable
                0x08024cd8                HAL_SRAM_GetState
 .text          0x08024ce0      0x1fc ./fcapplication/stm32h7xx_hal_uart_ex.o
                0x08024ce0                HAL_RS485Ex_Init
                0x08024d68                HAL_MultiProcessorEx_AddressLength_Set
                0x08024d94                HAL_UARTEx_StopModeWakeUpSourceConfig
                0x08024e82                HAL_UARTEx_EnableStopMode
                0x08024eae                HAL_UARTEx_DisableStopMode
                0x08024eda                HAL_UARTEx_WakeupCallback
 .text          0x08024edc      0x2b4 ./fcapplication/stm32h7xx_hal_dma_ex.o
                0x08024edc                HAL_DMAEx_MultiBufferStart
                0x08024f68                HAL_DMAEx_MultiBufferStart_IT
                0x08025038                HAL_DMAEx_ChangeMemory
                0x08025046                HAL_DMAEx_ConfigMuxSync
                0x080250b6                HAL_DMAEx_ConfigMuxRequestGenerator
                0x080250fe                HAL_DMAEx_EnableMuxRequestGenerator
                0x08025118                HAL_DMAEx_DisableMuxRequestGenerator
                0x08025132                HAL_DMAEx_MUX_IRQHandler
 .text          0x08025190      0x8ac ./fcapplication/stm32h7xx_hal_tim_ex.o
                0x080251aa                HAL_TIMEx_HallSensor_MspInit
                0x080251ac                HAL_TIMEx_HallSensor_Init
                0x08025262                HAL_TIMEx_HallSensor_MspDeInit
                0x08025264                HAL_TIMEx_HallSensor_DeInit
                0x080252a2                HAL_TIMEx_HallSensor_Start
                0x080252c0                HAL_TIMEx_HallSensor_Stop
                0x080252f4                HAL_TIMEx_HallSensor_Start_IT
                0x0802531a                HAL_TIMEx_HallSensor_Stop_IT
                0x08025356                HAL_TIMEx_HallSensor_Start_DMA
                0x080253bc                HAL_TIMEx_HallSensor_Stop_DMA
                0x080253f8                HAL_TIMEx_OCN_Start
                0x0802541c                HAL_TIMEx_OCN_Stop
                0x0802546a                HAL_TIMEx_OCN_Start_IT
                0x080254b8                HAL_TIMEx_OCN_Stop_IT
                0x0802553a                HAL_TIMEx_OCN_Start_DMA
                0x080255e4                HAL_TIMEx_OCN_Stop_DMA
                0x0802565a                HAL_TIMEx_PWMN_Start
                0x0802565e                HAL_TIMEx_PWMN_Stop
                0x08025662                HAL_TIMEx_PWMN_Start_IT
                0x08025666                HAL_TIMEx_PWMN_Stop_IT
                0x0802566a                HAL_TIMEx_PWMN_Start_DMA
                0x0802566e                HAL_TIMEx_PWMN_Stop_DMA
                0x08025672                HAL_TIMEx_OnePulseN_Start
                0x0802568c                HAL_TIMEx_OnePulseN_Stop
                0x08025690                HAL_TIMEx_OnePulseN_Start_IT
                0x080256ba                HAL_TIMEx_OnePulseN_Stop_IT
                0x08025718                HAL_TIMEx_ConfigCommutationEvent
                0x08025766                HAL_TIMEx_ConfigCommutationEvent_IT
                0x080257bc                HAL_TIMEx_ConfigCommutationEvent_DMA
                0x08025824                HAL_TIMEx_MasterConfigSynchronization
                0x08025870                HAL_TIMEx_ConfigBreakDeadTime
                0x080258f4                HAL_TIMEx_ConfigBreakInput
                0x08025994                HAL_TIMEx_RemapConfig
                0x080259c0                HAL_TIMEx_TISelection
                0x080259f2                HAL_TIMEx_GroupChannel5
                0x08025a22                HAL_TIMEx_CommutationCallback
                0x08025a24                TIMEx_DMACommutationCplt
                0x08025a34                HAL_TIMEx_BreakCallback
                0x08025a36                HAL_TIMEx_HallSensor_GetState
 .text          0x08025a3c      0x184 ./fcapplication/stm32h7xx_hal_i2c_ex.o
                0x08025a3c                HAL_I2CEx_ConfigAnalogFilter
                0x08025a88                HAL_I2CEx_ConfigDigitalFilter
                0x08025ad2                HAL_I2CEx_EnableWakeUp
                0x08025b16                HAL_I2CEx_DisableWakeUp
                0x08025b5a                HAL_I2CEx_EnableFastModePlus
                0x08025b8c                HAL_I2CEx_DisableFastModePlus
 .text          0x08025bc0      0x4cc ./fcapplication/stm32h7xx_hal_pwr_ex.o
                0x08025bc0                HAL_PWREx_ConfigSupply
                0x08025bfc                HAL_PWREx_GetSupplyConfig
                0x08025c0c                HAL_PWREx_ControlVoltageScaling
                0x08025c40                HAL_PWREx_GetVoltageRange
                0x08025c50                HAL_PWREx_ControlStopModeVoltageScaling
                0x08025c64                HAL_PWREx_GetStopModeVoltageRange
                0x08025c74                HAL_PWREx_EnterSTOPMode
                0x08025ccc                HAL_PWREx_EnterSTANDBYMode
                0x08025d00                HAL_PWREx_ConfigD3Domain
                0x08025d14                HAL_PWREx_EnableFlashPowerDown
                0x08025d24                HAL_PWREx_DisableFlashPowerDown
                0x08025d34                HAL_PWREx_EnableWakeUpPin
                0x08025d84                HAL_PWREx_DisableWakeUpPin
                0x08025d94                HAL_PWREx_GetWakeupFlag
                0x08025da0                HAL_PWREx_ClearWakeupFlag
                0x08025db8                HAL_PWREx_WKUP1_Callback
                0x08025dba                HAL_PWREx_WKUP2_Callback
                0x08025dbc                HAL_PWREx_WKUP3_Callback
                0x08025dbe                HAL_PWREx_WKUP4_Callback
                0x08025dc0                HAL_PWREx_WKUP5_Callback
                0x08025dc2                HAL_PWREx_WKUP6_Callback
                0x08025dc4                HAL_PWREx_WAKEUP_PIN_IRQHandler
                0x08025e40                HAL_PWREx_EnableBkUpReg
                0x08025e70                HAL_PWREx_DisableBkUpReg
                0x08025ea4                HAL_PWREx_EnableUSBReg
                0x08025ed4                HAL_PWREx_DisableUSBReg
                0x08025f08                HAL_PWREx_EnableUSBVoltageDetector
                0x08025f18                HAL_PWREx_DisableUSBVoltageDetector
                0x08025f28                HAL_PWREx_EnableBatteryCharging
                0x08025f44                HAL_PWREx_DisableBatteryCharging
                0x08025f54                HAL_PWREx_EnableMonitoring
                0x08025f64                HAL_PWREx_DisableMonitoring
                0x08025f74                HAL_PWREx_GetTemperatureLevel
                0x08025f90                HAL_PWREx_GetVBATLevel
                0x08025fac                HAL_PWREx_ConfigAVD
                0x08026024                HAL_PWREx_EnableAVD
                0x08026034                HAL_PWREx_DisableAVD
                0x08026044                HAL_PWREx_AVDCallback
                0x08026046                HAL_PWREx_PVD_AVD_IRQHandler
 .text          0x0802608c       0x5c ./fcapplication/stm32h7xx_hal_iwdg.o
                0x0802608c                HAL_IWDG_Init
                0x080260dc                HAL_IWDG_Refresh
 .text          0x080260e8        0x0 ./fcapplication/stm32h7xx_hal_usart.o
 .text          0x080260e8      0x8a0 ./fcapplication/stm32h7xx_hal_rtc.o
                0x080260ec                HAL_RTC_DeactivateAlarm
                0x08026194                HAL_RTC_AlarmAEventCallback
                0x08026196                HAL_RTC_AlarmIRQHandler
                0x080261e8                HAL_RTC_PollForAlarmAEvent
                0x0802622c                HAL_RTC_WaitForSynchro
                0x0802625c                HAL_RTC_GetState
                0x08026262                RTC_EnterInitMode
                0x08026296                HAL_RTC_Init
                0x08026328                HAL_RTC_DeInit
                0x080263e0                RTC_ByteToBcd2
                0x080263f6                HAL_RTC_SetTime
                0x080264e8                HAL_RTC_SetDate
                0x080265b8                HAL_RTC_SetAlarm
                0x08026700                HAL_RTC_SetAlarm_IT
                0x08026878                RTC_Bcd2ToByte
                0x0802688a                HAL_RTC_GetTime
                0x080268d4                HAL_RTC_GetDate
                0x0802690e                HAL_RTC_GetAlarm
 .text          0x08026988      0xbb4 ./fcapplication/stm32h7xx_hal_rtc_ex.o
                0x08026988                HAL_RTCEx_SetTimeStamp
                0x080269cc                HAL_RTCEx_SetTimeStamp_IT
                0x08026a34                HAL_RTCEx_DeactivateTimeStamp
                0x08026a76                HAL_RTCEx_SetInternalTimeStamp
                0x08026aac                HAL_RTCEx_DeactivateInternalTimeStamp
                0x08026ae2                HAL_RTCEx_GetTimeStamp
                0x08026b84                HAL_RTCEx_SetTamper
                0x08026c40                HAL_RTCEx_SetTamper_IT
                0x08026d1c                HAL_RTCEx_DeactivateTamper
                0x08026d78                HAL_RTCEx_Tamper1EventCallback
                0x08026d7a                HAL_RTCEx_Tamper2EventCallback
                0x08026d7c                HAL_RTCEx_Tamper3EventCallback
                0x08026d7e                HAL_RTCEx_TamperTimeStampIRQHandler
                0x08026e34                HAL_RTCEx_PollForTimeStampEvent
                0x08026e88                HAL_RTCEx_PollForTamper1Event
                0x08026ecc                HAL_RTCEx_PollForTamper2Event
                0x08026f10                HAL_RTCEx_PollForTamper3Event
                0x08026f60                HAL_RTCEx_SetWakeUpTimer
                0x08027024                HAL_RTCEx_SetWakeUpTimer_IT
                0x08027114                HAL_RTCEx_DeactivateWakeUpTimer
                0x0802718a                HAL_RTCEx_GetWakeUpTimer
                0x08027192                HAL_RTCEx_WakeUpTimerEventCallback
                0x08027194                HAL_RTCEx_WakeUpTimerIRQHandler
                0x080271c4                HAL_RTCEx_PollForWakeUpTimerEvent
                0x08027208                HAL_RTCEx_BKUPWrite
                0x08027212                HAL_RTCEx_BKUPRead
                0x0802721c                HAL_RTCEx_SetSmoothCalib
                0x0802729a                HAL_RTCEx_SetSynchroShift
                0x0802734a                HAL_RTCEx_SetCalibrationOutPut
                0x0802738e                HAL_RTCEx_DeactivateCalibrationOutPut
                0x080273c4                HAL_RTCEx_SetRefClock
                0x08027426                HAL_RTCEx_DeactivateRefClock
                0x08027488                HAL_RTCEx_EnableBypassShadow
                0x080274be                HAL_RTCEx_DisableBypassShadow
                0x080274f4                HAL_RTCEx_AlarmBEventCallback
                0x080274f6                HAL_RTCEx_PollForAlarmBEvent
 .text          0x0802753c      0x1f8 ./fcapplication/stm32h7xx_hal_crc.o
                0x080275d8                HAL_CRC_Init
                0x0802764e                HAL_CRC_DeInit
                0x08027680                HAL_CRC_Accumulate
                0x080276d4                HAL_CRC_Calculate
                0x08027730                HAL_CRC_GetState
 .text          0x08027734       0x72 ./fcapplication/stm32h7xx_hal_crc_ex.o
                0x08027734                HAL_CRCEx_Polynomial_Set
                0x08027776                HAL_CRCEx_Input_Data_Reverse
                0x0802778e                HAL_CRCEx_Output_Data_Reverse
 *fill*         0x080277a6        0x2 
 .text          0x080277a8     0x15f8 ./fcapplication/stm32h7xx_hal_adc.o
                0x080277aa                HAL_ADC_Init
                0x08027a02                HAL_ADC_PollForConversion
                0x08027b28                HAL_ADC_PollForEvent
                0x08027bd6                HAL_ADC_GetValue
                0x08027bdc                HAL_ADC_ConvCpltCallback
                0x08027bde                HAL_ADC_ConvHalfCpltCallback
                0x08027be0                ADC_DMAHalfConvCplt
                0x08027bea                HAL_ADC_LevelOutOfWindowCallback
                0x08027bec                HAL_ADC_ErrorCallback
                0x08027bee                HAL_ADC_IRQHandler
                0x08027eb0                ADC_DMAConvCplt
                0x08027f0a                ADC_DMAError
                0x08027f24                HAL_ADC_ConfigChannel
                0x08028454                HAL_ADC_AnalogWDGConfig
                0x080285e2                HAL_ADC_GetState
                0x080285e6                HAL_ADC_GetError
                0x080285ea                ADC_ConversionStop
                0x08028694                ADC_Enable
                0x080286f8                HAL_ADC_Start
                0x080287e8                HAL_ADC_Start_IT
                0x08028948                HAL_ADC_Start_DMA
                0x08028a50                ADC_Disable
                0x08028abe                HAL_ADC_DeInit
                0x08028ca4                HAL_ADC_Stop
                0x08028ce2                HAL_ADC_Stop_IT
                0x08028d2a                HAL_ADC_Stop_DMA
 .text          0x08028da0     0x107c ./fcapplication/stm32h7xx_hal_adc_ex.o
                0x08028da0                HAL_ADCEx_Calibration_Start
                0x08028e2c                HAL_ADCEx_Calibration_GetValue
                0x08028e50                HAL_ADCEx_LinearCalibration_GetValue
                0x08028e98                HAL_ADCEx_Calibration_SetValue
                0x08028f28                HAL_ADCEx_LinearCalibration_SetValue
                0x08028fc8                HAL_ADCEx_InjectedStart
                0x080290b0                HAL_ADCEx_InjectedStop
                0x080290fe                HAL_ADCEx_InjectedPollForConversion
                0x08029210                HAL_ADCEx_InjectedStart_IT
                0x08029328                HAL_ADCEx_InjectedStop_IT
                0x0802937e                HAL_ADCEx_MultiModeStart_DMA
                0x08029438                HAL_ADCEx_MultiModeStop_DMA
                0x08029500                HAL_ADCEx_MultiModeGetValue
                0x0802950c                HAL_ADCEx_InjectedGetValue
                0x08029532                HAL_ADCEx_InjectedConvCpltCallback
                0x08029534                HAL_ADCEx_InjectedQueueOverflowCallback
                0x08029536                HAL_ADCEx_LevelOutOfWindow2Callback
                0x08029538                HAL_ADCEx_LevelOutOfWindow3Callback
                0x0802953a                HAL_ADCEx_EndOfSamplingCallback
                0x0802953c                HAL_ADCEx_RegularStop
                0x08029592                HAL_ADCEx_RegularStop_IT
                0x080295f0                HAL_ADCEx_RegularStop_DMA
                0x0802967a                HAL_ADCEx_RegularMultiModeStop_DMA
                0x08029758                HAL_ADCEx_InjectedConfigChannel
                0x08029cd0                HAL_ADCEx_MultiModeConfigChannel
                0x08029da4                HAL_ADCEx_EnableInjectedQueue
                0x08029dc6                HAL_ADCEx_DisableInjectedQueue
                0x08029dde                HAL_ADCEx_DisableVoltageRegulator
                0x08029dfc                HAL_ADCEx_EnterADCDeepPowerDownMode
 .text          0x08029e1c      0x15c ./fcapplication/cmdgyrostim210.o
 .text          0x08029f78       0x1c ./fcapplication/crc8ccitt.o
                0x08029f78                crc8ccitt(void const*, unsigned int, unsigned char)
 .text          0x08029f94      0x214 ./fcapplication/gyrostim210.o
                0x08029f94                GyroSTIM210::GyroSTIM210(UartApp&, GyroSTIM210::PinControl&)
                0x08029f94                GyroSTIM210::GyroSTIM210(UartApp&, GyroSTIM210::PinControl&)
                0x08029fb0                GyroSTIM210::~GyroSTIM210()
                0x08029fb0                GyroSTIM210::~GyroSTIM210()
                0x08029fb2                GyroSTIM210::evaluateCrc()
                0x08029fca                GyroSTIM210::getDatagramFromBuffer(GyroSTIM210::Datagram&)
                0x08029fe0                GyroSTIM210::calculateAngularSpeed(GyroSTIM210::Axes, GyroSTIM210::Datagram&)
                0x0802a030                GyroSTIM210::calculateGyroAxisTemperature(GyroSTIM210::Axes, GyroSTIM210::Datagram&)
                0x0802a068                GyroSTIM210::checkGyroErrors(GyroSTIM210::Datagram&)
                0x0802a072                GyroSTIM210::getMeas(double&, double&, double&, double&, GyroSTIM210::Datagram const*)
                0x0802a0fa                GyroSTIM210::bufferyzeDataFromGyro(unsigned char const*)
                0x0802a192                GyroSTIM210::setMode(GyroSTIM210::Mode)
                0x0802a196                GyroSTIM210::getMode()
                0x0802a19a                GyroSTIM210::uartSend(unsigned char*, unsigned long)
                0x0802a1a2                GyroSTIM210::setServiceDumpFunction(void (*)(unsigned char const*, unsigned long))
 .text          0x0802a1a8      0x200 ./fcapplication/cmdmagnetometer.o
 .text          0x0802a3a8      0x1f4 ./fcapplication/magnetometermmc5883ma.o
                0x0802a3a8                MagnetometerMMC5883MA::MagnetometerMMC5883MA(I2cMasterApp&)
                0x0802a3a8                MagnetometerMMC5883MA::MagnetometerMMC5883MA(I2cMasterApp&)
                0x0802a3b0                MagnetometerMMC5883MA::~MagnetometerMMC5883MA()
                0x0802a3b0                MagnetometerMMC5883MA::~MagnetometerMMC5883MA()
                0x0802a3b2                MagnetometerMMC5883MA::fromRawToGaus(unsigned short)
                0x0802a3cc                MagnetometerMMC5883MA::fromRawToDegreesCelsius(unsigned char)
                0x0802a3ec                MagnetometerMMC5883MA::registerWrite(unsigned char, unsigned char)
                0x0802a40e                MagnetometerMMC5883MA::coilSet()
                0x0802a430                MagnetometerMMC5883MA::coilReset()
                0x0802a452                MagnetometerMMC5883MA::startMeasurement(MagnetometerMMC5883MA::MeasurementType)
                0x0802a46c                MagnetometerMMC5883MA::registerRead(unsigned char, unsigned char*, unsigned char)
                0x0802a4a4                MagnetometerMMC5883MA::isMeasurementCompleted(MagnetometerMMC5883MA::MeasurementType, bool&)
                0x0802a4e2                MagnetometerMMC5883MA::readMeasurementResult(unsigned short&, unsigned short&, unsigned short&)
                0x0802a52c                MagnetometerMMC5883MA::readMeasurementResult(unsigned char&)
                0x0802a53e                MagnetometerMMC5883MA::softwareReset()
                0x0802a556                MagnetometerMMC5883MA::readId(unsigned char&)
                0x0802a560                MagnetometerMMC5883MA::init()
 .text          0x0802a59c       0x62 ./fcapplication/memoryoperators.o
                0x0802a59c                memoryOperatorOverloadError()
                0x0802a59e                __cxa_pure_virtual
                0x0802a5a6                operator new(unsigned int)
                0x0802a5b0                operator new[](unsigned int)
                0x0802a5ba                operator delete(void*)
                0x0802a5c2                operator delete[](void*)
                0x0802a5ca                operator delete(void*, unsigned int)
                0x0802a5d2                operator delete[](void*, unsigned int)
                0x0802a5da                operator new(unsigned int, std::nothrow_t const&)
                0x0802a5e4                operator new[](unsigned int, std::nothrow_t const&)
                0x0802a5ee                operator delete(void*, std::nothrow_t const&)
                0x0802a5f6                operator delete[](void*, std::nothrow_t const&)
 *fill*         0x0802a5fe        0x2 
 .text          0x0802a600     0x28f8 ./fcapplication/na_arraymath.o
                0x0802a600                iSign
                0x0802a618                NormQuat
                0x0802a63c                CopyQuat
                0x0802a65e                NormalizeQuat
                0x0802a6c0                InverseQuat
                0x0802a70a                MultQuat
                0x0802a792                ExpressRotationQ1InQ2
                0x0802a7b0                MinusQuatQuat
                0x0802a7ca                DiffQuatQuat
                0x0802a7ee                AddQuatQuat
                0x0802a808                AccumulateQuat
                0x0802a84a                MultScalarQuat
                0x0802a860                ScaleQuatScalar
                0x0802a876                ConvertQuatToAngleAxis
                0x0802a920                InitNullQuat
                0x0802a936                InitQuat_CArray
                0x0802a93a                InitQuat_Scalars
                0x0802a94c                InitCArray_Quat
                0x0802a96e                InitNoRotationQuat
                0x0802a98c                DiffAngleDeg_QuatQuat
                0x0802aa18                ConvertQuatToRotationMatrix
                0x0802ab42                RestoreRotationContinuity
                0x0802ab96                ConvertRotationMatrixToQuat
                0x0802ad6e                RotateVectorWithQuat2
                0x0802add4                IsEqualVector_3
                0x0802ae14                IsNullVector_3
                0x0802ae48                CopyMatrix_33
                0x0802ae5c                InitDiagonalMatrix_33_Vector3
                0x0802ae94                TransposeMatrix_33_33
                0x0802aeec                MultMatrix_33_33
                0x0802afdc                InvMatrix_33
                0x0802b0c4                AddMatrix_33_33
                0x0802b0de                AccumulateMatrix_33
                0x0802b0f8                DecumulateMatrix_33
                0x0802b112                SkewMatrix
                0x0802b162                MultScalarMatrix_33
                0x0802b178                RotationMatrixOrthoFix
                0x0802b1d4                ExpMapForSkewMatrix
                0x0802b3d4                ExpMapForQuat
                0x0802b528                NormVector_3
                0x0802b544                NormVector_3_f
                0x0802b560                LimitVector_3_Scalar
                0x0802b590                LimitVector_3_Vector
                0x0802b5c4                NormalizeVector_3_f
                0x0802b60e                DotProductVector_3_3
                0x0802b634                DotProductVector_3_3_f
                0x0802b65a                CopyVector_3
                0x0802b674                MultMatrix_33_31
                0x0802b6e2                RotateVectorWithQuat
                0x0802b6fc                ExpressVectorInQuatRefFrame
                0x0802b718                ExpressVectorInRotMatRefFrame
                0x0802b730                CrossProductVector_3_3
                0x0802b74c                NormalizeVector_3
                0x0802b794                _Copy_Vector3_Vector3
                0x0802b7ae                CopyVector_3_f
                0x0802b7bc                MinusVector_3_3
                0x0802b7ee                AddVector_3_3
                0x0802b820                MultScalarVector_3
                0x0802b846                AccumulateVector_3_3
                0x0802b878                InitNullVector_3
                0x0802b88a                InitVector_3_Scalar
                0x0802b898                InitVector_3_Scalars
                0x0802b8a6                InitVector_3_CArray
                0x0802b8aa                InitCArray_Vector_3
                0x0802b8c4                InitVector_3_CfloatArray
                0x0802b8ea                GetAngleBetweenVectors
                0x0802b936                ConvertEulerXYZtoQuat
                0x0802ba00                ConvertQuattoEulerXYZ
                0x0802bac8                ConvertEulerXYZtoRotMat
                0x0802bba8                ConvertEulerYXYtoRotMat
                0x0802bc88                ConvertEulerZYZtoRotMat
                0x0802bdb0                ConvertEulerXYXtoRotMat
                0x0802bed0                ConvertRotMattoEulerZYZ
                0x0802bf38                ConvertQuatToEulerZYZ
                0x0802bf52                ConvertEulerZYZToQuat
                0x0802bf6a                ConvertEulerXYZToQuat
                0x0802bf82                ConvertEulerZYXToQuat
                0x0802c050                ConvertEulerZXZToQuat
                0x0802c0e8                ConvertXRotationDegToQuat
                0x0802c130                ConvertYRotationDegToQuat
                0x0802c178                ConvertZRotationDegToQuat
                0x0802c1c0                ConvertLatitudeLongitudetoVector3
                0x0802c20a                ConvertLatitudeLongitudetoQuat
                0x0802c280                ConvertRotMattoEulerXYZ
                0x0802c2f0                GetRotationQuatBetweenVectors
                0x0802c348                MakeNewRefFrameQuat_From_Vector1_and_Vector2InPlane
                0x0802c44c                MakeNewRefFrameQuat_From_XVector_and_YXPlaneVector
                0x0802c460                MakeNewRefFrameQuat_From_ZVector_and_XZPlaneVector
                0x0802c474                MakeNewRefFrameQuat_From_YVector_and_XYPlaneVector
                0x0802c488                MakeNewRefFrameQuat_From_YVector_and_ZYPlaneVector
                0x0802c49c                MakeNewRefFrameQuat_From_ZVector_and_YZPlaneVector
                0x0802c4b0                MultAddVectorVector_3_3
                0x0802c4b4                MultVectorVector_3_3
                0x0802c4e6                ScaleVectorVector_3_3
                0x0802c500                ScaleVector_3_Scalar
                0x0802c516                CalculateTRIAD
                0x0802c690                NA_TestArrayMath
                0x0802c9f8                NA_InitArrayMath
                0x0802ca10                CalculateTRIADSafe
                0x0802ca82                Get_Matrix_4_3_transpose_Mult_Quat
                0x0802cb20                Get_Xi
                0x0802cb9a                Get_Xi_Quat_transpose_Mult_Quat
                0x0802cbb6                Get_Matrix_4_3_transpose_Mult_Matrix_4_3
                0x0802cd8c                Get_W_FromQuatDiff
                0x0802cdc6                GetErrorVector_FromAngleDegError
                0x0802ce10                CalculateCRC32
                0x0802ce3c                GetCRC
                0x0802ce50                AppendCRCSum
                0x0802ce74                CheckCRCSum
                0x0802ceb8                CalculateEnergy
                0x0802cef2                printfMatrix_33
                0x0802cef4                printfVector_3
 .text          0x0802cef8      0xb44 ./fcapplication/na_arrayxxmath.o
                0x0802cef8                AccumulateMatrixXX_WithMatrixXX
                0x0802cf2e                ScaleMatrixXX_WithMatrixXX
                0x0802cf64                ScaleMatrixXX_Scalar
                0x0802cf94                AccumulateMatrixXX_WithDiagonalVectorX
                0x0802cfba                AccumulateMatrixXX_WithDiagonalEye
                0x0802cfdc                InitMatrixXX_WithDiagonalVectorX
                0x0802cffe                InitMatrixXX_WithDiagonalCArray
                0x0802d032                InitMatrixXX_WithEye
                0x0802d068                NegateVectorX
                0x0802d08a                NormVectorX
                0x0802d0b8                NegateMatrixXX
                0x0802d0f0                fprintf_VectorX
                0x0802d0f2                printf_MatrixXX
                0x0802d0f4                fprintf_CArray
                0x0802d0f6                printf_Matrix_CArray
                0x0802d0f8                CompareMatrixXX_MatrixXX
                0x0802d170                CompareVectorX_VectorX
                0x0802d1d0                AccumulateVectorX_WithCArray
                0x0802d1ec                AccumulateVectorX_WithVectorX
                0x0802d1f6                CopyMatrixXX_ToCArray
                0x0802d230                InitEmptyMatrixXX
                0x0802d248                CopyMatrixXX
                0x0802d292                MultMatrixXX_MatrixXX
                0x0802d330                TransposeMatrixXX
                0x0802d39a                InitMatrixXX_WithCArray
                0x0802d438                InverseMatrixXX
                0x0802d6f0                InitEmptyVectorX
                0x0802d704                ScaleVectorX_Scalar
                0x0802d726                InitVectorX_uint32Array
                0x0802d766                InitVectorX_WithCArray
                0x0802d79c                InitVectorX_WithCFloatArray
                0x0802d7d6                InitVectorX_WithCScalar
                0x0802d80a                CopyVectorX
                0x0802d84a                MultMatrixXX_VectorX
                0x0802d8c0                CopyVectorX_ToCArray
                0x0802d8e2                ExtendVectorX_Vector3
                0x0802d902                CopyVectorXFrom_To_Vector3
                0x0802d922                CopyVector3_To_VectorXFrom
                0x0802d95e                GetPow2SumArrayXX
                0x0802d9a0                GetPow2SumVectorX
                0x0802d9d0                Get_Xi_Quat_transpose_Mult_Xi_Quat
 .text          0x0802da3c      0x160 ./fcapplication/na_statusstrs.o
                0x0802da3c                NA_GetStatusStr
 *fill*         0x0802db9c        0x4 
 .text          0x0802dba0      0xaf8 ./fcapplication/ast_cna_runadcs.o
                0x0802dba0                AverageMeasGroup_3(_NA_T_Sensor&, _NA_T_Sensor const*)
                0x0802dc56                Cross(double (&) [3], double (&) [3], double (&) [3])
                0x0802dcac                CalculateSunVector(int, double (&) [3], SIMFSSData&)
                0x0802e0a0                RunADCS(CNA_AttitudeControlSystem&, SIMCombinedData&, ADCSTelem&, SIMEMTCmds*, SIMRWACmds*, double)
 .text          0x0802e698      0x558 ./fcapplication/ast_gaintable.o
                0x0802e698                AST_GainTable::Reset()
                0x0802e69e                AST_GainTable::Init()
 .text          0x0802ebf0      0x688 ./fcapplication/ast_gps_process.o
                0x0802ebf0                GPS_process(_NA_T_PositionVector&, _AST_Rotations&, SIMGPSData const&, AST_GainTable const&)
                0x0802ecc0                ExtrapGPS(double*, double*, double)
                0x0802ee20                RunEstim(double*, double*)
                0x0802ee22                ComputeAccels(double*, double*)
                0x0802f110                RK4(double, double*, double*, double*)
                0x0802f20c                OrbProp(double, double*, double*)
 .text          0x0802f278       0xa8 ./fcapplication/ast_mag_process.o
                0x0802f278                Mag_process(_AST_T_B_Bdot&, ASTC_DerivedRateFilter&, SIMMagnetometerData const&, AST_GainTable const&)
 .text          0x0802f320        0x0 ./fcapplication/ast_sens_process.o
 .text          0x0802f320      0x258 ./fcapplication/astc_filter_derivedrate.o
                0x0802f320                ASTC_DerivedRateFilter::ResetFilter(double const (&) [3])
                0x0802f352                ASTC_DerivedRateFilter::ComputeDerivedRate(double const (&) [3])
                0x0802f3c8                ASTC_DerivedRateFilter::NullFilter()
                0x0802f3f2                ASTC_DerivedRateFilter::NullFilterNoReset()
                0x0802f400                ASTC_DerivedRateFilter::SetFilterResetFlag()
                0x0802f408                ASTC_DerivedRateFilter::SetDampingRate(double (&) [3], double (&) [3])
                0x0802f478                ASTC_DerivedRateFilter::ASTC_DerivedRateFilter()
                0x0802f478                ASTC_DerivedRateFilter::ASTC_DerivedRateFilter()
                0x0802f4d4                ASTC_DerivedRateFilter::ASTC_DerivedRateFilter(double (&) [3], double (&) [3])
                0x0802f4d4                ASTC_DerivedRateFilter::ASTC_DerivedRateFilter(double (&) [3], double (&) [3])
                0x0802f508                ASTC_DerivedRateFilter::ASTC_DerivedRateFilter(double (&) [3], double (&) [3], double)
                0x0802f508                ASTC_DerivedRateFilter::ASTC_DerivedRateFilter(double (&) [3], double (&) [3], double)
                0x0802f528                ASTC_DerivedRateFilter::SetDampingRateDt(double (&) [3], double (&) [3], double)
                0x0802f530                ASTC_DerivedRateFilter::SetDt(double)
                0x0802f548                ASTC_DerivedRateFilter::SetK(double (&) [3], double (&) [3])
                0x0802f56e                ASTC_DerivedRateFilter::SetKDt(double (&) [3], double (&) [3], double)
 .text          0x0802f578       0x10 ./fcapplication/cna_adcsconfig.o
                0x0802f578                GetDefaultConfigPointingControlParameters()
                0x0802f580                GetDefaultConfigSATGeometryParameters()
 .text          0x0802f588      0x514 ./fcapplication/cna_alphabetagamafilter.o
                0x0802f588                CNA_AlphaBetaGamaFilter::CNA_AlphaBetaGamaFilter()
                0x0802f588                CNA_AlphaBetaGamaFilter::CNA_AlphaBetaGamaFilter()
                0x0802f5ac                CNA_AlphaBetaGamaFilter::Init(double, double, double, double)
                0x0802f5be                CNA_AlphaBetaGamaFilter::Reset(double)
                0x0802f5d0                CNA_AlphaBetaGamaFilter::Evaluate(double, double)
                0x0802f660                CNA_AlphaBetaGamaFilter::Extrapolate(double)
                0x0802f68a                CNA_AlphaBetaGamaFilter::Test()
                0x0802f860                CNA_AlphaBetaFilter::CNA_AlphaBetaFilter()
                0x0802f860                CNA_AlphaBetaFilter::CNA_AlphaBetaFilter()
                0x0802f87c                CNA_AlphaBetaFilter::Init(double, double, double)
                0x0802f88a                CNA_AlphaBetaFilter::Reset(double)
                0x0802f898                CNA_AlphaBetaFilter::Evaluate(double, double)
                0x0802f8f0                CNA_AlphaBetaFilter::Extrapolate(double)
                0x0802f906                CNA_AlphaBetaFilter::Test()
 *fill*         0x0802fa9c        0x4 
 .text          0x0802faa0     0x194c ./fcapplication/cna_attitudecontrolsystem.o
                0x0802faa0                CNA_AttitudeControlSystem::SetAttitudeControlSystemMode(_T_ADCSExactPointing_Mode)
                0x0802faa6                CNA_AttitudeControlSystem::SetAttitudeControlSystemState(_T_ADCS_State)
                0x0802faac                CNA_AttitudeControlSystem::SetAttitudeControlSystemSubState(_T_ADCS_SubState)
                0x0802fab2                CNA_AttitudeControlSystem::SetParameters(_NA_T_ExactPointingParameters_M6P const&, _NA_T_SAT_GeometryParameters const&)
                0x0802faf4                GetVectorToGeodeticTarget_ECI(double (&) [3], bool&, _NA_T_ADCS_PointingTarget const&, _NA_T_PositionVector const&)
                0x0802fc80                GetQuat_ECI2LVLH(double (&) [4], _NA_T_PositionVector const&, _NA_T_EnvironmentModeled const&)
                0x0802fcb4                GetQuat_ECI2tnw(double (&) [4], _NA_T_PositionVector const&, _NA_T_EnvironmentModeled const&)
                0x0802fcec                CNA_AttitudeControlSystem::GetTargetAttitudeQuatECI(double (&) [4], _NA_T_ADCS_PointingTarget const&, _NA_T_PositionVector const&, _NA_T_SateliteAttitude const&, _NA_T_EnvironmentModeled const&)
                0x08030010                CNA_AttitudeControlSystem::Calculate_Magnetorquers_Torque_And_Activation2(double (&) [3], double (&) [3], _AST_T_B_Bdot const&, double const (&) [4], double, double)
                0x080300fe                CNA_AttitudeControlSystem::Calculate_GyroscopicEffect_Uc(double (*) [3], double const (&) [3], double const (&) [4])
                0x08030144                CNA_AttitudeControlSystem::ResetErrors_PID()
                0x08030188                CNA_AttitudeControlSystem::Calculate_PID_control(double (&) [3], _AST_SatAttErr const&, double*, double*, double*)
                0x0803020a                CNA_AttitudeControlSystem::Calculate_Torque_MagRWA_LQR_PID(double (&) [3], double (&) [4], _AST_SatAttErr const&, _T_MatrixXX)
                0x08030308                CNA_AttitudeControlSystem::GetRWATorquesFromMoment(double (&) [4], double*)
                0x0803035e                CNA_AttitudeControlSystem::Optimise_RW_RotationDistribution(double (&) [4], double)
                0x080303dc                CNA_AttitudeControlSystem::GetErrorQuaternion(double (&) [4], double const (&) [4], double const (&) [4])
                0x080303fa                CNA_AttitudeControlSystem::Calculate_TorqueDemand_U_PD_ECI(double (&) [3], _NA_T_SateliteAttitude const&, _NA_T_PositionVector const&, double const (&) [4], double, double)
                0x08030508                CNA_AttitudeControlSystem::QuatSign(double const (&) [4])
                0x08030522                CNA_AttitudeControlSystem::Get_W_Target_BCF(double (&) [3], double const (&) [4])
                0x08030536                CNA_AttitudeControlSystem::Calculate_GravityGradient_tau(double (*) [3], double const (&) [3], double const (&) [4])
                0x080305a4                CNA_AttitudeControlSystem::Calculate_TorqueDemand_U_PD(double (&) [3], _NA_T_SateliteAttitude const&, _NA_T_PositionVector const&, double const (&) [4], double, double)
                0x0803063c                CNA_AttitudeControlSystem::EvaluateControl_RW3_V2_SingleRWFailingMode(_T_ADCSExactPointing_Mode, _AST_T_B_Bdot const&, _NA_T_SateliteAttitude const&, double const (&) [4], _NA_T_PositionVector const&, double const (*) [4])
                0x08030904                CNA_AttitudeControlSystem::EvaluateControl_RW3_V2(_AST_T_B_Bdot const&, _NA_T_SateliteAttitude const&, double const (&) [4], _NA_T_PositionVector const&, double const (*) [4])
                0x08030a5a                CNA_AttitudeControlSystem::GetErrors_PID(_AST_SatAttErr&, _NA_T_SateliteAttitude const&, _NA_T_PositionVector const&, double const (&) [4], double const (*) [4])
                0x08030b28                CNA_AttitudeControlSystem::GetTorqueFromRWMeas(double (&) [3], double const (&) [4])
                0x08030c08                CNA_AttitudeControlSystem::GetDipolesFromTorque(double (&) [3], _AST_T_B_Bdot const&, double const (&) [3])
                0x08030c70                CNA_AttitudeControlSystem::EvaluateControl_RW4_PID(_AST_T_B_Bdot const&, _AST_SatAttErr&, _NA_T_SateliteAttitude const&, double const (*) [4])
                0x08030d6c                CNA_AttitudeControlSystem::LimitDipoles(double (&) [3])
                0x08030db6                CNA_AttitudeControlSystem::LimitDipolesScaled(double (&) [3])
                0x08030e28                CNA_AttitudeControlSystem::EvaluateControl_RW4_LQR(_AST_T_B_Bdot const&, _AST_SatAttErr&, _NA_T_SateliteAttitude const&, double const (&) [4], double const (*) [4])
                0x08031004                CNA_AttitudeControlSystem::EvaluateControl_MTQOnly_V2(_AST_T_B_Bdot const&, _NA_T_SateliteAttitude const&, double const (&) [4], _NA_T_PositionVector const&, double const (*) [4])
                0x08031090                CNA_AttitudeControlSystem::Evaluate(double const (&) [4], _AST_T_B_Bdot const&, _NA_T_SateliteAttitude const&, _NA_T_PositionVector const&, double const (*) [4])
                0x0803116c                CNA_AttitudeControlSystem::Init()
 .text          0x080313ec      0x27c ./fcapplication/cna_dynamicmodel.o
                0x080313ec                CNA_DynamicModel__Quat_ECI_W_BCF::GetStateVectorJacobian(_T_MatrixXX*, _T_VectorX*, NA_T_SatelliteEnvironment const&)
                0x080313f0                CNA_DynamicModel__Quat_ECI_W_BCF::SetSateliteAttitude(_T_VectorX&, _NA_T_SateliteAttitude const&, bool)
                0x08031438                CNA_DynamicModel__Quat_ECI_W_BCF::GetFirstBiasedMeasurementIndex()
                0x0803143c                CNA_DynamicModel__Quat_ECI_W_BCF_Biassed::ApplyBiasses(_T_VectorX&, _T_VectorX const&)
                0x08031466                CNA_DynamicModel__Quat_ECI_W_BCF::GetX0(_T_VectorX&)
                0x08031480                CNA_DynamicModel__Quat_ECI_W_BCF_Biassed::GetX0(_T_VectorX&)
                0x080314a0                CNA_DynamicModel__Quat_ECI_W_BCF::GetP0(_T_MatrixXX&)
                0x080314a8                CNA_DynamicModel__Quat_ECI_W_BCF_Biassed::GetP0(_T_MatrixXX&)
                0x080314b8                CNA_DynamicModel__Quat_ECI_W_BCF::Evaluate(_T_VectorX&, _T_VectorX const&, NA_T_SatelliteEnvironment const&)
                0x08031516                CNA_DynamicModel__Quat_ECI_W_BCF_Biassed::Evaluate(_T_VectorX&, _T_VectorX const&, NA_T_SatelliteEnvironment const&)
                0x0803154a                CNA_DynamicModel__Quat_ECI_W_BCF::ConvertStateVectorToSateliteAttitude(_NA_T_SateliteAttitude*, _T_VectorX const&)
                0x08031594                CNA_DynamicModel__Quat_ECI_W_BCF_Biassed::ConvertStateVectorToSateliteAttitude(_NA_T_SateliteAttitude*, _T_VectorX const&)
                0x080315c0                CNA_DynamicModel__Quat_ECI_W_BCF::RefineStateVector(_T_VectorX&)
                0x080315c8                CNA_DynamicModel__Quat_ECI_W_BCF_Biassed::GetQ(_T_MatrixXX&, _T_VectorX const&, NA_T_SatelliteEnvironment&)
                0x08031614                CNA_DynamicModel__Quat_ECI_W_BCF::CNA_DynamicModel__Quat_ECI_W_BCF()
                0x08031614                CNA_DynamicModel__Quat_ECI_W_BCF::CNA_DynamicModel__Quat_ECI_W_BCF()
                0x08031628                CNA_DynamicModel__Quat_ECI_W_BCF::GetX0(_T_VectorX&, unsigned long)
                0x08031644                CNA_DynamicModel__Quat_ECI_W_BCF_Biassed::CNA_DynamicModel__Quat_ECI_W_BCF_Biassed()
                0x08031644                CNA_DynamicModel__Quat_ECI_W_BCF_Biassed::CNA_DynamicModel__Quat_ECI_W_BCF_Biassed()
                0x08031660                CNA_DynamicModel__Quat_ECI_W_BCF_Biassed::InitBiassing(int, int)
 .text          0x08031668      0x1b0 ./fcapplication/cna_kalman_startracker_imumultimeasbiased.o
                0x08031668                CKalman_StarTracker_IMUMultimeasBiased::GetDefaultConfig()
                0x08031708                CKalman_StarTracker_IMUMultimeasBiased::CKalman_StarTracker_IMUMultimeasBiased()
                0x08031708                CKalman_StarTracker_IMUMultimeasBiased::CKalman_StarTracker_IMUMultimeasBiased()
                0x08031770                CKalman_StarTracker_IMUMultimeasBiased::TranslateMeasurements_HiF2LoF(_NA_T_ADCSMeasurements&, T_ST_IMUMeasSample const&)
 .text          0x08031818      0x150 ./fcapplication/cna_kalman_sun_3gyro_3mag.o
                0x08031818                CKalman_Sun_3gyro_3Mag::GetDefaultConfig()
                0x08031900                CKalman_Sun_3gyro_3Mag::CKalman_Sun_3gyro_3Mag()
                0x08031900                CKalman_Sun_3gyro_3Mag::CKalman_Sun_3gyro_3Mag()
 .text          0x08031968      0xa0c ./fcapplication/cna_kalmanabstract.o
                0x08031968                CNA_DynamicModelAbstract::GetFirstBiasedMeasurementIndex()
                0x0803196e                CNA_KalmanAbstract::~CNA_KalmanAbstract()
                0x0803196e                CNA_KalmanAbstract::~CNA_KalmanAbstract()
                0x08031970                CNA_KalmanAbstract::f_EvaluateModel(_T_VectorX&, _T_VectorX const&, NA_T_SatelliteEnvironment const&)
                0x08031984                CNA_KalmanAbstract::ConvertStateVectorToSateliteAttitude(_NA_T_SateliteAttitude*, _T_VectorX const&)
                0x08031990                CNA_KalmanAbstract::h_EvaluateMeasurements(_T_VectorX&, _T_VectorX const&, NA_T_SatelliteEnvironment&)
                0x080319cc                CNA_MeasurementModelAbstract::GetRDiagonal(_T_VectorX const&)
                0x080319d0                CNA_DynamicModelAbstract::SetInertia(double (&) [3])
                0x080319ea                CNA_KalmanAbstract::GetR(_T_MatrixXX&, _T_VectorX&)
                0x08031a08                CNA_DynamicModelAbstract::GetQ(_T_MatrixXX&, _T_VectorX const&, NA_T_SatelliteEnvironment&)
                0x08031a6e                CNA_KalmanAbstract::~CNA_KalmanAbstract()
                0x08031a7e                CNA_KalmanAbstract::APriori(NA_T_SatelliteEnvironment&)
                0x08031b02                CNA_KalmanAbstract::GetStateVectorJacobian(_T_MatrixXX*, NA_T_SatelliteEnvironment const&)
                0x08031c30                CNA_KalmanAbstract::GetMeasurementsJacobian(_T_MatrixXX*, NA_T_SatelliteEnvironment*)
                0x08031e20                CNA_DynamicModelAbstract::SetParameters(_T_VectorX&, _T_MatrixXX&, _NA_T_KalmanParameters const&, double const (&) [3])
                0x08031e42                NA_T_SatelliteEnvironment::NA_T_SatelliteEnvironment()
                0x08031e42                NA_T_SatelliteEnvironment::NA_T_SatelliteEnvironment()
                0x08031e80                NA_T_SatelliteEnvironment::NA_T_SatelliteEnvironment(double)
                0x08031e80                NA_T_SatelliteEnvironment::NA_T_SatelliteEnvironment(double)
                0x08031eb4                NA_T_SatelliteEnvironment::Init(double)
                0x08031ee8                CNA_KalmanAbstract::CNA_KalmanAbstract()
                0x08031ee8                CNA_KalmanAbstract::CNA_KalmanAbstract()
                0x08031f0c                CNA_KalmanAbstract::Init(CNA_DynamicModelAbstract*, CNA_MeasurementModelAbstract*)
                0x08031f3a                CNA_KalmanAbstract::ReInit()
                0x08031f4a                CNA_KalmanAbstract::GetParameters(_NA_T_KalmanParameters&)
                0x08031f5e                CNA_KalmanAbstract::EvaluateDynamicsAtTime(NA_T_SatelliteEnvironment&)
                0x08031fb0                CNA_KalmanAbstract::APosteriori(_T_VectorX&, NA_T_SatelliteEnvironment&)
                0x08032190                CNA_KalmanAbstract::Evaluate(_T_VectorX&, NA_T_SatelliteEnvironment&, bool)
                0x0803220c                CNA_KalmanAbstract::GetUninitConfig()
                0x08032214                CNA_KalmanAbstract::GetX(_T_VectorX&)
                0x08032220                CNA_KalmanAbstract::GetP(_T_MatrixXX&)
                0x0803222c                CNA_KalmanAbstract::z_InitMeasurements(_T_VectorX&, NA_T_SatelliteEnvironment&, _NA_T_ADCSMeasurements const&, unsigned char*)
                0x0803224a                CNA_KalmanAbstract::GetSateliteAttitude(_NA_T_SateliteAttitude*)
                0x0803225a                CNA_KalmanAbstract::SetSateliteAttitude(_NA_T_SateliteAttitude const&, bool)
                0x08032276                CNA_MeasurementModelAbstract::CNA_MeasurementModelAbstract()
                0x08032276                CNA_MeasurementModelAbstract::CNA_MeasurementModelAbstract()
                0x08032290                CNA_MeasurementModelAbstract::SetParameters(_NA_T_KalmanParameters const&)
                0x080322b0                CNA_KalmanAbstract::SetParameters(_NA_T_KalmanParameters const&, _NA_T_SAT_GeometryParameters)
                0x080322fa                CNA_MeasurementModelAbstract::OwerrideSensorsValidityFromConfig(_T_VectorX&, _T_VectorX&, unsigned char const*)
                0x08032358                CNA_DynamicModelAbstract::CNA_DynamicModelAbstract()
                0x08032358                CNA_DynamicModelAbstract::CNA_DynamicModelAbstract()
                0x08032370                CNA_KalmanAbstract::Validation()
 *fill*         0x08032374        0x4 
 .text          0x08032378      0x620 ./fcapplication/cna_measurementmodel.o
                0x08032378                CNA_Measurement_SunV::GetMeasQ()
                0x0803237c                CNA_Measurement_SunV_Gyro3_MField3::GetMeasQ()
                0x08032380                CNA_Measurement_StarTracker_IMUMultimeasBias::GetMeasQ()
                0x08032384                CNA_Measurement_SunV::GetRDiagonal(_T_VectorX const&)
                0x08032408                CNA_Measurement_StarTracker_IMUMultimeasBias::GetRDiagonal(_T_VectorX const&)
                0x08032478                CNA_Measurement_SunV::h_EvaluateMeasurements(_T_VectorX&, _T_VectorX const&, _NA_T_SateliteAttitude*, NA_T_SatelliteEnvironment&)
                0x080324a4                CNA_Measurement_SunV_Gyro3_MField3::h_EvaluateMeasurements(_T_VectorX&, _T_VectorX const&, _NA_T_SateliteAttitude*, NA_T_SatelliteEnvironment&)
                0x08032512                CNA_Measurement_StarTracker_IMUMultimeasBias::h_EvaluateMeasurements(_T_VectorX&, _T_VectorX const&, _NA_T_SateliteAttitude*, NA_T_SatelliteEnvironment&)
                0x0803253c                CNA_Measurement_StarTracker_IMUMultimeasBias::z_InitMeasurements(_T_VectorX&, NA_T_SatelliteEnvironment&, _NA_T_ADCSMeasurements const&, unsigned char*)
                0x080325a8                IsVectorMeasurementValid(_NA_T_Sensor)
                0x080325c2                GetSensorVector_Vector3(double (*) [3], _T_VectorX*, long, _NA_T_Sensor)
                0x08032600                CNA_Measurement_SunV::z_InitMeasurements(_T_VectorX&, NA_T_SatelliteEnvironment&, _NA_T_ADCSMeasurements const&)
                0x08032650                CNA_Measurement_SunV_Gyro3_MField3::z_InitMeasurements(_T_VectorX&, NA_T_SatelliteEnvironment&, _NA_T_ADCSMeasurements const&, unsigned char*)
                0x0803278e                CNA_Measurement_SunV::CNA_Measurement_SunV()
                0x0803278e                CNA_Measurement_SunV::CNA_Measurement_SunV()
                0x080327a4                CNA_Measurement_SunV_Gyro3_MField3::CNA_Measurement_SunV_Gyro3_MField3()
                0x080327a4                CNA_Measurement_SunV_Gyro3_MField3::CNA_Measurement_SunV_Gyro3_MField3()
                0x080327b8                CheckAndInitValidSensors(NA_T_SatelliteEnvironment&, unsigned long, _NA_T_Sensor const&)
                0x080327e0                CNA_Measurement_StarTracker_IMUMultimeasBias::CNA_Measurement_StarTracker_IMUMultimeasBias()
                0x080327e0                CNA_Measurement_StarTracker_IMUMultimeasBias::CNA_Measurement_StarTracker_IMUMultimeasBias()
                0x080327f4                SetSensorWithScalars(_NA_T_Sensor*, double, double, double)
                0x0803280a                SetSensorVector3(_NA_T_Sensor*, double const*)
                0x0803282c                SetSensorTemperature(_NA_T_Sensor&, double)
                0x08032836                AverageSensorsGroup(int, int, int, _NA_T_ADCSMeasurements*)
                0x080328f0                AverageSunSensorUnitedFromMeasGroup(_NA_T_ADCSMeasurements&)
 .text          0x08032998      0x28c ./fcapplication/cna_rwvelocity.o
                0x08032998                CNA_RWVelocity::ApplyControlVelocityDelta_OnOrthogonalControl(double const (&) [3], double, double)
                0x080329e6                InitNull_ReactionWheelsArray(double (*) [4])
                0x080329fc                CNA_RWVelocity::Init()
                0x08032a16                CNA_RWVelocity::Apply_ControlVelocityDelta_OnSingleOrthogonalCoordinateFailure_(double const (&) [3], int, double)
                0x08032a70                GetNorm_ReactionWheelsArray(double const (*) [4])
                0x08032a90                Accumulate_ReactionWheelsArray(double (*) [4], double const (*) [4])
                0x08032aaa                Scale_ReactionWheelsArray(double (*) [4], double)
                0x08032ac0                Sub_ReactionWheelsArray(double (*) [4], double const (*) [4], double const (*) [4])
                0x08032ada                Copy_ReactionWheelsArray(double (*) [4], double const (*) [4])
                0x08032aee                CNA_RWVelocity::Get_RWs_Delta_SetRWsPreviuos(double (&) [4], double const (&) [4])
                0x08032b0e                CNA_RWVelocity::GetAngularVelocityDemand(double (&) [4])
                0x08032b2c                Copy_ReactionWheelsArray(double (*) [4], double const*)
                0x08032b40                Mult_ReactionWheelsArray(double (*) [4], double const*, double const*)
                0x08032b5a                Mult_Matrix_3ReactionWheelsQ_Vector3(double (*) [3], double const (*) [4], double const*)
                0x08032bb0                Mult_Matrix_ReactionWheelsQ3_Vector3(double (*) [4], double const (*) [3], double const*)
                0x08032be4                Copy_Matrix_ReactionWheelsQ3_ExceptSingleRW(double (&) [4][3], double const (*) [3], int)
 *fill*         0x08032c24        0x4 
 .text          0x08032c28      0x2b8 ./fcapplication/na_filter.o
                0x08032c28                InitLowPassf(_T_NA_LowPass*, float, float, unsigned char)
                0x08032c70                InitLowPassArrayf(_T_NA_LowPass*, unsigned char, float, float, unsigned char)
                0x08032cb0                EvaluateLowPassf(_T_NA_LowPass*, float)
                0x08032d20                InitLowPass(_T_NA_LowPassd*, double, double, unsigned char)
                0x08032d70                InitLowPassArray(_T_NA_LowPassd*, unsigned char, double, double, unsigned char)
                0x08032da6                SetLowPass(_T_NA_LowPassd*, double)
                0x08032dc4                SetLowPassArray(_T_NA_LowPassd*, unsigned char, double*)
                0x08032de4                EvaluateLowPass(_T_NA_LowPassd*, double)
                0x08032e3e                EvaluateLowPassArray(_T_NA_LowPassd*, unsigned char, double*, double const*)
                0x08032e5e                InitSpikeCutKeepLastGoodVector_3(_T_NA_SpikeCutVector_3*, int, double, double)
                0x08032e6e                EvaluateSpikeCutKeepLastGoodVector_3(double (*) [3], _T_NA_SpikeCutVector_3*, double const*)
 .text          0x08032ee0      0x7b4 ./fcapplication/na_igrfmodel.o
                0x08032ee0                GetEarthElipsoidLocalRadius(double)
                0x08032f78                igrf12syn(double, double, double, double, double*, double*, double*, double*)
                0x080332d4                GetIGRF(double, double, double, double, double*, double*, double*, double*)
                0x080333c8                NA_GetIGRF_InECI(double (*) [3], _NA_T_PositionVector_Ex const*)
                0x080334a8                NA_GetIGRF_AtLocalHorizontalPosition(double (*) [3], double*, double*, double*, double, double, double, double)
                0x080335c8                NA_RunIGRFSelfTest(double*)
 *fill*         0x08033694        0x4 
 .text          0x08033698      0x658 ./fcapplication/na_refframe.o
                0x08033698                ConvertGeodeticLatitudeToGeocentric(double)
                0x080336d8                ConvertGeocenticLatitudeToGeodetic(double)
                0x08033718                ECEFgeodetic_2_ECI_rect(double (*) [3], double, double, double, double)
                0x080337d8                ECIToECEF(double*, double*, double*, double*, double*, double*, double*, double, double, double, double)
                0x08033918                ECEFToECI(double*, double*, double*, double, double, double, double)
                0x08033a18                RotatePosVector_ECEFToECI(double (*) [3], double, double const*)
                0x08033a30                GetQuat_ECI_TEME_To_ECEF(double (*) [4], double)
                0x08033a88                Get_J2000_To_MeanOfDate_Quat(double (&) [4], double)
                0x08033c08                Get_J2000_To_TEME(double (&) [4], double)
                0x08033c1c                Get_TEME_To_J2000(double (&) [4], double)
                0x08033c38                Run_RefFrame_Tests()
                0x08033cd8                GetQuat_ECEF_To_ECI_TEME(double (*) [4], double)
 .text          0x08033cf0      0x9a8 ./fcapplication/na_rigidbody.o
                0x08033cf0                NA_Evaluate_RigidBody_ExactAnalytical_QuatToRotMat(_NA_T_SateliteAttitude*, _NA_T_SateliteAttitude, double, double, double)
                0x08033e20                NA_Evaluate_RigidBody_ExactAnalytical_RotMat(double (*) [9], double (*) [3], double const*, double const*, double, double, double)
                0x08033f24                NA_Evaluate_RigidBody_ExactAnalytical_Quat(_NA_T_SateliteAttitude*, _NA_T_SateliteAttitude, double const*, double)
                0x0803403a                NA_Evaluate_RigidBody_SemiExactAnalytical_Simplified(_NA_T_SateliteAttitude*, _NA_T_SateliteAttitude, double, double, double)
                0x080341bc                NA_Evaluate_RigidBody_ExactAnalytical_AngularMomentumAndEulerXZX(double*, double, double, double)
                0x08034238                NA_Evaluate_RigidBody_ExactAnalytical_PsiPhiAndEulerXZX(double*, double, double, double)
                0x0803425a                NA_Evaluate_RigidBody_ExactAnalytical_WzWxyAndEulerXZX(double*, double, double const (&) [3])
                0x08034318                AttDyn(_T_Diff_Y*, double, _T_Diff_Y const*, double const*, double const*)
                0x0803440a                MultScalarY(_T_Diff_Y*, double, _T_Diff_Y const*)
                0x08034434                PlusScalarY(_T_Diff_Y*, _T_Diff_Y const*, _T_Diff_Y const*)
                0x08034454                Copy_T_Y_to_SateliteAttitude(_NA_T_SateliteAttitude*, _T_Diff_Y)
                0x08034476                Copy_SateliteAttitude_to_T_Y(_T_Diff_Y*, _NA_T_SateliteAttitude)
                0x08034498                NA_Evaluate_RigidBody_ODE4_Quat(_NA_T_SateliteAttitude*, _NA_T_SateliteAttitude, double const*, double, double const*)
 .text          0x08034698      0x970 ./fcapplication/na_sgp4.o
                0x08034698                VerifyTLEStr(char const*)
                0x080346f2                TLEScann(_T_TLEData*, char*, char*)
                0x08034838                GetEpochStartUnixTime_TLEScann(char const*)
                0x0803486c                NA_ScanValidateTLE(char*, char*, char const*)
                0x0803492c                NA_ResetTLE()
                0x08034960                NA_GetTLE(char*, char*)
                0x08034a4c                SetTLE_GetEpochStart(double*, char const*, char const*)
                0x08034a8a                NA_SetTLE(char const*, char const*)
                0x08034a9c                Get_satrec_Copy(elsetrec*)
                0x08034af0                RunGetSGP4(_NA_T_PositionVector*, double)
                0x08034b90                NA_RunGetSGP4_m(_NA_T_PositionVector*, double)
                0x08034bac                NA_GetPositionVector_Ex(_NA_T_PositionVector_Ex*, _NA_T_PositionVector const*)
                0x08034c12                NA_GetEnvironmentModelsVector(_NA_T_EnvironmentModeled*, _NA_T_PositionVector const*)
                0x08034c5c                Do_RunSGP4_TLEScannerSelfTest()
                0x08034d88                Do_RunSGP4SelfTest(double*, double*)
                0x08034f88                NA_RunSGP4SelfTest(double*, double*)
                0x08034fbc                NA_SGP4_Init()
                0x08034fe4                Nsin_cos(double*, double)
 .text          0x08035008      0x3bc ./fcapplication/na_sundirectionmodel.o
                0x08035008                NA_GetSunDirection(double (*) [3], double)
                0x08035128                NA_IsDay(bool*, _NA_T_PositionVector const*, double const*)
                0x080351d0                NA_GetSun(double (*) [3], bool*, _NA_T_PositionVector const*)
                0x080351ee                NA_GetSunDirection_AtLocalHorizontalPosition(double (*) [3], double*, double*, double, double, double)
                0x080352c8                NA_RunSunPositionModuleSelfTest(double*)
 *fill*         0x080353c4        0x4 
 .text          0x080353c8      0x1b8 ./fcapplication/na_time.o
                0x080353c8                UnixTimeToJulianDate(double)
                0x080353f0                GetGMST_deg(double)
                0x08035460                JulianDateToUnixTime(double)
                0x080354c8                YearsAndDaysToJulianDate(int, double)
                0x08035528                Get_ttt_julian_centuries_of_Terrestrial_Time(double)
 .text          0x08035580      0x15c ./fcapplication/navigationdefines.o
                0x08035580                NA_T_Status_GetStr(_NA_T_Status)
                0x0803567c                T_ADCS_PositionDeterminationType_GetStr(_T_ADCS_PositionDeterminationType)
                0x080356c4                T_ADCSExactPointing_TargetType_GetStr(_T_ADCSExactPointing_TargetType)
 .text          0x080356dc        0x0 ./fcapplication/pch.o
 .text          0x080356dc        0x0 ./fcapplication/sgp4ext.o
 *fill*         0x080356dc        0x4 
 .text          0x080356e0      0x2d4 ./fcapplication/sgp4io.o
                0x080356e0                NA_twoline2rv(char*, char*, elsetrec*)
 *fill*         0x080359b4        0x4 
 .text          0x080359b8     0x1140 ./fcapplication/sgp4unit.o
                0x080359b8                gstime(double)
                0x08035a78                getgravconst(double*, double*, double*, double*, double*, double*, double*, double*)
                0x08035b38                sgp4(elsetrec*, double, double*, double*)
                0x08036138                sgp4init(char, int, double, double, double, double, double, double, double, double, elsetrec*)
 .text          0x08036af8      0x100 ./fcapplication/patternfinder.o
                0x08036af8                PatternFinder::isTimerConfigValid()
                0x08036b0a                PatternFinder::setTimingConfig(unsigned long, unsigned long (*)())
                0x08036b22                PatternFinder::didTimeoutOccur()
                0x08036b4c                PatternFinder::reset()
                0x08036b52                PatternFinder::callCallback()
                0x08036b5a                PatternFinder::scanData(unsigned char const*, unsigned short)
 .text          0x08036bf8      0x260 ./fcapplication/canapp.o
                0x08036bf8                CanApp::CanApp(CanBase&)
                0x08036bf8                CanApp::CanApp(CanBase&)
                0x08036c30                CanApp::~CanApp()
                0x08036c30                CanApp::~CanApp()
                0x08036c32                CanApp::init(CanApp::Msg const*, unsigned short, unsigned long*, unsigned short, char const*, unsigned long, void (*)(), unsigned long)
                0x08036cc4                CanApp::configFilters(CanApp::Filter const*, unsigned char)
                0x08036d24                CanApp::write(CanApp::Msg const&)
                0x08036d7e                CanApp::setRxCallback(void (*)(CanApp::Msg const&))
                0x08036d82                CanApp::getCurrStats(CanApp::Stats&)
                0x08036d8e                CanApp::processRxTaskRoutine()
                0x08036dbe                CanApp::rxTask(void*)
                0x08036dce                CanApp::rxCallbackIsr(unsigned long, unsigned char, unsigned char const*)
                0x08036e20                CanApp::txCpltCallbackIsr()
 .text          0x08036e58      0x230 ./fcapplication/rtcapp.o
                0x08036e58                RtcApp::RtcApp(RtcBase&)
                0x08036e58                RtcApp::RtcApp(RtcBase&)
                0x08036e60                RtcApp::~RtcApp()
                0x08036e60                RtcApp::~RtcApp()
                0x08036e62                RtcApp::init()
                0x08036e82                RtcApp::getPreciseTime(unsigned long&, unsigned long&)
                0x08036ede                RtcApp::getTime()
                0x08036f2e                RtcApp::getTimeInIRQ()
                0x08036f5a                RtcApp::setTime(double)
                0x08036f96                RtcApp::sync(RtcBase::NtpUnion)
                0x08036fd2                RtcApp::getTimeInfo()
                0x08037000                RtcApp::setTimeInfo(TimeInfo_s*)
                0x08037036                RtcApp::setOverflowCalibration(short)
                0x0803703e                RtcApp::isRtcSyncedWithPPS()
                0x08037046                RtcApp::resetRtcSyncedWithPPS()
                0x0803704e                RtcApp::getSyncStats()
                0x08037056                RtcApp::resetSyncStats()
                0x0803705e                RtcApp::getLastPpsPreciseTime(RtcBase::NtpUnion&)
                0x08037066                RtcApp::getLastPpsPreciseTime(unsigned long&, unsigned long&)
 .text          0x08037088      0x1e4 ./fcapplication/uartapp.o
                0x08037088                UartApp::UartApp(UartBase&)
                0x08037088                UartApp::UartApp(UartBase&)
                0x080370bc                UartApp::~UartApp()
                0x080370bc                UartApp::~UartApp()
                0x080370be                UartApp::init(unsigned char const*, unsigned short, unsigned long*, unsigned short, char const*, unsigned long, void (*)(), unsigned long)
                0x08037150                UartApp::write(unsigned char const*, unsigned short)
                0x080371ae                UartApp::setRxCallback(void (*)(unsigned char const*, unsigned short))
                0x080371b2                UartApp::getCurrStats(UartApp::Stats&)
                0x080371b8                UartApp::processRxTaskRoutine()
                0x080371e6                UartApp::rxTask(void*)
                0x080371f2                UartApp::rxCallbackIsr(unsigned char)
                0x08037234                UartApp::txCpltCallbackIsr()
 .text          0x0803726c      0x1d8 ./fcapplication/i2cmasterapp.o
                0x0803726c                I2cMasterApp::I2cMasterApp(I2cMasterBase&)
                0x0803726c                I2cMasterApp::I2cMasterApp(I2cMasterBase&)
                0x0803728c                I2cMasterApp::~I2cMasterApp()
                0x0803728c                I2cMasterApp::~I2cMasterApp()
                0x0803728e                I2cMasterApp::init()
                0x080372c2                I2cMasterApp::createSession()
                0x080372dc                I2cMasterApp::unsafeWrite(unsigned char, unsigned char const*, unsigned short)
                0x08037322                I2cMasterApp::write(unsigned char, unsigned char const*, unsigned short)
                0x08037358                I2cMasterApp::unsafeRead(unsigned char, unsigned char*, unsigned short)
                0x0803739e                I2cMasterApp::read(unsigned char, unsigned char*, unsigned short)
                0x080373d4                I2cMasterApp::rxCpltCallbackIsr()
                0x0803740c                I2cMasterApp::txCpltCallbackIsr()
                0x08037410                I2cMasterApp::errorCallbackIsr()
 .text          0x08037444      0x2e0 ./fcapplication/spimasterapp.o
                0x08037444                SpiMasterApp::SpiMasterApp(SpiMasterBase&)
                0x08037444                SpiMasterApp::SpiMasterApp(SpiMasterBase&)
                0x08037468                SpiMasterApp::~SpiMasterApp()
                0x08037468                SpiMasterApp::~SpiMasterApp()
                0x0803746a                SpiMasterApp::init()
                0x0803749e                SpiMasterApp::getCurrStats(SpiMasterApp::Stats&)
                0x080374ce                SpiMasterApp::createSession(SpiMasterApp::SlavePinControl&)
                0x080374f2                SpiMasterApp::rxCpltCallbackIsr()
                0x08037528                SpiMasterApp::txCpltCallbackIsr()
                0x0803752c                SpiMasterApp::txRxCpltCallbackIsr()
                0x08037530                SpiMasterApp::errorCallbackIsr()
                0x08037564                SpiMasterApp::unsafeWrite(unsigned char const*, unsigned short)
                0x080375b2                SpiMasterApp::write(SpiMasterApp::SlavePinControl&, unsigned char const*, unsigned short)
                0x080375f6                SpiMasterApp::unsafeRead(unsigned char*, unsigned short)
                0x08037644                SpiMasterApp::read(SpiMasterApp::SlavePinControl&, unsigned char*, unsigned short)
                0x08037688                SpiMasterApp::unsafeWriteRead(unsigned char const*, unsigned char*, unsigned short)
                0x080376da                SpiMasterApp::writeRead(SpiMasterApp::SlavePinControl&, unsigned char const*, unsigned char*, unsigned short)
 .text          0x08037724      0x1c4 ./fcapplication/flashapp.o
                0x08037760                flashApp::init(void (*)(), unsigned long)
                0x08037794                flashApp::write(unsigned long, unsigned char const*, unsigned long)
                0x08037814                flashApp::read(unsigned long, unsigned char*, unsigned long)
                0x08037850                flashApp::erase_sector(unsigned long, unsigned long)
                0x080378dc                internal_flash_read
                0x080378e0                internal_flash_write
                0x080378e4                internal_flash_erase
 .text          0x080378e8       0x7c ./fcapplication/canclicommands.o
 *fill*         0x08037964        0x4 
 .text          0x08037968      0x120 ./fcapplication/rtcbase.o
                0x08037968                RtcBase::timeInfoToUtc(TimeInfo_s*)
                0x08037982                RtcBase::utcToTimeInfo(double)
                0x080379be                RtcBase::timeInfoToNtp(TimeInfo_s*)
                0x080379f0                RtcBase::ntpToTimeInfo(RtcBase::NtpUnion)
                0x08037a30                RtcBase::ntpToUtc(RtcBase::NtpUnion)
                0x08037a58                RtcBase::utcToNtp(double)
 .text          0x08037a88      0x170 ./fcapplication/reqrepclienttransportcsp.o
                0x08037a88                ReqRepClientTransportCsp::~ReqRepClientTransportCsp()
                0x08037a88                ReqRepClientTransportCsp::~ReqRepClientTransportCsp()
                0x08037a8a                ReqRepClientTransportCsp::~ReqRepClientTransportCsp()
                0x08037a98                ReqRepClientTransportCsp::sendRequestWaitForReply(unsigned char const*, unsigned short, unsigned char*, unsigned short, unsigned long)
                0x08037b66                ReqRepClientTransportCsp::waitForReply(unsigned char*, unsigned short, unsigned long)
                0x08037bd4                ReqRepClientTransportCsp::ReqRepClientTransportCsp()
                0x08037bd4                ReqRepClientTransportCsp::ReqRepClientTransportCsp()
                0x08037be4                ReqRepClientTransportCsp::setNewConnection(csp_conn_s*)
 .text          0x08037bf8       0x5e ./fcapplication/reqrepservicetransportcsp.o
                0x08037bf8                reqRepServiceTransportCsp::handleService(ReqRepServiceBase&, csp_packet_t*, unsigned int)
 *fill*         0x08037c56        0x2 
 .text          0x08037c58      0x1b4 ./fcapplication/bcrw4.o
                0x08037c58                BCRW4::BCRW4()
                0x08037c58                BCRW4::BCRW4()
                0x08037c66                BCRW4::~BCRW4()
                0x08037c66                BCRW4::~BCRW4()
                0x08037c68                BCRW4::pullWheelSpeed()
                0x08037c9c                BCRW4::readBuffer(unsigned char const*, unsigned short)
                0x08037d30                BCRW4::setRWANum(RWANum_t)
                0x08037dbc                BCRW4::setWheelTorque(double, RWANum_t)
 .text          0x08037e0c      0x74c ./fcapplication/script_engine.o
                0x08037ec8                SE_get_err_list(unsigned long*)
                0x08037ef0                SE_get_info(SE_properties_t*)
                0x08037efc                SE_script_feedback(unsigned char const*, unsigned short)
                0x08037f50                SE_Init(void (*)(), unsigned long, void (*)(unsigned char*, unsigned long), void (*)(unsigned char const*, unsigned short), void (*)())
                0x08037ffc                SE_setManualRun()
                0x08038064                SE_setManualAbort()
                0x080380ac                SE_handle(long (*)(unsigned char*, unsigned char*, unsigned long), unsigned char*, unsigned char*, unsigned long)
                0x08038110                SE_scriptBlock()
                0x08038148                SE_scriptUnblock()
                0x08038178                TaskScript(void*)
 .text          0x08038558      0x26c ./fcapplication/cmdscriptengine.o
 .text          0x080387c4        0x4 ./fcapplication/semihostingoff.o
                0x080387c4                _ttywrch
                0x080387c6                _sys_exit
 .text          0x080387c8      0x460 ./fcapplication/cmdstartracker.o
 .text          0x08038c28      0x7ac ./fcapplication/startrackernst1b.o
                0x08038c3c                StarTrackerNST1B::StarTrackerNST1B(CanApp&)
                0x08038c3c                StarTrackerNST1B::StarTrackerNST1B(CanApp&)
                0x08038c6e                StarTrackerNST1B::~StarTrackerNST1B()
                0x08038c6e                StarTrackerNST1B::~StarTrackerNST1B()
                0x08038c7e                StarTrackerNST1B::init()
                0x08038cba                StarTrackerNST1B::setSyncFunc(void (*)(bool))
                0x08038cbe                StarTrackerNST1B::checksumCalc(unsigned char*, unsigned long)
                0x08038cd0                StarTrackerNST1B::send(unsigned long, unsigned char*, unsigned char)
                0x08038cf4                StarTrackerNST1B::unpackCpltCallback()
                0x08038d20                StarTrackerNST1B::unpackAdb(unsigned char, unsigned char*, StarTrackerNST1B::MHK_ADB*)
                0x08038e18                StarTrackerNST1B::unpackEdb(unsigned char, unsigned char*, StarTrackerNST1B::MHK_EDB*)
                0x08038edc                StarTrackerNST1B::receive(CanApp::Msg&)
                0x08038f4c                StarTrackerNST1B::waitForRxCplt()
                0x08038f7a                StarTrackerNST1B::cmdSoftReset()
                0x08038fa2                StarTrackerNST1B::cmdRequestToSend(bool, bool)
                0x08038fd4                StarTrackerNST1B::loadAdb()
                0x0803900c                StarTrackerNST1B::getNumStars(bool, unsigned char*)
                0x08039032                StarTrackerNST1B::getAttQuat(bool, long*)
                0x08039064                StarTrackerNST1B::getOmega(bool, short*)
                0x08039096                StarTrackerNST1B::loadEdb()
                0x080390c8                StarTrackerNST1B::cmdGotoStandby(bool)
                0x08039100                StarTrackerNST1B::cmdGotoModeB(long*)
                0x080391b0                StarTrackerNST1B::cmdGotoModeImage(unsigned short, unsigned short, unsigned char, unsigned char, unsigned short, unsigned short)
                0x0803923c                StarTrackerNST1B::getImg(unsigned short*)
                0x0803927c                StarTrackerNST1B::cmdModifyParameters(unsigned short, unsigned short)
                0x080392b4                StarTrackerNST1B::cmdtimeBroadcast(unsigned long, unsigned short)
                0x080392fe                StarTrackerNST1B::cmdsynchronization()
                0x08039302                StarTrackerNST1B::cmdApDump(unsigned long, unsigned short, unsigned short)
                0x0803936c                StarTrackerNST1B::cmdRCan()
                0x0803938c                StarTrackerNST1B::sendCommand(StarTrackerNST1B::CmdCodes)
                0x080393ce                StarTrackerNST1B::cmdRestart()
 .text          0x080393d4      0x1cc ./fcapplication/supervisor.o
                0x080393d4                supervisorTask
                0x08039448                supervisor_report_alive
                0x080394c8                supervisor_change_period
                0x080394d4                supervisor_reset_counters
                0x08039500                supervisor_init
                0x08039594                supervisor_get_counters
 .text          0x080395a0      0x1a8 ./fcapplication/telemetrycollectorbasic.o
                0x080395a0                TelemetryCollectorBasic::TelemetryCollectorBasic(TelemetryCollectorBasic::Callbacks&, unsigned short, unsigned char*, unsigned short)
                0x080395a0                TelemetryCollectorBasic::TelemetryCollectorBasic(TelemetryCollectorBasic::Callbacks&, unsigned short, unsigned char*, unsigned short)
                0x080395ca                TelemetryCollectorBasic::~TelemetryCollectorBasic()
                0x080395ca                TelemetryCollectorBasic::~TelemetryCollectorBasic()
                0x080395cc                TelemetryCollectorBasic::init(unsigned long, unsigned long*, unsigned short, char const*, unsigned long, void (*)(), unsigned long)
                0x0803961c                TelemetryCollectorBasic::kickWatchdog()
                0x08039624                TelemetryCollectorBasic::collectTelemetry()
                0x0803965c                TelemetryCollectorBasic::taskRoutine()
                0x080396f6                TelemetryCollectorBasic::collectorTask(void*)
                0x080396fc                TelemetryCollectorBasic::setNewPeriod(unsigned long)
                0x08039716                TelemetryCollectorBasic::setNewPeriodTemporarily(unsigned long, unsigned long)
                0x08039744                TelemetryCollectorBasic::getCollectionPeriod()
 .text          0x08039748       0x36 ./fcapplication/telemetryhelpers.o
                0x08039748                telemetryHelpers::save(unsigned short, unsigned char const*, unsigned short)
                0x0803975e                telemetryHelpers::read(unsigned short, unsigned char*, unsigned short, unsigned short)
 *fill*         0x0803977e        0x2 
 .text          0x08039780      0x114 ./fcapplication/telemetryservice.o
                0x08039780                TelemetryService::handle(unsigned char const*, unsigned short, unsigned char*, unsigned short)
 *fill*         0x08039894        0x4 
 .text          0x08039898      0x268 ./fcapplication/timesyncclient.o
                0x08039898                TimeSyncClient::TimeSyncClient(ReqRepClientTransportBase&)
                0x08039898                TimeSyncClient::TimeSyncClient(ReqRepClientTransportBase&)
                0x0803989c                TimeSyncClient::~TimeSyncClient()
                0x0803989c                TimeSyncClient::~TimeSyncClient()
                0x0803989e                TimeSyncClient::get(unsigned long&, unsigned long)
                0x080398f0                TimeSyncClient::set(unsigned long, unsigned long)
                0x0803993e                TimeSyncClient::getLastPpsTime(timeSyncPacketTypes::NtpTime&, unsigned long)
                0x080399a0                TimeSyncClient::getPreciseTime(void (*)(unsigned long&, unsigned long&), timeSyncPacketTypes::GetPreciseTimeData&, unsigned long)
                0x08039a36                TimeSyncClient::ntpToDouble(timeSyncPacketTypes::NtpTime)
                0x08039a68                TimeSyncClient::calculateTimeOffset(timeSyncPacketTypes::GetPreciseTimeData&)
 .text          0x08039b00      0x148 ./fcapplication/timesyncservice.o
                0x08039b00                TimeSyncService::~TimeSyncService()
                0x08039b00                TimeSyncService::~TimeSyncService()
                0x08039b02                TimeSyncService::~TimeSyncService()
                0x08039b10                TimeSyncService::handle(unsigned char const*, unsigned short, unsigned char*, unsigned short)
                0x08039c3c                TimeSyncService::TimeSyncService(TimeSyncRtcCallbacksBase&)
                0x08039c3c                TimeSyncService::TimeSyncService(TimeSyncRtcCallbacksBase&)
 .text          0x08039c48      0x260 ./fcapplication/timesynctask.o
                0x08039c58                timeSyncTask::init(TimeSyncRtcCallbacksBase&, unsigned char, unsigned char, unsigned long, unsigned long, void (*)(), unsigned long)
                0x08039cb8                timeSyncTask::getCurrStats(timeSyncTask::Stats&)
 .text          0x08039ea8      0x55c ./fcapplication/adc.o
                0x08039ea8                adc::init()
                0x0803a090                adc::deinit()
                0x0803a108                adc::reCalibrate()
                0x0803a11a                adc::adc1_getRawMeasurement(adc::Channel_adc1)
                0x0803a12c                adc::adc3_getRawMeasurement(adc::Channel_adc3)
                0x0803a13c                adc::fromRawTo_MV_MA(adc::Channel_adc1, unsigned long)
                0x0803a1ac                adc::fromRawTo_MV_MA(adc::Channel_adc3, unsigned long)
                0x0803a21c                adc::fromRawTo_Temperature(unsigned long)
                0x0803a254                adc::setReference(adc::adc_ref)
                0x0803a268                HAL_ADC_MspInit
                0x0803a3c0                HAL_ADC_MspDeInit
 .text          0x0803a404      0x138 ./fcapplication/systemclock.o
                0x0803a538                _Error_Handler
                0x0803a53a                systemClock::config()
 .text          0x0803a53c       0x40 ./fcapplication/watchdog.o
                0x0803a53c                watchdog::init(unsigned long)
                0x0803a568                watchdog::kick()
                0x0803a574                watchdog_init
                0x0803a578                watchdog_kick
 .text          0x0803a57c      0x32c ./fcapplication/gpio.o
                0x0803a57c                MX_GPIO_Init
 .text          0x0803a8a8      0x360 ./fcapplication/can1.o
                0x0803a8a8                Can1::~Can1()
                0x0803a8a8                Can1::~Can1()
                0x0803a8aa                Can1::setCallbacks(CanBase::Callbacks&)
                0x0803a8b0                Can1::~Can1()
                0x0803a8c0                Can1::deinit()
                0x0803a8de                Can1::sleep()
                0x0803a8ee                Can1::wakeUp()
                0x0803a8fe                Can1::busOffRestart()
                0x0803a984                Can1::write(unsigned long, unsigned char, unsigned char const*)
                0x0803a9c8                Can1::configFilter(unsigned char, unsigned long, unsigned long, CanBase::FilterFifo)
                0x0803aa28                Can1::Can1()
                0x0803aa28                Can1::Can1()
                0x0803aa58                Can1::rxIsr(unsigned long)
                0x0803aa98                Can1::txCpltCallbackIsr()
                0x0803aabe                Can1::turnOnRxInterrupt()
                0x0803aad4                Can1::errorCallbackIsr()
                0x0803ab0a                Can1::init()
                0x0803abb4                Can1::calculateCanBitTiming(unsigned long, Can1::Bitrate, Can1::CanBitTiming&)
                0x0803abe8                Can1::getCurrStats(CanStats&)
                0x0803ac02                Can1::getHandle()
 .text          0x0803ac08       0xe4 ./fcapplication/can2.o
                0x0803ac08                Can2::~Can2()
                0x0803ac08                Can2::~Can2()
                0x0803ac1c                Can2::~Can2()
                0x0803ac32                Can2::init()
                0x0803acd8                Can2::Can2()
                0x0803acd8                Can2::Can2()
 .text          0x0803acec      0x2e0 ./fcapplication/candrivers.o
                0x0803acec                canDrivers::getCan1Instance()
                0x0803acf4                canDrivers::getCan2Instance()
                0x0803acfc                HAL_FDCAN_ErrorCallback
                0x0803ad2c                HAL_FDCAN_TxBufferCompleteCallback
                0x0803ad5c                FDCAN1_IT0_IRQHandler
                0x0803ad70                FDCAN1_IT1_IRQHandler
                0x0803ad74                FDCAN2_IT0_IRQHandler
                0x0803ad88                FDCAN2_IT1_IRQHandler
                0x0803ad8c                HAL_FDCAN_RxFifo0Callback
                0x0803adcc                HAL_FDCAN_RxFifo1Callback
                0x0803ae0c                HAL_FDCAN_MspInit
                0x0803af3c                HAL_FDCAN_MspDeInit
 .text          0x0803afcc      0x144 ./fcapplication/uart4.o
                0x0803afcc                Uart4::~Uart4()
                0x0803afcc                Uart4::~Uart4()
                0x0803afce                Uart4::setCallbacks(UartBase::Callbacks&)
                0x0803afd2                Uart4::~Uart4()
                0x0803afe0                Uart4::deinit()
                0x0803aff0                Uart4::write(unsigned char const*, unsigned short)
                0x0803b004                Uart4::Uart4()
                0x0803b004                Uart4::Uart4()
                0x0803b01c                Uart4::getCurrStats(UartStats&)
                0x0803b02e                Uart4::txCpltCallbackIsr()
                0x0803b044                Uart4::rxIsr()
                0x0803b062                Uart4::turnOnRxInterrupt()
                0x0803b082                Uart4::init()
                0x0803b0c8                Uart4::errorCallbackIsr()
                0x0803b10a                Uart4::getHandle()
 .text          0x0803b110       0x80 ./fcapplication/uart5.o
                0x0803b110                Uart5::~Uart5()
                0x0803b110                Uart5::~Uart5()
                0x0803b124                Uart5::~Uart5()
                0x0803b138                Uart5::init()
                0x0803b17c                Uart5::Uart5()
                0x0803b17c                Uart5::Uart5()
 .text          0x0803b190       0x80 ./fcapplication/uart7.o
                0x0803b190                Uart7::~Uart7()
                0x0803b190                Uart7::~Uart7()
                0x0803b1a4                Uart7::~Uart7()
                0x0803b1b8                Uart7::init()
                0x0803b1fc                Uart7::Uart7()
                0x0803b1fc                Uart7::Uart7()
 .text          0x0803b210       0x80 ./fcapplication/uart8.o
                0x0803b210                Uart8::~Uart8()
                0x0803b210                Uart8::~Uart8()
                0x0803b224                Uart8::~Uart8()
                0x0803b238                Uart8::init()
                0x0803b27c                Uart8::Uart8()
                0x0803b27c                Uart8::Uart8()
 .text          0x0803b290      0x144 ./fcapplication/uart1.o
                0x0803b290                Uart1::~Uart1()
                0x0803b290                Uart1::~Uart1()
                0x0803b292                Uart1::setCallbacks(UartBase::Callbacks&)
                0x0803b296                Uart1::~Uart1()
                0x0803b2a4                Uart1::deinit()
                0x0803b2b4                Uart1::write(unsigned char const*, unsigned short)
                0x0803b2c8                Uart1::Uart1()
                0x0803b2c8                Uart1::Uart1()
                0x0803b2e0                Uart1::getCurrStats(UartStats&)
                0x0803b2f2                Uart1::txCpltCallbackIsr()
                0x0803b308                Uart1::rxIsr()
                0x0803b326                Uart1::turnOnRxInterrupt()
                0x0803b346                Uart1::init()
                0x0803b38c                Uart1::errorCallbackIsr()
                0x0803b3ce                Uart1::getHandle()
 .text          0x0803b3d4       0x80 ./fcapplication/uart3.o
                0x0803b3d4                Uart3::~Uart3()
                0x0803b3d4                Uart3::~Uart3()
                0x0803b3e8                Uart3::~Uart3()
                0x0803b3fc                Uart3::init()
                0x0803b440                Uart3::Uart3()
                0x0803b440                Uart3::Uart3()
 .text          0x0803b454       0x80 ./fcapplication/uart6.o
                0x0803b454                Uart6::~Uart6()
                0x0803b454                Uart6::~Uart6()
                0x0803b468                Uart6::~Uart6()
                0x0803b47c                Uart6::init()
                0x0803b4c0                Uart6::Uart6()
                0x0803b4c0                Uart6::Uart6()
 .text          0x0803b4d4      0x6d0 ./fcapplication/uartdrivers.o
                0x0803b4d4                uartDrivers::getUart4Instance()
                0x0803b4dc                uartDrivers::getUart5Instance()
                0x0803b4e4                uartDrivers::getUart7Instance()
                0x0803b4ec                uartDrivers::getUart8Instance()
                0x0803b4f4                uartDrivers::getUart1Instance()
                0x0803b4fc                uartDrivers::getUart3Instance()
                0x0803b504                uartDrivers::getUart6Instance()
                0x0803b50c                HAL_UART_ErrorCallback
                0x0803b59c                HAL_UART_TxCpltCallback
                0x0803b62c                UART_Receive_IT
                0x0803b6bc                UART4_IRQHandler
                0x0803b6d0                UART5_IRQHandler
                0x0803b6e4                UART7_IRQHandler
                0x0803b6f8                UART8_IRQHandler
                0x0803b70c                USART1_IRQHandler
                0x0803b720                USART3_IRQHandler
                0x0803b734                USART6_IRQHandler
                0x0803b748                HAL_UART_MspInit
                0x0803ba64                HAL_UART_MspDeInit
 .text          0x0803bba4      0x12c ./fcapplication/i2c1.o
                0x0803bba4                I2c1::~I2c1()
                0x0803bba4                I2c1::~I2c1()
                0x0803bba6                I2c1::setCallbacks(I2cMasterBase::Callbacks&)
                0x0803bbaa                I2c1::~I2c1()
                0x0803bbb8                I2c1::init()
                0x0803bc08                I2c1::deinit()
                0x0803bc18                I2c1::write(unsigned char, unsigned char const*, unsigned short)
                0x0803bc56                I2c1::read(unsigned char, unsigned char*, unsigned short)
                0x0803bc94                I2c1::I2c1()
                0x0803bc94                I2c1::I2c1()
                0x0803bca4                I2c1::rxCpltCallbackIsr()
                0x0803bcb0                I2c1::txCpltCallbackIsr()
                0x0803bcbc                I2c1::errorCallbackIsr()
                0x0803bcc8                I2c1::getCurrStats(I2cStats&)
                0x0803bcca                I2c1::getHandle()
 .text          0x0803bcd0       0x8c ./fcapplication/i2c2.o
                0x0803bcd0                I2c2::~I2c2()
                0x0803bcd0                I2c2::~I2c2()
                0x0803bce4                I2c2::~I2c2()
                0x0803bcf8                I2c2::init()
                0x0803bd48                I2c2::I2c2()
                0x0803bd48                I2c2::I2c2()
 .text          0x0803bd5c       0x8c ./fcapplication/i2c3.o
                0x0803bd5c                I2c3::~I2c3()
                0x0803bd5c                I2c3::~I2c3()
                0x0803bd70                I2c3::~I2c3()
                0x0803bd84                I2c3::init()
                0x0803bdd4                I2c3::I2c3()
                0x0803bdd4                I2c3::I2c3()
 .text          0x0803bde8       0x8c ./fcapplication/i2c4.o
                0x0803bde8                I2c4::~I2c4()
                0x0803bde8                I2c4::~I2c4()
                0x0803bdfc                I2c4::~I2c4()
                0x0803be10                I2c4::init()
                0x0803be60                I2c4::I2c4()
                0x0803be60                I2c4::I2c4()
 .text          0x0803be74      0x474 ./fcapplication/i2cdrivers.o
                0x0803be74                i2cDrivers::getI2c1Instance()
                0x0803be7c                i2cDrivers::getI2c2Instance()
                0x0803be84                i2cDrivers::getI2c3Instance()
                0x0803be8c                i2cDrivers::getI2c4Instance()
                0x0803be94                HAL_I2C_MasterTxCpltCallback
                0x0803bee8                HAL_I2C_MasterRxCpltCallback
                0x0803bf3c                HAL_I2C_ErrorCallback
                0x0803bf90                I2C1_EV_IRQHandler
                0x0803bfa4                I2C1_ER_IRQHandler
                0x0803bfb8                I2C2_EV_IRQHandler
                0x0803bfcc                I2C2_ER_IRQHandler
                0x0803bfe0                I2C3_EV_IRQHandler
                0x0803bff4                I2C3_ER_IRQHandler
                0x0803c008                I2C4_EV_IRQHandler
                0x0803c01c                I2C4_ER_IRQHandler
                0x0803c030                HAL_I2C_MspInit
                0x0803c220                HAL_I2C_MspDeInit
 .text          0x0803c2e8      0x110 ./fcapplication/spi1.o
                0x0803c2e8                Spi1::~Spi1()
                0x0803c2e8                Spi1::~Spi1()
                0x0803c2ea                Spi1::setCallbacks(SpiMasterBase::Callbacks&)
                0x0803c2ee                Spi1::~Spi1()
                0x0803c2fc                Spi1::init()
                0x0803c350                Spi1::deinit()
                0x0803c360                Spi1::write(unsigned char const*, unsigned short)
                0x0803c374                Spi1::read(unsigned char*, unsigned short)
                0x0803c388                Spi1::writeRead(unsigned char const*, unsigned char*, unsigned short)
                0x0803c39c                Spi1::Spi1()
                0x0803c39c                Spi1::Spi1()
                0x0803c3ac                Spi1::rxCpltCallbackIsr()
                0x0803c3b8                Spi1::txCpltCallbackIsr()
                0x0803c3c4                Spi1::txRxCpltCallbackIsr()
                0x0803c3d0                Spi1::errorCallbackIsr()
                0x0803c3ee                Spi1::getCurrStats(SpiStats&)
                0x0803c3f4                Spi1::getHandle()
 .text          0x0803c3f8       0x94 ./fcapplication/spi2.o
                0x0803c3f8                Spi2::~Spi2()
                0x0803c3f8                Spi2::~Spi2()
                0x0803c40c                Spi2::~Spi2()
                0x0803c420                Spi2::init()
                0x0803c478                Spi2::Spi2()
                0x0803c478                Spi2::Spi2()
 .text          0x0803c48c       0x90 ./fcapplication/spi4.o
                0x0803c48c                Spi4::~Spi4()
                0x0803c48c                Spi4::~Spi4()
                0x0803c4a0                Spi4::~Spi4()
                0x0803c4b4                Spi4::init()
                0x0803c508                Spi4::Spi4()
                0x0803c508                Spi4::Spi4()
 .text          0x0803c51c       0x94 ./fcapplication/spi5.o
                0x0803c51c                Spi5::~Spi5()
                0x0803c51c                Spi5::~Spi5()
                0x0803c530                Spi5::~Spi5()
                0x0803c544                Spi5::init()
                0x0803c59c                Spi5::Spi5()
                0x0803c59c                Spi5::Spi5()
 .text          0x0803c5b0      0x44c ./fcapplication/spidrivers.o
                0x0803c5b0                spiDrivers::getSpi1Instance()
                0x0803c5b8                spiDrivers::getSpi2Instance()
                0x0803c5c0                spiDrivers::getSpi4Instance()
                0x0803c5c8                spiDrivers::getSpi5Instance()
                0x0803c5d0                SPI1_IRQHandler
                0x0803c5e4                SPI2_IRQHandler
                0x0803c5f8                SPI4_IRQHandler
                0x0803c60c                SPI5_IRQHandler
                0x0803c620                HAL_SPI_TxCpltCallback
                0x0803c674                HAL_SPI_RxCpltCallback
                0x0803c6c8                HAL_SPI_TxRxCpltCallback
                0x0803c71c                HAL_SPI_ErrorCallback
                0x0803c770                HAL_SPI_MspInit
                0x0803c93c                HAL_SPI_MspDeInit
 .text          0x0803c9fc      0x2a8 ./fcapplication/flash.o
                0x0803c9fc                flash::setCallbacks(flash::Callbacks&)
                0x0803ca08                error_cb()
                0x0803ca1c                flash::init()
                0x0803ca50                flash::write(unsigned long, unsigned char const*, unsigned long)
                0x0803cb50                flash::read(unsigned long, unsigned char*, unsigned long)
                0x0803cb7c                flash::erase_sector(unsigned long, unsigned long)
                0x0803cc30                HAL_FLASH_EndOfOperationCallback
                0x0803cc64                HAL_FLASH_OperationErrorCallback
                0x0803cca0                FLASH_IRQHandler
 .text          0x0803cca4      0x134 ./fcapplication/tim8.o
                0x0803cca4                BSP_TIM8_Init
                0x0803cd90                BSP_TIM8_StartChannel
                0x0803cda4                BSP_TIM8_StopChannel
                0x0803cdb8                BSP_TIM8_SetChannelPWM
 .text          0x0803cdd8       0x68 ./fcapplication/tim2.o
                0x0803cdd8                BSP_TIM2_Init
 .text          0x0803ce40      0x124 ./fcapplication/timdrivers.o
                0x0803ce40                HAL_TIM_Base_MspInit
                0x0803cf00                HAL_TIM_Base_MspDeInit
 .text          0x0803cf64       0xbc ./fcapplication/mcuoption.o
                0x0803cf64                McuOption::setBor(McuOption::BorLevel)
                0x0803d018                opt::getMcuOptionInstance()
 .text          0x0803d020       0xd4 ./fcapplication/tim5.o
                0x0803d020                BSP_TIM5_Init
                0x0803d0bc                TIM5_IRQHandler
                0x0803d0c8                BSP_TIM5_StartChannel
                0x0803d0dc                BSP_TIM5_StopChannel
                0x0803d0f0                HAL_TIM_OC_DelayElapsedCallback
 *fill*         0x0803d0f4        0x4 
 .text          0x0803d0f8      0x8ac ./fcapplication/rtc.o
                0x0803d0f8                Rtc::~Rtc()
                0x0803d0f8                Rtc::~Rtc()
                0x0803d0fa                Rtc::setOverflowCalibration(short)
                0x0803d0fe                Rtc::isRtcSyncedWithPPS()
                0x0803d104                Rtc::resetRtcSyncedWithPPS()
                0x0803d10c                Rtc::getSyncStats()
                0x0803d110                Rtc::resetSyncStats()
                0x0803d138                Rtc::~Rtc()
                0x0803d146                Rtc::init()
                0x0803d21c                Rtc::deinit()
                0x0803d22c                Rtc::getLastPpsPreciseTime(RtcBase::NtpUnion&)
                0x0803d246                Rtc::Rtc()
                0x0803d246                Rtc::Rtc()
                0x0803d2b4                Rtc::overflowSSR()
                0x0803d310                Rtc::RtcToTimeInfo(RTC_TimeTypeDef*, RTC_DateTypeDef*)
                0x0803d356                Rtc::getTime(RTC_TimeTypeDef*, RTC_DateTypeDef*)
                0x0803d486                Rtc::getTime()
                0x0803d4ac                Rtc::syncTime(TimeInfo_s*)
                0x0803d844                Rtc::TimeInfoToRtc(TimeInfo_s*, RTC_TimeTypeDef*, RTC_DateTypeDef*)
                0x0803d8a8                Rtc::setTime(TimeInfo_s*)
                0x0803d978                Rtc::getHandle()
                0x0803d97c                Rtc::ppsIrqHandler()
 .text          0x0803d9a4      0x120 ./fcapplication/tim12.o
                0x0803d9a4                BSP_TIM12_Init
                0x0803da90                BSP_TIM12_StartChannel
                0x0803daa4                BSP_TIM12_StopChannel
                0x0803dab8                BSP_TIM12_SetChannelPWM
 .text          0x0803dac4       0x74 ./fcapplication/rtcdrivers.o
                0x0803dac4                rtcDrivers::getRtcInstance()
                0x0803dacc                HAL_RTC_MspInit
                0x0803dae8                HAL_RTC_MspDeInit
                0x0803db04                TAMP_STAMP_IRQHandler
                0x0803db18                HAL_RTCEx_TimeStampEventCallback
                0x0803db24                RTC_get_time
 .text          0x0803db38       0x9e ./fcapplication/cmdlvc.o
 .text          0x0803dbd6       0xf0 ./fcapplication/lvc.o
                0x0803dc50                LVC::outputSingle(LVC::LVC_OUTPUT_NR, LVC::LVC_STATE, unsigned short)
                0x0803dc78                LVC::batteryHtrMode(LVC::LVC_BATMODE)
                0x0803dc92                LVC::batteryHtrState(LVC::LVC_STATE, unsigned short)
                0x0803dcb0                LVC::hardReset()
 *fill*         0x0803dcc6        0x2 
 .text          0x0803dcc8      0x378 c:/program files (x86)/gnu arm embedded toolchain/9 2020-q2-update/bin/../lib/gcc/arm-none-eabi/9.3.1/thumb/v7e-m+dp/hard\libgcc.a(_arm_addsubdf3.o)
                0x0803dcc8                __aeabi_drsub
                0x0803dcd0                __subdf3
                0x0803dcd0                __aeabi_dsub
                0x0803dcd4                __aeabi_dadd
                0x0803dcd4                __adddf3
                0x0803df4c                __floatunsidf
                0x0803df4c                __aeabi_ui2d
                0x0803df6c                __aeabi_i2d
                0x0803df6c                __floatsidf
                0x0803df90                __extendsfdf2
                0x0803df90                __aeabi_f2d
                0x0803dfd4                __floatundidf
                0x0803dfd4                __aeabi_ul2d
                0x0803dfe4                __aeabi_l2d
                0x0803dfe4                __floatdidf
 .text          0x0803e040       0xa0 c:/program files (x86)/gnu arm embedded toolchain/9 2020-q2-update/bin/../lib/gcc/arm-none-eabi/9.3.1/thumb/v7e-m+dp/hard\libgcc.a(_aeabi_ldivmod.o)
                0x0803e040                __aeabi_ldivmod
 .text          0x0803e0e0       0x30 c:/program files (x86)/gnu arm embedded toolchain/9 2020-q2-update/bin/../lib/gcc/arm-none-eabi/9.3.1/thumb/v7e-m+dp/hard\libgcc.a(_aeabi_uldivmod.o)
                0x0803e0e0                __aeabi_uldivmod
 .text          0x0803e110       0x30 c:/program files (x86)/gnu arm embedded toolchain/9 2020-q2-update/bin/../lib/gcc/arm-none-eabi/9.3.1/thumb/v7e-m+dp/hard\libgcc.a(_fixdfdi.o)
                0x0803e110                __aeabi_d2lz
                0x0803e110                __fixdfdi
 .text          0x0803e140       0x40 c:/program files (x86)/gnu arm embedded toolchain/9 2020-q2-update/bin/../lib/gcc/arm-none-eabi/9.3.1/thumb/v7e-m+dp/hard\libgcc.a(_fixunsdfdi.o)
                0x0803e140                __fixunsdfdi
                0x0803e140                __aeabi_d2ulz
 .text          0x0803e180      0x2c4 c:/program files (x86)/gnu arm embedded toolchain/9 2020-q2-update/bin/../lib/gcc/arm-none-eabi/9.3.1/thumb/v7e-m+dp/hard\libgcc.a(_udivmoddi4.o)
                0x0803e180                __udivmoddi4
 .text          0x0803e444        0x4 c:/program files (x86)/gnu arm embedded toolchain/9 2020-q2-update/bin/../lib/gcc/arm-none-eabi/9.3.1/thumb/v7e-m+dp/hard\libgcc.a(_dvmd_tls.o)
                0x0803e444                __aeabi_idiv0
                0x0803e444                __aeabi_ldiv0
 .text          0x0803e448        0x0 c:/program files (x86)/gnu arm embedded toolchain/9 2020-q2-update/bin/../lib/gcc/arm-none-eabi/9.3.1/../../../../arm-none-eabi/lib/thumb/v7e-m+dp/hard\libc.a(lib_a-atexit.o)
 .text          0x0803e448        0x0 c:/program files (x86)/gnu arm embedded toolchain/9 2020-q2-update/bin/../lib/gcc/arm-none-eabi/9.3.1/../../../../arm-none-eabi/lib/thumb/v7e-m+dp/hard\libc.a(lib_a-atof.o)
 .text          0x0803e448        0x0 c:/program files (x86)/gnu arm embedded toolchain/9 2020-q2-update/bin/../lib/gcc/arm-none-eabi/9.3.1/../../../../arm-none-eabi/lib/thumb/v7e-m+dp/hard\libc.a(lib_a-atoi.o)
 .text          0x0803e448        0x0 c:/program files (x86)/gnu arm embedded toolchain/9 2020-q2-update/bin/../lib/gcc/arm-none-eabi/9.3.1/../../../../arm-none-eabi/lib/thumb/v7e-m+dp/hard\libc.a(lib_a-exit.o)
 .text          0x0803e448        0x0 c:/program files (x86)/gnu arm embedded toolchain/9 2020-q2-update/bin/../lib/gcc/arm-none-eabi/9.3.1/../../../../arm-none-eabi/lib/thumb/v7e-m+dp/hard\libc.a(lib_a-impure.o)
 .text          0x0803e448        0x0 c:/program files (x86)/gnu arm embedded toolchain/9 2020-q2-update/bin/../lib/gcc/arm-none-eabi/9.3.1/../../../../arm-none-eabi/lib/thumb/v7e-m+dp/hard\libc.a(lib_a-init.o)
 .text          0x0803e448        0x0 c:/program files (x86)/gnu arm embedded toolchain/9 2020-q2-update/bin/../lib/gcc/arm-none-eabi/9.3.1/../../../../arm-none-eabi/lib/thumb/v7e-m+dp/hard\libc.a(lib_a-isalpha.o)
 .text          0x0803e448        0x0 c:/program files (x86)/gnu arm embedded toolchain/9 2020-q2-update/bin/../lib/gcc/arm-none-eabi/9.3.1/../../../../arm-none-eabi/lib/thumb/v7e-m+dp/hard\libc.a(lib_a-isprint.o)
 .text          0x0803e448        0x0 c:/program files (x86)/gnu arm embedded toolchain/9 2020-q2-update/bin/../lib/gcc/arm-none-eabi/9.3.1/../../../../arm-none-eabi/lib/thumb/v7e-m+dp/hard\libc.a(lib_a-lcltime.o)
 .text          0x0803e448        0x0 c:/program files (x86)/gnu arm embedded toolchain/9 2020-q2-update/bin/../lib/gcc/arm-none-eabi/9.3.1/../../../../arm-none-eabi/lib/thumb/v7e-m+dp/hard\libc.a(lib_a-lcltime_r.o)
 .text          0x0803e448        0x0 c:/program files (x86)/gnu arm embedded toolchain/9 2020-q2-update/bin/../lib/gcc/arm-none-eabi/9.3.1/../../../../arm-none-eabi/lib/thumb/v7e-m+dp/hard\libc.a(lib_a-memcmp.o)
 .text          0x0803e448      0x134 c:/program files (x86)/gnu arm embedded toolchain/9 2020-q2-update/bin/../lib/gcc/arm-none-eabi/9.3.1/../../../../arm-none-eabi/lib/thumb/v7e-m+dp/hard\libc.a(lib_a-memcpy.o)
                0x0803e448                memcpy
 .text          0x0803e57c        0x0 c:/program files (x86)/gnu arm embedded toolchain/9 2020-q2-update/bin/../lib/gcc/arm-none-eabi/9.3.1/../../../../arm-none-eabi/lib/thumb/v7e-m+dp/hard\libc.a(lib_a-memmove.o)
 .text          0x0803e57c        0x0 c:/program files (x86)/gnu arm embedded toolchain/9 2020-q2-update/bin/../lib/gcc/arm-none-eabi/9.3.1/../../../../arm-none-eabi/lib/thumb/v7e-m+dp/hard\libc.a(lib_a-memset.o)
 .text          0x0803e57c        0x0 c:/program files (x86)/gnu arm embedded toolchain/9 2020-q2-update/bin/../lib/gcc/arm-none-eabi/9.3.1/../../../../arm-none-eabi/lib/thumb/v7e-m+dp/hard\libc.a(lib_a-mktime.o)
 .text          0x0803e57c        0x0 c:/program files (x86)/gnu arm embedded toolchain/9 2020-q2-update/bin/../lib/gcc/arm-none-eabi/9.3.1/../../../../arm-none-eabi/lib/thumb/v7e-m+dp/hard\libc.a(lib_a-month_lengths.o)
 .text          0x0803e57c        0x0 c:/program files (x86)/gnu arm embedded toolchain/9 2020-q2-update/bin/../lib/gcc/arm-none-eabi/9.3.1/../../../../arm-none-eabi/lib/thumb/v7e-m+dp/hard\libc.a(lib_a-printf.o)
 .text          0x0803e57c        0x0 c:/program files (x86)/gnu arm embedded toolchain/9 2020-q2-update/bin/../lib/gcc/arm-none-eabi/9.3.1/../../../../arm-none-eabi/lib/thumb/v7e-m+dp/hard\libc.a(lib_a-rand.o)
 .text          0x0803e57c        0x0 c:/program files (x86)/gnu arm embedded toolchain/9 2020-q2-update/bin/../lib/gcc/arm-none-eabi/9.3.1/../../../../arm-none-eabi/lib/thumb/v7e-m+dp/hard\libc.a(lib_a-s_nan.o)
 .text          0x0803e57c        0x0 c:/program files (x86)/gnu arm embedded toolchain/9 2020-q2-update/bin/../lib/gcc/arm-none-eabi/9.3.1/../../../../arm-none-eabi/lib/thumb/v7e-m+dp/hard\libc.a(lib_a-snprintf.o)
 .text          0x0803e57c        0x0 c:/program files (x86)/gnu arm embedded toolchain/9 2020-q2-update/bin/../lib/gcc/arm-none-eabi/9.3.1/../../../../arm-none-eabi/lib/thumb/v7e-m+dp/hard\libc.a(lib_a-sprintf.o)
 .text          0x0803e57c        0x0 c:/program files (x86)/gnu arm embedded toolchain/9 2020-q2-update/bin/../lib/gcc/arm-none-eabi/9.3.1/../../../../arm-none-eabi/lib/thumb/v7e-m+dp/hard\libc.a(lib_a-sscanf.o)
 .text          0x0803e57c        0x0 c:/program files (x86)/gnu arm embedded toolchain/9 2020-q2-update/bin/../lib/gcc/arm-none-eabi/9.3.1/../../../../arm-none-eabi/lib/thumb/v7e-m+dp/hard\libc.a(lib_a-stdio.o)
 .text          0x0803e57c        0x0 c:/program files (x86)/gnu arm embedded toolchain/9 2020-q2-update/bin/../lib/gcc/arm-none-eabi/9.3.1/../../../../arm-none-eabi/lib/thumb/v7e-m+dp/hard\libc.a(lib_a-strcat.o)
 .text          0x0803e57c        0x0 c:/program files (x86)/gnu arm embedded toolchain/9 2020-q2-update/bin/../lib/gcc/arm-none-eabi/9.3.1/../../../../arm-none-eabi/lib/thumb/v7e-m+dp/hard\libc.a(lib_a-strchr.o)
 *fill*         0x0803e57c        0x4 
 .text          0x0803e580      0x2dc c:/program files (x86)/gnu arm embedded toolchain/9 2020-q2-update/bin/../lib/gcc/arm-none-eabi/9.3.1/../../../../arm-none-eabi/lib/thumb/v7e-m+dp/hard\libc.a(lib_a-strcmp.o)
                0x0803e588                strcmp
 .text          0x0803e85c        0x0 c:/program files (x86)/gnu arm embedded toolchain/9 2020-q2-update/bin/../lib/gcc/arm-none-eabi/9.3.1/../../../../arm-none-eabi/lib/thumb/v7e-m+dp/hard\libc.a(lib_a-strcpy.o)
 *fill*         0x0803e85c       0x24 
 .text          0x0803e880       0xdc c:/program files (x86)/gnu arm embedded toolchain/9 2020-q2-update/bin/../lib/gcc/arm-none-eabi/9.3.1/../../../../arm-none-eabi/lib/thumb/v7e-m+dp/hard\libc.a(lib_a-strlen.o)
                0x0803e880                strlen
 .text          0x0803e95c        0x0 c:/program files (x86)/gnu arm embedded toolchain/9 2020-q2-update/bin/../lib/gcc/arm-none-eabi/9.3.1/../../../../arm-none-eabi/lib/thumb/v7e-m+dp/hard\libc.a(lib_a-strncat.o)
 .text          0x0803e95c        0x0 c:/program files (x86)/gnu arm embedded toolchain/9 2020-q2-update/bin/../lib/gcc/arm-none-eabi/9.3.1/../../../../arm-none-eabi/lib/thumb/v7e-m+dp/hard\libc.a(lib_a-strncmp.o)
 .text          0x0803e95c        0x0 c:/program files (x86)/gnu arm embedded toolchain/9 2020-q2-update/bin/../lib/gcc/arm-none-eabi/9.3.1/../../../../arm-none-eabi/lib/thumb/v7e-m+dp/hard\libc.a(lib_a-strncpy.o)
 .text          0x0803e95c        0x0 c:/program files (x86)/gnu arm embedded toolchain/9 2020-q2-update/bin/../lib/gcc/arm-none-eabi/9.3.1/../../../../arm-none-eabi/lib/thumb/v7e-m+dp/hard\libc.a(lib_a-strtod.o)
 .text          0x0803e95c        0x0 c:/program files (x86)/gnu arm embedded toolchain/9 2020-q2-update/bin/../lib/gcc/arm-none-eabi/9.3.1/../../../../arm-none-eabi/lib/thumb/v7e-m+dp/hard\libc.a(lib_a-strtol.o)
 .text          0x0803e95c        0x0 c:/program files (x86)/gnu arm embedded toolchain/9 2020-q2-update/bin/../lib/gcc/arm-none-eabi/9.3.1/../../../../arm-none-eabi/lib/thumb/v7e-m+dp/hard\libc.a(lib_a-strtoul.o)
 .text          0x0803e95c        0x0 c:/program files (x86)/gnu arm embedded toolchain/9 2020-q2-update/bin/../lib/gcc/arm-none-eabi/9.3.1/../../../../arm-none-eabi/lib/thumb/v7e-m+dp/hard\libc.a(lib_a-strtoull.o)
 .text          0x0803e95c        0x0 c:/program files (x86)/gnu arm embedded toolchain/9 2020-q2-update/bin/../lib/gcc/arm-none-eabi/9.3.1/../../../../arm-none-eabi/lib/thumb/v7e-m+dp/hard\libc.a(lib_a-svfprintf.o)
 .text          0x0803e95c        0x0 c:/program files (x86)/gnu arm embedded toolchain/9 2020-q2-update/bin/../lib/gcc/arm-none-eabi/9.3.1/../../../../arm-none-eabi/lib/thumb/v7e-m+dp/hard\libc.a(lib_a-svfscanf.o)
 .text          0x0803e95c        0x0 c:/program files (x86)/gnu arm embedded toolchain/9 2020-q2-update/bin/../lib/gcc/arm-none-eabi/9.3.1/../../../../arm-none-eabi/lib/thumb/v7e-m+dp/hard\libc.a(lib_a-tolower.o)
 .text          0x0803e95c        0x0 c:/program files (x86)/gnu arm embedded toolchain/9 2020-q2-update/bin/../lib/gcc/arm-none-eabi/9.3.1/../../../../arm-none-eabi/lib/thumb/v7e-m+dp/hard\libc.a(lib_a-tzcalc_limits.o)
 .text          0x0803e95c        0x0 c:/program files (x86)/gnu arm embedded toolchain/9 2020-q2-update/bin/../lib/gcc/arm-none-eabi/9.3.1/../../../../arm-none-eabi/lib/thumb/v7e-m+dp/hard\libc.a(lib_a-tzlock.o)
 .text          0x0803e95c        0x0 c:/program files (x86)/gnu arm embedded toolchain/9 2020-q2-update/bin/../lib/gcc/arm-none-eabi/9.3.1/../../../../arm-none-eabi/lib/thumb/v7e-m+dp/hard\libc.a(lib_a-tzset.o)
 .text          0x0803e95c        0x0 c:/program files (x86)/gnu arm embedded toolchain/9 2020-q2-update/bin/../lib/gcc/arm-none-eabi/9.3.1/../../../../arm-none-eabi/lib/thumb/v7e-m+dp/hard\libc.a(lib_a-tzset_r.o)
 .text          0x0803e95c        0x0 c:/program files (x86)/gnu arm embedded toolchain/9 2020-q2-update/bin/../lib/gcc/arm-none-eabi/9.3.1/../../../../arm-none-eabi/lib/thumb/v7e-m+dp/hard\libc.a(lib_a-tzvars.o)
 .text          0x0803e95c        0x0 c:/program files (x86)/gnu arm embedded toolchain/9 2020-q2-update/bin/../lib/gcc/arm-none-eabi/9.3.1/../../../../arm-none-eabi/lib/thumb/v7e-m+dp/hard\libc.a(lib_a-vfprintf.o)
 .text          0x0803e95c        0x0 c:/program files (x86)/gnu arm embedded toolchain/9 2020-q2-update/bin/../lib/gcc/arm-none-eabi/9.3.1/../../../../arm-none-eabi/lib/thumb/v7e-m+dp/hard\libc.a(lib_a-vsnprintf.o)
 .text          0x0803e95c        0x0 c:/program files (x86)/gnu arm embedded toolchain/9 2020-q2-update/bin/../lib/gcc/arm-none-eabi/9.3.1/../../../../arm-none-eabi/lib/thumb/v7e-m+dp/hard\libc.a(lib_a-writer.o)
 .text          0x0803e95c        0x0 c:/program files (x86)/gnu arm embedded toolchain/9 2020-q2-update/bin/../lib/gcc/arm-none-eabi/9.3.1/../../../../arm-none-eabi/lib/thumb/v7e-m+dp/hard\libc.a(lib_a-wsetup.o)
 .text          0x0803e95c        0x0 c:/program files (x86)/gnu arm embedded toolchain/9 2020-q2-update/bin/../lib/gcc/arm-none-eabi/9.3.1/../../../../arm-none-eabi/lib/thumb/v7e-m+dp/hard\libc.a(lib_a-__atexit.o)
 .text          0x0803e95c        0x0 c:/program files (x86)/gnu arm embedded toolchain/9 2020-q2-update/bin/../lib/gcc/arm-none-eabi/9.3.1/../../../../arm-none-eabi/lib/thumb/v7e-m+dp/hard\libc.a(lib_a-__call_atexit.o)
 .text          0x0803e95c        0x0 c:/program files (x86)/gnu arm embedded toolchain/9 2020-q2-update/bin/../lib/gcc/arm-none-eabi/9.3.1/../../../../arm-none-eabi/lib/thumb/v7e-m+dp/hard\libc.a(lib_a-closer.o)
 .text          0x0803e95c        0x0 c:/program files (x86)/gnu arm embedded toolchain/9 2020-q2-update/bin/../lib/gcc/arm-none-eabi/9.3.1/../../../../arm-none-eabi/lib/thumb/v7e-m+dp/hard\libc.a(lib_a-ctype_.o)
 .text          0x0803e95c        0x0 c:/program files (x86)/gnu arm embedded toolchain/9 2020-q2-update/bin/../lib/gcc/arm-none-eabi/9.3.1/../../../../arm-none-eabi/lib/thumb/v7e-m+dp/hard\libc.a(lib_a-div.o)
 .text          0x0803e95c        0x0 c:/program files (x86)/gnu arm embedded toolchain/9 2020-q2-update/bin/../lib/gcc/arm-none-eabi/9.3.1/../../../../arm-none-eabi/lib/thumb/v7e-m+dp/hard\libc.a(lib_a-dtoa.o)
 .text          0x0803e95c        0x0 c:/program files (x86)/gnu arm embedded toolchain/9 2020-q2-update/bin/../lib/gcc/arm-none-eabi/9.3.1/../../../../arm-none-eabi/lib/thumb/v7e-m+dp/hard\libc.a(lib_a-errno.o)
 .text          0x0803e95c        0x0 c:/program files (x86)/gnu arm embedded toolchain/9 2020-q2-update/bin/../lib/gcc/arm-none-eabi/9.3.1/../../../../arm-none-eabi/lib/thumb/v7e-m+dp/hard\libc.a(lib_a-fflush.o)
 .text          0x0803e95c        0x0 c:/program files (x86)/gnu arm embedded toolchain/9 2020-q2-update/bin/../lib/gcc/arm-none-eabi/9.3.1/../../../../arm-none-eabi/lib/thumb/v7e-m+dp/hard\libc.a(lib_a-findfp.o)
 .text          0x0803e95c        0x0 c:/program files (x86)/gnu arm embedded toolchain/9 2020-q2-update/bin/../lib/gcc/arm-none-eabi/9.3.1/../../../../arm-none-eabi/lib/thumb/v7e-m+dp/hard\libc.a(lib_a-fini.o)
 .text          0x0803e95c        0x0 c:/program files (x86)/gnu arm embedded toolchain/9 2020-q2-update/bin/../lib/gcc/arm-none-eabi/9.3.1/../../../../arm-none-eabi/lib/thumb/v7e-m+dp/hard\libc.a(lib_a-freer.o)
 .text          0x0803e95c        0x0 c:/program files (x86)/gnu arm embedded toolchain/9 2020-q2-update/bin/../lib/gcc/arm-none-eabi/9.3.1/../../../../arm-none-eabi/lib/thumb/v7e-m+dp/hard\libc.a(lib_a-fwalk.o)
 .text          0x0803e95c        0x0 c:/program files (x86)/gnu arm embedded toolchain/9 2020-q2-update/bin/../lib/gcc/arm-none-eabi/9.3.1/../../../../arm-none-eabi/lib/thumb/v7e-m+dp/hard\libc.a(lib_a-gdtoa-gethex.o)
 .text          0x0803e95c        0x0 c:/program files (x86)/gnu arm embedded toolchain/9 2020-q2-update/bin/../lib/gcc/arm-none-eabi/9.3.1/../../../../arm-none-eabi/lib/thumb/v7e-m+dp/hard\libc.a(lib_a-gdtoa-hexnan.o)
 .text          0x0803e95c        0x0 c:/program files (x86)/gnu arm embedded toolchain/9 2020-q2-update/bin/../lib/gcc/arm-none-eabi/9.3.1/../../../../arm-none-eabi/lib/thumb/v7e-m+dp/hard\libc.a(lib_a-getenv_r.o)
 .text          0x0803e95c        0x0 c:/program files (x86)/gnu arm embedded toolchain/9 2020-q2-update/bin/../lib/gcc/arm-none-eabi/9.3.1/../../../../arm-none-eabi/lib/thumb/v7e-m+dp/hard\libc.a(lib_a-gettzinfo.o)
 .text          0x0803e95c        0x0 c:/program files (x86)/gnu arm embedded toolchain/9 2020-q2-update/bin/../lib/gcc/arm-none-eabi/9.3.1/../../../../arm-none-eabi/lib/thumb/v7e-m+dp/hard\libc.a(lib_a-gmtime_r.o)
 .text          0x0803e95c        0x0 c:/program files (x86)/gnu arm embedded toolchain/9 2020-q2-update/bin/../lib/gcc/arm-none-eabi/9.3.1/../../../../arm-none-eabi/lib/thumb/v7e-m+dp/hard\libc.a(lib_a-iswspace.o)
 .text          0x0803e95c        0x0 c:/program files (x86)/gnu arm embedded toolchain/9 2020-q2-update/bin/../lib/gcc/arm-none-eabi/9.3.1/../../../../arm-none-eabi/lib/thumb/v7e-m+dp/hard\libc.a(lib_a-iswspace_l.o)
 .text          0x0803e95c        0x0 c:/program files (x86)/gnu arm embedded toolchain/9 2020-q2-update/bin/../lib/gcc/arm-none-eabi/9.3.1/../../../../arm-none-eabi/lib/thumb/v7e-m+dp/hard\libc.a(lib_a-lnumeric.o)
 .text          0x0803e95c        0x0 c:/program files (x86)/gnu arm embedded toolchain/9 2020-q2-update/bin/../lib/gcc/arm-none-eabi/9.3.1/../../../../arm-none-eabi/lib/thumb/v7e-m+dp/hard\libc.a(lib_a-locale.o)
 .text          0x0803e95c        0x0 c:/program files (x86)/gnu arm embedded toolchain/9 2020-q2-update/bin/../lib/gcc/arm-none-eabi/9.3.1/../../../../arm-none-eabi/lib/thumb/v7e-m+dp/hard\libc.a(lib_a-localeconv.o)
 .text          0x0803e95c        0x0 c:/program files (x86)/gnu arm embedded toolchain/9 2020-q2-update/bin/../lib/gcc/arm-none-eabi/9.3.1/../../../../arm-none-eabi/lib/thumb/v7e-m+dp/hard\libc.a(lib_a-lock.o)
 .text          0x0803e95c        0x0 c:/program files (x86)/gnu arm embedded toolchain/9 2020-q2-update/bin/../lib/gcc/arm-none-eabi/9.3.1/../../../../arm-none-eabi/lib/thumb/v7e-m+dp/hard\libc.a(lib_a-lseekr.o)
 .text          0x0803e95c        0x0 c:/program files (x86)/gnu arm embedded toolchain/9 2020-q2-update/bin/../lib/gcc/arm-none-eabi/9.3.1/../../../../arm-none-eabi/lib/thumb/v7e-m+dp/hard\libc.a(lib_a-makebuf.o)
 .text          0x0803e95c        0x0 c:/program files (x86)/gnu arm embedded toolchain/9 2020-q2-update/bin/../lib/gcc/arm-none-eabi/9.3.1/../../../../arm-none-eabi/lib/thumb/v7e-m+dp/hard\libc.a(lib_a-malloc.o)
 .text          0x0803e95c        0x0 c:/program files (x86)/gnu arm embedded toolchain/9 2020-q2-update/bin/../lib/gcc/arm-none-eabi/9.3.1/../../../../arm-none-eabi/lib/thumb/v7e-m+dp/hard\libc.a(lib_a-mallocr.o)
 .text          0x0803e95c        0x0 c:/program files (x86)/gnu arm embedded toolchain/9 2020-q2-update/bin/../lib/gcc/arm-none-eabi/9.3.1/../../../../arm-none-eabi/lib/thumb/v7e-m+dp/hard\libc.a(lib_a-mbrtowc.o)
 .text          0x0803e95c        0x0 c:/program files (x86)/gnu arm embedded toolchain/9 2020-q2-update/bin/../lib/gcc/arm-none-eabi/9.3.1/../../../../arm-none-eabi/lib/thumb/v7e-m+dp/hard\libc.a(lib_a-mbtowc_r.o)
 *fill*         0x0803e95c        0x4 
 .text          0x0803e960       0xa0 c:/program files (x86)/gnu arm embedded toolchain/9 2020-q2-update/bin/../lib/gcc/arm-none-eabi/9.3.1/../../../../arm-none-eabi/lib/thumb/v7e-m+dp/hard\libc.a(lib_a-memchr.o)
                0x0803e960                memchr
 .text          0x0803ea00        0x0 c:/program files (x86)/gnu arm embedded toolchain/9 2020-q2-update/bin/../lib/gcc/arm-none-eabi/9.3.1/../../../../arm-none-eabi/lib/thumb/v7e-m+dp/hard\libc.a(lib_a-mlock.o)
 .text          0x0803ea00        0x0 c:/program files (x86)/gnu arm embedded toolchain/9 2020-q2-update/bin/../lib/gcc/arm-none-eabi/9.3.1/../../../../arm-none-eabi/lib/thumb/v7e-m+dp/hard\libc.a(lib_a-mprec.o)
 .text          0x0803ea00        0x0 c:/program files (x86)/gnu arm embedded toolchain/9 2020-q2-update/bin/../lib/gcc/arm-none-eabi/9.3.1/../../../../arm-none-eabi/lib/thumb/v7e-m+dp/hard\libc.a(lib_a-readr.o)
 .text          0x0803ea00        0x0 c:/program files (x86)/gnu arm embedded toolchain/9 2020-q2-update/bin/../lib/gcc/arm-none-eabi/9.3.1/../../../../arm-none-eabi/lib/thumb/v7e-m+dp/hard\libc.a(lib_a-realloc.o)
 .text          0x0803ea00        0x0 c:/program files (x86)/gnu arm embedded toolchain/9 2020-q2-update/bin/../lib/gcc/arm-none-eabi/9.3.1/../../../../arm-none-eabi/lib/thumb/v7e-m+dp/hard\libc.a(lib_a-reallocr.o)
 .text          0x0803ea00        0x0 c:/program files (x86)/gnu arm embedded toolchain/9 2020-q2-update/bin/../lib/gcc/arm-none-eabi/9.3.1/../../../../arm-none-eabi/lib/thumb/v7e-m+dp/hard\libc.a(lib_a-reent.o)
 .text          0x0803ea00        0x0 c:/program files (x86)/gnu arm embedded toolchain/9 2020-q2-update/bin/../lib/gcc/arm-none-eabi/9.3.1/../../../../arm-none-eabi/lib/thumb/v7e-m+dp/hard\libc.a(lib_a-s_frexp.o)
 .text          0x0803ea00        0x0 c:/program files (x86)/gnu arm embedded toolchain/9 2020-q2-update/bin/../lib/gcc/arm-none-eabi/9.3.1/../../../../arm-none-eabi/lib/thumb/v7e-m+dp/hard\libc.a(lib_a-sbrkr.o)
 .text          0x0803ea00        0x0 c:/program files (x86)/gnu arm embedded toolchain/9 2020-q2-update/bin/../lib/gcc/arm-none-eabi/9.3.1/../../../../arm-none-eabi/lib/thumb/v7e-m+dp/hard\libc.a(lib_a-sccl.o)
 .text          0x0803ea00        0x0 c:/program files (x86)/gnu arm embedded toolchain/9 2020-q2-update/bin/../lib/gcc/arm-none-eabi/9.3.1/../../../../arm-none-eabi/lib/thumb/v7e-m+dp/hard\libc.a(lib_a-sf_nan.o)
 .text          0x0803ea00        0x0 c:/program files (x86)/gnu arm embedded toolchain/9 2020-q2-update/bin/../lib/gcc/arm-none-eabi/9.3.1/../../../../arm-none-eabi/lib/thumb/v7e-m+dp/hard\libc.a(lib_a-siscanf.o)
 .text          0x0803ea00        0x0 c:/program files (x86)/gnu arm embedded toolchain/9 2020-q2-update/bin/../lib/gcc/arm-none-eabi/9.3.1/../../../../arm-none-eabi/lib/thumb/v7e-m+dp/hard\libc.a(lib_a-strtoll.o)
 .text          0x0803ea00        0x0 c:/program files (x86)/gnu arm embedded toolchain/9 2020-q2-update/bin/../lib/gcc/arm-none-eabi/9.3.1/../../../../arm-none-eabi/lib/thumb/v7e-m+dp/hard\libc.a(lib_a-svfiprintf.o)
 .text          0x0803ea00        0x0 c:/program files (x86)/gnu arm embedded toolchain/9 2020-q2-update/bin/../lib/gcc/arm-none-eabi/9.3.1/../../../../arm-none-eabi/lib/thumb/v7e-m+dp/hard\libc.a(lib_a-svfiscanf.o)
 .text          0x0803ea00        0x0 c:/program files (x86)/gnu arm embedded toolchain/9 2020-q2-update/bin/../lib/gcc/arm-none-eabi/9.3.1/../../../../arm-none-eabi/lib/thumb/v7e-m+dp/hard\libc.a(lib_a-ungetc.o)
 .text          0x0803ea00        0x0 c:/program files (x86)/gnu arm embedded toolchain/9 2020-q2-update/bin/../lib/gcc/arm-none-eabi/9.3.1/../../../../arm-none-eabi/lib/thumb/v7e-m+dp/hard\libc.a(lib_a-vfiprintf.o)
 .text          0x0803ea00        0x0 c:/program files (x86)/gnu arm embedded toolchain/9 2020-q2-update/bin/../lib/gcc/arm-none-eabi/9.3.1/../../../../arm-none-eabi/lib/thumb/v7e-m+dp/hard\libc.a(lib_a-wctomb_r.o)
 .text          0x0803ea00        0x0 c:/program files (x86)/gnu arm embedded toolchain/9 2020-q2-update/bin/../lib/gcc/arm-none-eabi/9.3.1/../../../../arm-none-eabi/lib/thumb/v7e-m+dp/hard\libc.a(lib_a-assert.o)
 .text          0x0803ea00        0x0 c:/program files (x86)/gnu arm embedded toolchain/9 2020-q2-update/bin/../lib/gcc/arm-none-eabi/9.3.1/../../../../arm-none-eabi/lib/thumb/v7e-m+dp/hard\libc.a(lib_a-callocr.o)
 .text          0x0803ea00        0x0 c:/program files (x86)/gnu arm embedded toolchain/9 2020-q2-update/bin/../lib/gcc/arm-none-eabi/9.3.1/../../../../arm-none-eabi/lib/thumb/v7e-m+dp/hard\libc.a(lib_a-environ.o)
 .text          0x0803ea00        0x0 c:/program files (x86)/gnu arm embedded toolchain/9 2020-q2-update/bin/../lib/gcc/arm-none-eabi/9.3.1/../../../../arm-none-eabi/lib/thumb/v7e-m+dp/hard\libc.a(lib_a-envlock.o)
 .text          0x0803ea00        0x0 c:/program files (x86)/gnu arm embedded toolchain/9 2020-q2-update/bin/../lib/gcc/arm-none-eabi/9.3.1/../../../../arm-none-eabi/lib/thumb/v7e-m+dp/hard\libc.a(lib_a-fclose.o)
 .text          0x0803ea00        0x0 c:/program files (x86)/gnu arm embedded toolchain/9 2020-q2-update/bin/../lib/gcc/arm-none-eabi/9.3.1/../../../../arm-none-eabi/lib/thumb/v7e-m+dp/hard\libc.a(lib_a-fiprintf.o)
 .text          0x0803ea00        0x0 c:/program files (x86)/gnu arm embedded toolchain/9 2020-q2-update/bin/../lib/gcc/arm-none-eabi/9.3.1/../../../../arm-none-eabi/lib/thumb/v7e-m+dp/hard\libc.a(lib_a-fputwc.o)
 .text          0x0803ea00        0x0 c:/program files (x86)/gnu arm embedded toolchain/9 2020-q2-update/bin/../lib/gcc/arm-none-eabi/9.3.1/../../../../arm-none-eabi/lib/thumb/v7e-m+dp/hard\libc.a(lib_a-fstatr.o)
 .text          0x0803ea00        0x0 c:/program files (x86)/gnu arm embedded toolchain/9 2020-q2-update/bin/../lib/gcc/arm-none-eabi/9.3.1/../../../../arm-none-eabi/lib/thumb/v7e-m+dp/hard\libc.a(lib_a-fvwrite.o)
 .text          0x0803ea00        0x0 c:/program files (x86)/gnu arm embedded toolchain/9 2020-q2-update/bin/../lib/gcc/arm-none-eabi/9.3.1/../../../../arm-none-eabi/lib/thumb/v7e-m+dp/hard\libc.a(lib_a-isattyr.o)
 .text          0x0803ea00        0x0 c:/program files (x86)/gnu arm embedded toolchain/9 2020-q2-update/bin/../lib/gcc/arm-none-eabi/9.3.1/../../../../arm-none-eabi/lib/thumb/v7e-m+dp/hard\libc.a(lib_a-wbuf.o)
 .text          0x0803ea00        0x0 c:/program files (x86)/gnu arm embedded toolchain/9 2020-q2-update/bin/../lib/gcc/arm-none-eabi/9.3.1/../../../../arm-none-eabi/lib/thumb/v7e-m+dp/hard\libc.a(lib_a-wcrtomb.o)
 .text          0x0803ea00        0x0 c:/program files (x86)/gnu arm embedded toolchain/9 2020-q2-update/bin/../lib/gcc/arm-none-eabi/9.3.1/../../../../arm-none-eabi/lib/thumb/v7e-m+dp/hard\libc.a(lib_a-abort.o)
 .text          0x0803ea00        0x0 c:/program files (x86)/gnu arm embedded toolchain/9 2020-q2-update/bin/../lib/gcc/arm-none-eabi/9.3.1/../../../../arm-none-eabi/lib/thumb/v7e-m+dp/hard\libc.a(lib_a-signal.o)
 .text          0x0803ea00        0x0 c:/program files (x86)/gnu arm embedded toolchain/9 2020-q2-update/bin/../lib/gcc/arm-none-eabi/9.3.1/../../../../arm-none-eabi/lib/thumb/v7e-m+dp/hard\libc.a(lib_a-signalr.o)
 .text          0x0803ea00        0x0 c:/program files (x86)/gnu arm embedded toolchain/9 2020-q2-update/bin/../lib/gcc/arm-none-eabi/9.3.1/../../../../arm-none-eabi/lib/thumb/v7e-m+dp/hard\libnosys.a(close.o)
 .text          0x0803ea00        0x0 c:/program files (x86)/gnu arm embedded toolchain/9 2020-q2-update/bin/../lib/gcc/arm-none-eabi/9.3.1/../../../../arm-none-eabi/lib/thumb/v7e-m+dp/hard\libnosys.a(fstat.o)
 .text          0x0803ea00        0x0 c:/program files (x86)/gnu arm embedded toolchain/9 2020-q2-update/bin/../lib/gcc/arm-none-eabi/9.3.1/../../../../arm-none-eabi/lib/thumb/v7e-m+dp/hard\libnosys.a(getpid.o)
 .text          0x0803ea00        0x0 c:/program files (x86)/gnu arm embedded toolchain/9 2020-q2-update/bin/../lib/gcc/arm-none-eabi/9.3.1/../../../../arm-none-eabi/lib/thumb/v7e-m+dp/hard\libnosys.a(isatty.o)
 .text          0x0803ea00        0x0 c:/program files (x86)/gnu arm embedded toolchain/9 2020-q2-update/bin/../lib/gcc/arm-none-eabi/9.3.1/../../../../arm-none-eabi/lib/thumb/v7e-m+dp/hard\libnosys.a(kill.o)
 .text          0x0803ea00        0x0 c:/program files (x86)/gnu arm embedded toolchain/9 2020-q2-update/bin/../lib/gcc/arm-none-eabi/9.3.1/../../../../arm-none-eabi/lib/thumb/v7e-m+dp/hard\libnosys.a(lseek.o)
 .text          0x0803ea00        0x0 c:/program files (x86)/gnu arm embedded toolchain/9 2020-q2-update/bin/../lib/gcc/arm-none-eabi/9.3.1/../../../../arm-none-eabi/lib/thumb/v7e-m+dp/hard\libnosys.a(read.o)
 .text          0x0803ea00        0x0 c:/program files (x86)/gnu arm embedded toolchain/9 2020-q2-update/bin/../lib/gcc/arm-none-eabi/9.3.1/../../../../arm-none-eabi/lib/thumb/v7e-m+dp/hard\libnosys.a(sbrk.o)
 .text          0x0803ea00        0x0 c:/program files (x86)/gnu arm embedded toolchain/9 2020-q2-update/bin/../lib/gcc/arm-none-eabi/9.3.1/../../../../arm-none-eabi/lib/thumb/v7e-m+dp/hard\libnosys.a(write.o)
 .text          0x0803ea00        0x0 c:/program files (x86)/gnu arm embedded toolchain/9 2020-q2-update/bin/../lib/gcc/arm-none-eabi/9.3.1/../../../../arm-none-eabi/lib/thumb/v7e-m+dp/hard\libnosys.a(_exit.o)
 .text          0x0803ea00        0x0 c:/program files (x86)/gnu arm embedded toolchain/9 2020-q2-update/bin/../lib/gcc/arm-none-eabi/9.3.1/thumb/v7e-m+dp/hard/crtend.o
 .text          0x0803ea00        0x0 c:/program files (x86)/gnu arm embedded toolchain/9 2020-q2-update/bin/../lib/gcc/arm-none-eabi/9.3.1/thumb/v7e-m+dp/hard/crtn.o
 .text          0x0803ea00        0x0 c:/program files (x86)/gnu arm embedded toolchain/9 2020-q2-update/bin/../lib/gcc/arm-none-eabi/9.3.1/../../../../arm-none-eabi/lib/thumb/v7e-m+dp/hard\libm.a(lib_a-exp.o)
 .text          0x0803ea00        0x0 c:/program files (x86)/gnu arm embedded toolchain/9 2020-q2-update/bin/../lib/gcc/arm-none-eabi/9.3.1/../../../../arm-none-eabi/lib/thumb/v7e-m+dp/hard\libm.a(lib_a-exp_data.o)
 .text          0x0803ea00        0x0 c:/program files (x86)/gnu arm embedded toolchain/9 2020-q2-update/bin/../lib/gcc/arm-none-eabi/9.3.1/../../../../arm-none-eabi/lib/thumb/v7e-m+dp/hard\libm.a(lib_a-math_err.o)
 .text          0x0803ea00        0x0 c:/program files (x86)/gnu arm embedded toolchain/9 2020-q2-update/bin/../lib/gcc/arm-none-eabi/9.3.1/../../../../arm-none-eabi/lib/thumb/v7e-m+dp/hard\libm.a(lib_a-pow.o)
 .text          0x0803ea00        0x0 c:/program files (x86)/gnu arm embedded toolchain/9 2020-q2-update/bin/../lib/gcc/arm-none-eabi/9.3.1/../../../../arm-none-eabi/lib/thumb/v7e-m+dp/hard\libm.a(lib_a-pow_log_data.o)
 .text          0x0803ea00        0x0 c:/program files (x86)/gnu arm embedded toolchain/9 2020-q2-update/bin/../lib/gcc/arm-none-eabi/9.3.1/../../../../arm-none-eabi/lib/thumb/v7e-m+dp/hard\libm.a(lib_a-s_atan.o)
 .text          0x0803ea00        0x0 c:/program files (x86)/gnu arm embedded toolchain/9 2020-q2-update/bin/../lib/gcc/arm-none-eabi/9.3.1/../../../../arm-none-eabi/lib/thumb/v7e-m+dp/hard\libm.a(lib_a-s_cos.o)
 .text          0x0803ea00        0x0 c:/program files (x86)/gnu arm embedded toolchain/9 2020-q2-update/bin/../lib/gcc/arm-none-eabi/9.3.1/../../../../arm-none-eabi/lib/thumb/v7e-m+dp/hard\libm.a(lib_a-s_fabs.o)
 .text          0x0803ea00        0x0 c:/program files (x86)/gnu arm embedded toolchain/9 2020-q2-update/bin/../lib/gcc/arm-none-eabi/9.3.1/../../../../arm-none-eabi/lib/thumb/v7e-m+dp/hard\libm.a(lib_a-s_floor.o)
 .text          0x0803ea00        0x0 c:/program files (x86)/gnu arm embedded toolchain/9 2020-q2-update/bin/../lib/gcc/arm-none-eabi/9.3.1/../../../../arm-none-eabi/lib/thumb/v7e-m+dp/hard\libm.a(lib_a-s_round.o)
 .text          0x0803ea00        0x0 c:/program files (x86)/gnu arm embedded toolchain/9 2020-q2-update/bin/../lib/gcc/arm-none-eabi/9.3.1/../../../../arm-none-eabi/lib/thumb/v7e-m+dp/hard\libm.a(lib_a-s_sin.o)
 .text          0x0803ea00        0x0 c:/program files (x86)/gnu arm embedded toolchain/9 2020-q2-update/bin/../lib/gcc/arm-none-eabi/9.3.1/../../../../arm-none-eabi/lib/thumb/v7e-m+dp/hard\libm.a(lib_a-s_tan.o)
 .text          0x0803ea00        0x0 c:/program files (x86)/gnu arm embedded toolchain/9 2020-q2-update/bin/../lib/gcc/arm-none-eabi/9.3.1/../../../../arm-none-eabi/lib/thumb/v7e-m+dp/hard\libm.a(lib_a-w_acos.o)
 .text          0x0803ea00        0x0 c:/program files (x86)/gnu arm embedded toolchain/9 2020-q2-update/bin/../lib/gcc/arm-none-eabi/9.3.1/../../../../arm-none-eabi/lib/thumb/v7e-m+dp/hard\libm.a(lib_a-w_asin.o)
 .text          0x0803ea00        0x0 c:/program files (x86)/gnu arm embedded toolchain/9 2020-q2-update/bin/../lib/gcc/arm-none-eabi/9.3.1/../../../../arm-none-eabi/lib/thumb/v7e-m+dp/hard\libm.a(lib_a-w_atan2.o)
 .text          0x0803ea00        0x0 c:/program files (x86)/gnu arm embedded toolchain/9 2020-q2-update/bin/../lib/gcc/arm-none-eabi/9.3.1/../../../../arm-none-eabi/lib/thumb/v7e-m+dp/hard\libm.a(lib_a-w_fmod.o)
 .text          0x0803ea00        0x0 c:/program files (x86)/gnu arm embedded toolchain/9 2020-q2-update/bin/../lib/gcc/arm-none-eabi/9.3.1/../../../../arm-none-eabi/lib/thumb/v7e-m+dp/hard\libm.a(lib_a-w_sqrt.o)
 .text          0x0803ea00        0x0 c:/program files (x86)/gnu arm embedded toolchain/9 2020-q2-update/bin/../lib/gcc/arm-none-eabi/9.3.1/../../../../arm-none-eabi/lib/thumb/v7e-m+dp/hard\libm.a(lib_a-wf_sqrt.o)
 .text          0x0803ea00        0x0 c:/program files (x86)/gnu arm embedded toolchain/9 2020-q2-update/bin/../lib/gcc/arm-none-eabi/9.3.1/../../../../arm-none-eabi/lib/thumb/v7e-m+dp/hard\libm.a(lib_a-e_acos.o)
 .text          0x0803ea00        0x0 c:/program files (x86)/gnu arm embedded toolchain/9 2020-q2-update/bin/../lib/gcc/arm-none-eabi/9.3.1/../../../../arm-none-eabi/lib/thumb/v7e-m+dp/hard\libm.a(lib_a-e_asin.o)
 .text          0x0803ea00        0x0 c:/program files (x86)/gnu arm embedded toolchain/9 2020-q2-update/bin/../lib/gcc/arm-none-eabi/9.3.1/../../../../arm-none-eabi/lib/thumb/v7e-m+dp/hard\libm.a(lib_a-e_atan2.o)
 .text          0x0803ea00        0x0 c:/program files (x86)/gnu arm embedded toolchain/9 2020-q2-update/bin/../lib/gcc/arm-none-eabi/9.3.1/../../../../arm-none-eabi/lib/thumb/v7e-m+dp/hard\libm.a(lib_a-e_fmod.o)
 .text          0x0803ea00        0x0 c:/program files (x86)/gnu arm embedded toolchain/9 2020-q2-update/bin/../lib/gcc/arm-none-eabi/9.3.1/../../../../arm-none-eabi/lib/thumb/v7e-m+dp/hard\libm.a(lib_a-e_rem_pio2.o)
 .text          0x0803ea00        0x0 c:/program files (x86)/gnu arm embedded toolchain/9 2020-q2-update/bin/../lib/gcc/arm-none-eabi/9.3.1/../../../../arm-none-eabi/lib/thumb/v7e-m+dp/hard\libm.a(lib_a-e_sqrt.o)
 .text          0x0803ea00        0x0 c:/program files (x86)/gnu arm embedded toolchain/9 2020-q2-update/bin/../lib/gcc/arm-none-eabi/9.3.1/../../../../arm-none-eabi/lib/thumb/v7e-m+dp/hard\libm.a(lib_a-ef_sqrt.o)
 .text          0x0803ea00        0x0 c:/program files (x86)/gnu arm embedded toolchain/9 2020-q2-update/bin/../lib/gcc/arm-none-eabi/9.3.1/../../../../arm-none-eabi/lib/thumb/v7e-m+dp/hard\libm.a(lib_a-k_cos.o)
 .text          0x0803ea00        0x0 c:/program files (x86)/gnu arm embedded toolchain/9 2020-q2-update/bin/../lib/gcc/arm-none-eabi/9.3.1/../../../../arm-none-eabi/lib/thumb/v7e-m+dp/hard\libm.a(lib_a-k_rem_pio2.o)
 .text          0x0803ea00        0x0 c:/program files (x86)/gnu arm embedded toolchain/9 2020-q2-update/bin/../lib/gcc/arm-none-eabi/9.3.1/../../../../arm-none-eabi/lib/thumb/v7e-m+dp/hard\libm.a(lib_a-k_sin.o)
 .text          0x0803ea00        0x0 c:/program files (x86)/gnu arm embedded toolchain/9 2020-q2-update/bin/../lib/gcc/arm-none-eabi/9.3.1/../../../../arm-none-eabi/lib/thumb/v7e-m+dp/hard\libm.a(lib_a-k_tan.o)
 .text          0x0803ea00        0x0 c:/program files (x86)/gnu arm embedded toolchain/9 2020-q2-update/bin/../lib/gcc/arm-none-eabi/9.3.1/../../../../arm-none-eabi/lib/thumb/v7e-m+dp/hard\libm.a(lib_a-s_lib_ver.o)
 .text          0x0803ea00        0x0 c:/program files (x86)/gnu arm embedded toolchain/9 2020-q2-update/bin/../lib/gcc/arm-none-eabi/9.3.1/../../../../arm-none-eabi/lib/thumb/v7e-m+dp/hard\libm.a(lib_a-s_scalbn.o)
 *(.text*)
 .text._ZN20TimeSyncRtcCallbacksD2Ev
                0x0803ea00        0x2 ./fcapplication/mainofapplication.o
                0x0803ea00                TimeSyncRtcCallbacks::~TimeSyncRtcCallbacks()
                0x0803ea00                TimeSyncRtcCallbacks::~TimeSyncRtcCallbacks()
 .text._ZN20TimeSyncRtcCallbacks12getTimestampEv
                0x0803ea02       0x14 ./fcapplication/mainofapplication.o
                0x0803ea02                TimeSyncRtcCallbacks::getTimestamp()
 .text._ZN20TimeSyncRtcCallbacks14getPreciseTimeERmS0_
                0x0803ea16       0x18 ./fcapplication/mainofapplication.o
                0x0803ea16                TimeSyncRtcCallbacks::getPreciseTime(unsigned long&, unsigned long&)
 .text._ZN20TimeSyncRtcCallbacks14getLastPpsTimeERmS0_
                0x0803ea2e       0x18 ./fcapplication/mainofapplication.o
                0x0803ea2e                TimeSyncRtcCallbacks::getLastPpsTime(unsigned long&, unsigned long&)
 .text._ZN20TimeSyncRtcCallbacks21resetRtcSyncedWithPPSEv
                0x0803ea46        0xe ./fcapplication/mainofapplication.o
                0x0803ea46                TimeSyncRtcCallbacks::resetRtcSyncedWithPPS()
 .text._ZN20TimeSyncRtcCallbacks18isRtcSyncedWithPPSEv
                0x0803ea54        0xe ./fcapplication/mainofapplication.o
                0x0803ea54                TimeSyncRtcCallbacks::isRtcSyncedWithPPS()
 .text._ZN20TimeSyncRtcCallbacks12setTimestampEm
                0x0803ea62       0x1e ./fcapplication/mainofapplication.o
                0x0803ea62                TimeSyncRtcCallbacks::setTimestamp(unsigned long)
 .text._ZN20TimeSyncRtcCallbacksD0Ev
                0x0803ea80        0xe ./fcapplication/mainofapplication.o
                0x0803ea80                TimeSyncRtcCallbacks::~TimeSyncRtcCallbacks()
 *fill*         0x0803ea8e        0x2 
 .text._ZN38CKalman_StarTracker_IMUMultimeasBiasedD2Ev
                0x0803ea90       0x14 ./fcapplication/mainofapplication.o
                0x0803ea90                CKalman_StarTracker_IMUMultimeasBiased::~CKalman_StarTracker_IMUMultimeasBiased()
                0x0803ea90                CKalman_StarTracker_IMUMultimeasBiased::~CKalman_StarTracker_IMUMultimeasBiased()
 .text._ZN38CKalman_StarTracker_IMUMultimeasBiasedD0Ev
                0x0803eaa4       0x16 ./fcapplication/mainofapplication.o
                0x0803eaa4                CKalman_StarTracker_IMUMultimeasBiased::~CKalman_StarTracker_IMUMultimeasBiased()
 *fill*         0x0803eaba        0x2 
 .text._ZN22CKalman_Sun_3gyro_3MagD2Ev
                0x0803eabc       0x14 ./fcapplication/mainofapplication.o
                0x0803eabc                CKalman_Sun_3gyro_3Mag::~CKalman_Sun_3gyro_3Mag()
                0x0803eabc                CKalman_Sun_3gyro_3Mag::~CKalman_Sun_3gyro_3Mag()
 .text._ZN22CKalman_Sun_3gyro_3MagD0Ev
                0x0803ead0       0x16 ./fcapplication/mainofapplication.o
                0x0803ead0                CKalman_Sun_3gyro_3Mag::~CKalman_Sun_3gyro_3Mag()
 *fill*         0x0803eae6        0x2 
 .text.startup  0x0803eae8      0x188 ./fcapplication/mainofapplication.o
                0x0803eae8                main
 .text._ZN6Config3getIN13configHandler10PropertyIdEhEENS_9ErrorCodeET_RT0_
                0x0803ec70       0x80 ./fcapplication/mainofapplication.o
                0x0803ec70                Config::ErrorCode Config::get<configHandler::PropertyId, unsigned char>(configHandler::PropertyId, unsigned char&)
 .text._ZN6Config3getIN13configHandler10PropertyIdEmEENS_9ErrorCodeET_RT0_
                0x0803ecf0       0x82 ./fcapplication/mainofapplication.o
                0x0803ecf0                Config::ErrorCode Config::get<configHandler::PropertyId, unsigned long>(configHandler::PropertyId, unsigned long&)
 *fill*         0x0803ed72        0x2 
 .text.exit     0x0803ed74       0x3c ./fcapplication/mainofapplication.o
 .text._ZN16TelemetryService12getReplyDataIN14telemetryTypes16StartupTelemetryEXadL_ZN16telemetryHandler7collectERS2_EEEEtPht
                0x0803edb0       0x12 ./fcapplication/csphandler.o
                0x0803edb0                unsigned short TelemetryService::getReplyData<telemetryTypes::StartupTelemetry, &telemetryHandler::collect>(unsigned char*, unsigned short)
 .text._ZN16TelemetryService12getReplyDataIN14telemetryTypes16GeneralTelemetryEXadL_ZN16telemetryHandler7collectERS2_EEEEtPht
                0x0803edc2       0x12 ./fcapplication/csphandler.o
                0x0803edc2                unsigned short TelemetryService::getReplyData<telemetryTypes::GeneralTelemetry, &telemetryHandler::collect>(unsigned char*, unsigned short)
 .text.startup  0x0803edd4       0x9c ./fcapplication/csphandler.o
 .text.exit     0x0803ee70       0x2c ./fcapplication/csphandler.o
 .text.startup  0x0803ee9c       0x28 ./fcapplication/commands.o
 .text.exit     0x0803eec4       0x1c ./fcapplication/commands.o
 .text.startup  0x0803eee0       0x10 ./fcapplication/cmdi2c.o
 .text.exit     0x0803eef0        0xc ./fcapplication/cmdi2c.o
 .text._ZN16FramPinControl_1D2Ev
                0x0803eefc        0x2 ./fcapplication/cmdframcy15b104q.o
                0x0803eefc                FramPinControl_1::~FramPinControl_1()
                0x0803eefc                FramPinControl_1::~FramPinControl_1()
 .text._ZN16FramPinControl_2D2Ev
                0x0803eefe        0x2 ./fcapplication/cmdframcy15b104q.o
                0x0803eefe                FramPinControl_2::~FramPinControl_2()
                0x0803eefe                FramPinControl_2::~FramPinControl_2()
 .text._ZN16FramPinControl_27setHoldEv
                0x0803ef00       0x10 ./fcapplication/cmdframcy15b104q.o
                0x0803ef00                FramPinControl_2::setHold()
 .text._ZN16FramPinControl_28deselectEv
                0x0803ef10       0x10 ./fcapplication/cmdframcy15b104q.o
                0x0803ef10                FramPinControl_2::deselect()
 .text._ZN16FramPinControl_26selectEv
                0x0803ef20       0x10 ./fcapplication/cmdframcy15b104q.o
                0x0803ef20                FramPinControl_2::select()
 .text._ZN16FramPinControl_17setHoldEv
                0x0803ef30       0x10 ./fcapplication/cmdframcy15b104q.o
                0x0803ef30                FramPinControl_1::setHold()
 .text._ZN16FramPinControl_18deselectEv
                0x0803ef40       0x10 ./fcapplication/cmdframcy15b104q.o
                0x0803ef40                FramPinControl_1::deselect()
 .text._ZN16FramPinControl_16selectEv
                0x0803ef50       0x10 ./fcapplication/cmdframcy15b104q.o
                0x0803ef50                FramPinControl_1::select()
 .text._ZN16FramPinControl_2D0Ev
                0x0803ef60        0xe ./fcapplication/cmdframcy15b104q.o
                0x0803ef60                FramPinControl_2::~FramPinControl_2()
 .text._ZN16FramPinControl_1D0Ev
                0x0803ef6e        0xe ./fcapplication/cmdframcy15b104q.o
                0x0803ef6e                FramPinControl_1::~FramPinControl_1()
 .text.startup  0x0803ef7c       0x40 ./fcapplication/cmdframcy15b104q.o
 .text.exit     0x0803efbc       0x24 ./fcapplication/cmdframcy15b104q.o
 .text.startup  0x0803efe0      0x108 ./fcapplication/peripheralapps.o
 .text.exit     0x0803f0e8       0x9c ./fcapplication/peripheralapps.o
 .text._ZN32ConfigStorageCallbacksFileSystemD2Ev
                0x0803f184        0x2 ./fcapplication/confighandler.o
                0x0803f184                ConfigStorageCallbacksFileSystem::~ConfigStorageCallbacksFileSystem()
                0x0803f184                ConfigStorageCallbacksFileSystem::~ConfigStorageCallbacksFileSystem()
 .text._ZN16MyEventCallbacksD2Ev
                0x0803f186        0x2 ./fcapplication/confighandler.o
                0x0803f186                MyEventCallbacks::~MyEventCallbacks()
                0x0803f186                MyEventCallbacks::~MyEventCallbacks()
 .text._ZN16MyEventCallbacks16onPropertyChangeEt
                0x0803f188        0x2 ./fcapplication/confighandler.o
                0x0803f188                MyEventCallbacks::onPropertyChange(unsigned short)
 .text._ZN16MyEventCallbacks6onSaveEb
                0x0803f18a        0x2 ./fcapplication/confighandler.o
                0x0803f18a                MyEventCallbacks::onSave(bool)
 .text._ZN15ConfigPropDescr14validateMinMaxIhLh1ELh15EEEbPKht
                0x0803f18c       0x18 ./fcapplication/confighandler.o
                0x0803f18c                bool ConfigPropDescr::validateMinMax<unsigned char, (unsigned char)1, (unsigned char)15>(unsigned char const*, unsigned short)
 .text._ZN15ConfigPropDescr13validateEqualIhLh0ELh1EEEbPKht
                0x0803f1a4       0x16 ./fcapplication/confighandler.o
                0x0803f1a4                bool ConfigPropDescr::validateEqual<unsigned char, (unsigned char)0, (unsigned char)1>(unsigned char const*, unsigned short)
 .text._ZN15ConfigPropDescr13validateEqualIhLh18ELh19EEEbPKht
                0x0803f1ba       0x18 ./fcapplication/confighandler.o
                0x0803f1ba                bool ConfigPropDescr::validateEqual<unsigned char, (unsigned char)18, (unsigned char)19>(unsigned char const*, unsigned short)
 .text._ZN15ConfigPropDescr13validateEqualIhLh20ELh21ELh22EEEbPKht
                0x0803f1d2       0x18 ./fcapplication/confighandler.o
                0x0803f1d2                bool ConfigPropDescr::validateEqual<unsigned char, (unsigned char)20, (unsigned char)21, (unsigned char)22>(unsigned char const*, unsigned short)
 .text._ZN15ConfigPropDescr14validateMinMaxIhLh1ELh31EEEbPKht
                0x0803f1ea       0x18 ./fcapplication/confighandler.o
                0x0803f1ea                bool ConfigPropDescr::validateMinMax<unsigned char, (unsigned char)1, (unsigned char)31>(unsigned char const*, unsigned short)
 .text._ZN15ConfigPropDescr27validateMinMaxWithExceptionImLm5000ELm4294967295ELm0EEEbPKht
                0x0803f202       0x1c ./fcapplication/confighandler.o
                0x0803f202                bool ConfigPropDescr::validateMinMaxWithException<unsigned long, 5000ul, 4294967295ul, 0ul>(unsigned char const*, unsigned short)
 .text._ZN15ConfigPropDescr27validateMinMaxWithExceptionImLm500ELm4294967295ELm0EEEbPKht
                0x0803f21e       0x1a ./fcapplication/confighandler.o
                0x0803f21e                bool ConfigPropDescr::validateMinMaxWithException<unsigned long, 500ul, 4294967295ul, 0ul>(unsigned char const*, unsigned short)
 .text._ZN16MyEventCallbacksD0Ev
                0x0803f238        0xe ./fcapplication/confighandler.o
                0x0803f238                MyEventCallbacks::~MyEventCallbacks()
 .text._ZN32ConfigStorageCallbacksFileSystemD0Ev
                0x0803f246        0xe ./fcapplication/confighandler.o
                0x0803f246                ConfigStorageCallbacksFileSystem::~ConfigStorageCallbacksFileSystem()
 .text._ZN32ConfigStorageCallbacksFileSystem14savePropertiesEPK15ConfigPropDescrtPKhtb
                0x0803f254       0xc0 ./fcapplication/confighandler.o
                0x0803f254                ConfigStorageCallbacksFileSystem::saveProperties(ConfigPropDescr const*, unsigned short, unsigned char const*, unsigned short, bool)
 .text._ZN32ConfigStorageCallbacksFileSystem14loadPropertiesEPK15ConfigPropDescrtPhtb
                0x0803f314       0xc6 ./fcapplication/confighandler.o
                0x0803f314                ConfigStorageCallbacksFileSystem::loadProperties(ConfigPropDescr const*, unsigned short, unsigned char*, unsigned short, bool)
 *fill*         0x0803f3da        0x2 
 .text.startup  0x0803f3dc       0x78 ./fcapplication/confighandler.o
 .text.exit     0x0803f454        0xc ./fcapplication/confighandler.o
 .text.startup  0x0803f460       0x10 ./fcapplication/cmdadc.o
 .text.exit     0x0803f470        0xc ./fcapplication/cmdadc.o
 .text.startup  0x0803f47c       0x10 ./fcapplication/overcurrentprotectiontask.o
 .text.exit     0x0803f48c        0xc ./fcapplication/overcurrentprotectiontask.o
 .text._ZN18TelemetryCollectorIN14telemetryTypes16GeneralTelemetryEE9CallbacksD2Ev
                0x0803f498        0x2 ./fcapplication/telemetryhandler.o
                0x0803f498                TelemetryCollector<telemetryTypes::GeneralTelemetry>::Callbacks::~Callbacks()
                0x0803f498                TelemetryCollector<telemetryTypes::GeneralTelemetry>::Callbacks::~Callbacks()
 .text._ZN18TelemetryCollectorIN14telemetryTypes16GeneralTelemetryEE9CallbacksD0Ev
                0x0803f49a        0xe ./fcapplication/telemetryhandler.o
                0x0803f49a                TelemetryCollector<telemetryTypes::GeneralTelemetry>::Callbacks::~Callbacks()
 .text._ZN18TelemetryCollectorIN14telemetryTypes16GeneralTelemetryEE9Callbacks16collectTelemetryEPht
                0x0803f4a8        0x8 ./fcapplication/telemetryhandler.o
                0x0803f4a8                TelemetryCollector<telemetryTypes::GeneralTelemetry>::Callbacks::collectTelemetry(unsigned char*, unsigned short)
 .text.startup  0x0803f4b0       0x48 ./fcapplication/telemetryhandler.o
 .text.exit     0x0803f4f8        0xc ./fcapplication/telemetryhandler.o
 .text.startup  0x0803f504       0x10 ./fcapplication/cmdlog.o
 .text.exit     0x0803f514        0xc ./fcapplication/cmdlog.o
 .text.startup  0x0803f520       0x20 ./fcapplication/log.o
 .text._ZN24FwUpdMemDriverFileSystemD2Ev
                0x0803f540        0x2 ./fcapplication/fwupdhandler.o
                0x0803f540                FwUpdMemDriverFileSystem::~FwUpdMemDriverFileSystem()
                0x0803f540                FwUpdMemDriverFileSystem::~FwUpdMemDriverFileSystem()
 .text._ZN24FwUpdMemDriverFileSystem5writeEmPKhm
                0x0803f542        0x4 ./fcapplication/fwupdhandler.o
                0x0803f542                FwUpdMemDriverFileSystem::write(unsigned long, unsigned char const*, unsigned long)
 .text._ZN24FwUpdMemDriverFileSystem5eraseEmm
                0x0803f546        0x4 ./fcapplication/fwupdhandler.o
                0x0803f546                FwUpdMemDriverFileSystem::erase(unsigned long, unsigned long)
 .text._ZN27FwUpdMemDriverInternalFlashD2Ev
                0x0803f54a        0x2 ./fcapplication/fwupdhandler.o
                0x0803f54a                FwUpdMemDriverInternalFlash::~FwUpdMemDriverInternalFlash()
                0x0803f54a                FwUpdMemDriverInternalFlash::~FwUpdMemDriverInternalFlash()
 .text._ZN27FwUpdMemDriverInternalFlash5eraseEmm
                0x0803f54c       0x22 ./fcapplication/fwupdhandler.o
                0x0803f54c                FwUpdMemDriverInternalFlash::erase(unsigned long, unsigned long)
 .text._ZN27FwUpdMemDriverInternalFlash4readEmPhm
                0x0803f56e       0x14 ./fcapplication/fwupdhandler.o
                0x0803f56e                FwUpdMemDriverInternalFlash::read(unsigned long, unsigned char*, unsigned long)
 .text._ZN27FwUpdMemDriverInternalFlash5writeEmPKhm
                0x0803f582       0x14 ./fcapplication/fwupdhandler.o
                0x0803f582                FwUpdMemDriverInternalFlash::write(unsigned long, unsigned char const*, unsigned long)
 .text._ZN27FwUpdMemDriverInternalFlashD0Ev
                0x0803f596        0xe ./fcapplication/fwupdhandler.o
                0x0803f596                FwUpdMemDriverInternalFlash::~FwUpdMemDriverInternalFlash()
 .text._ZN24FwUpdMemDriverFileSystemD0Ev
                0x0803f5a4        0xe ./fcapplication/fwupdhandler.o
                0x0803f5a4                FwUpdMemDriverFileSystem::~FwUpdMemDriverFileSystem()
 .text._ZN24FwUpdMemDriverFileSystem4readEmPhm
                0x0803f5b2       0x24 ./fcapplication/fwupdhandler.o
                0x0803f5b2                FwUpdMemDriverFileSystem::read(unsigned long, unsigned char*, unsigned long)
 *fill*         0x0803f5d6        0x2 
 .text.startup  0x0803f5d8      0x138 ./fcapplication/fwupdhandler.o
 .text.exit     0x0803f710       0x4c ./fcapplication/fwupdhandler.o
 .text.startup  0x0803f75c       0x10 ./fcapplication/cmdrtc.o
 .text.exit     0x0803f76c        0xc ./fcapplication/cmdrtc.o
 .text.startup  0x0803f778       0x68 ./fcapplication/powercontrolunithandler.o
 .text.Reset_Handler
                0x0803f7e0       0x50 ./fcapplication/startup_stm32h743xx.o
                0x0803f7e0                Reset_Handler
 .text.Default_Handler
                0x0803f830        0x2 ./fcapplication/startup_stm32h743xx.o
                0x0803f830                LTDC_ER_IRQHandler
                0x0803f830                DMA2_Stream5_IRQHandler
                0x0803f830                OTG_HS_WKUP_IRQHandler
                0x0803f830                DFSDM1_FLT1_IRQHandler
                0x0803f830                HRTIM1_TIMA_IRQHandler
                0x0803f830                SWPMI1_IRQHandler
                0x0803f830                EXTI1_IRQHandler
                0x0803f830                TIM8_UP_TIM13_IRQHandler
                0x0803f830                BDMA_Channel1_IRQHandler
                0x0803f830                BDMA_Channel4_IRQHandler
                0x0803f830                DMA2_Stream7_IRQHandler
                0x0803f830                CRS_IRQHandler
                0x0803f830                SAI2_IRQHandler
                0x0803f830                ADC3_IRQHandler
                0x0803f830                OTG_FS_WKUP_IRQHandler
                0x0803f830                JPEG_IRQHandler
                0x0803f830                TIM8_CC_IRQHandler
                0x0803f830                ETH_IRQHandler
                0x0803f830                EXTI9_5_IRQHandler
                0x0803f830                HRTIM1_TIME_IRQHandler
                0x0803f830                HRTIM1_TIMB_IRQHandler
                0x0803f830                TIM17_IRQHandler
                0x0803f830                BDMA_Channel3_IRQHandler
                0x0803f830                ADC_IRQHandler
                0x0803f830                BDMA_Channel5_IRQHandler
                0x0803f830                BDMA_Channel7_IRQHandler
                0x0803f830                LPTIM5_IRQHandler
                0x0803f830                DMA1_Stream6_IRQHandler
                0x0803f830                DMA1_Stream1_IRQHandler
                0x0803f830                WWDG_IRQHandler
                0x0803f830                WAKEUP_PIN_IRQHandler
                0x0803f830                DMA2D_IRQHandler
                0x0803f830                DMA2_Stream0_IRQHandler
                0x0803f830                DMA1_Stream2_IRQHandler
                0x0803f830                RCC_IRQHandler
                0x0803f830                HRTIM1_Master_IRQHandler
                0x0803f830                SAI4_IRQHandler
                0x0803f830                DMA2_Stream3_IRQHandler
                0x0803f830                BDMA_Channel0_IRQHandler
                0x0803f830                HRTIM1_TIMC_IRQHandler
                0x0803f830                OTG_HS_EP1_OUT_IRQHandler
                0x0803f830                DMA2_Stream4_IRQHandler
                0x0803f830                TIM1_UP_IRQHandler
                0x0803f830                SAI1_IRQHandler
                0x0803f830                CEC_IRQHandler
                0x0803f830                OTG_FS_EP1_OUT_IRQHandler
                0x0803f830                LPUART1_IRQHandler
                0x0803f830                DMAMUX2_OVR_IRQHandler
                0x0803f830                TIM3_IRQHandler
                0x0803f830                SPI6_IRQHandler
                0x0803f830                USART2_IRQHandler
                0x0803f830                DMA1_Stream0_IRQHandler
                0x0803f830                DMA1_Stream7_IRQHandler
                0x0803f830                TIM6_DAC_IRQHandler
                0x0803f830                DMA1_Stream4_IRQHandler
                0x0803f830                SDMMC2_IRQHandler
                0x0803f830                TIM8_TRG_COM_TIM14_IRQHandler
                0x0803f830                LTDC_IRQHandler
                0x0803f830                PVD_AVD_IRQHandler
                0x0803f830                FMC_IRQHandler
                0x0803f830                EXTI15_10_IRQHandler
                0x0803f830                TIM8_BRK_TIM12_IRQHandler
                0x0803f830                TIM1_BRK_IRQHandler
                0x0803f830                BDMA_Channel2_IRQHandler
                0x0803f830                RTC_WKUP_IRQHandler
                0x0803f830                TIM2_IRQHandler
                0x0803f830                HSEM1_IRQHandler
                0x0803f830                DMA2_Stream6_IRQHandler
                0x0803f830                LPTIM2_IRQHandler
                0x0803f830                LPTIM4_IRQHandler
                0x0803f830                COMP1_IRQHandler
                0x0803f830                DFSDM1_FLT2_IRQHandler
                0x0803f830                SDMMC1_IRQHandler
                0x0803f830                OTG_HS_EP1_IN_IRQHandler
                0x0803f830                LPTIM3_IRQHandler
                0x0803f830                Default_Handler
                0x0803f830                DMAMUX1_OVR_IRQHandler
                0x0803f830                RNG_IRQHandler
                0x0803f830                ETH_WKUP_IRQHandler
                0x0803f830                EXTI2_IRQHandler
                0x0803f830                OTG_FS_IRQHandler
                0x0803f830                OTG_FS_EP1_IN_IRQHandler
                0x0803f830                DMA1_Stream5_IRQHandler
                0x0803f830                FDCAN_CAL_IRQHandler
                0x0803f830                TIM4_IRQHandler
                0x0803f830                DFSDM1_FLT3_IRQHandler
                0x0803f830                BDMA_Channel6_IRQHandler
                0x0803f830                SAI3_IRQHandler
                0x0803f830                TIM15_IRQHandler
                0x0803f830                TIM16_IRQHandler
                0x0803f830                HRTIM1_TIMD_IRQHandler
                0x0803f830                EXTI3_IRQHandler
                0x0803f830                SPDIF_RX_IRQHandler
                0x0803f830                MDIOS_IRQHandler
                0x0803f830                TIM1_TRG_COM_IRQHandler
                0x0803f830                DMA2_Stream2_IRQHandler
                0x0803f830                DMA2_Stream1_IRQHandler
                0x0803f830                FPU_IRQHandler
                0x0803f830                DCMI_IRQHandler
                0x0803f830                TIM1_CC_IRQHandler
                0x0803f830                LPTIM1_IRQHandler
                0x0803f830                SPI3_IRQHandler
                0x0803f830                DFSDM1_FLT0_IRQHandler
                0x0803f830                OTG_HS_IRQHandler
                0x0803f830                MDIOS_WKUP_IRQHandler
                0x0803f830                DMA1_Stream3_IRQHandler
                0x0803f830                TIM7_IRQHandler
                0x0803f830                EXTI0_IRQHandler
                0x0803f830                RTC_Alarm_IRQHandler
                0x0803f830                EXTI4_IRQHandler
                0x0803f830                HRTIM1_FLT_IRQHandler
 *fill*         0x0803f832        0x2 
 .text.startup  0x0803f834        0xc ./fcapplication/adcsactuators.o
 .text.exit     0x0803f840        0xc ./fcapplication/adcsactuators.o
 .text._ZN14GyroPinControlD2Ev
                0x0803f84c        0x2 ./fcapplication/adcssensors.o
                0x0803f84c                GyroPinControl::~GyroPinControl()
                0x0803f84c                GyroPinControl::~GyroPinControl()
 .text._ZN14GyroPinControl12setTriggerOnEb
                0x0803f84e        0xe ./fcapplication/adcssensors.o
                0x0803f84e                GyroPinControl::setTriggerOn(bool)
 .text._ZN14GyroPinControlD0Ev
                0x0803f85c        0xe ./fcapplication/adcssensors.o
                0x0803f85c                GyroPinControl::~GyroPinControl()
 *fill*         0x0803f86a        0x2 
 .text.startup  0x0803f86c      0x104 ./fcapplication/adcssensors.o
 .text.exit     0x0803f970       0x4c ./fcapplication/adcssensors.o
 .text._ZN18TelemetryCollectorIN14telemetryTypes13AdcsTelemetryEE9CallbacksD2Ev
                0x0803f9bc        0x2 ./fcapplication/adcstelemetryhandler.o
                0x0803f9bc                TelemetryCollector<telemetryTypes::AdcsTelemetry>::Callbacks::~Callbacks()
                0x0803f9bc                TelemetryCollector<telemetryTypes::AdcsTelemetry>::Callbacks::~Callbacks()
 .text._ZN18TelemetryCollectorIN14telemetryTypes13AdcsTelemetryEE9CallbacksD0Ev
                0x0803f9be        0xe ./fcapplication/adcstelemetryhandler.o
                0x0803f9be                TelemetryCollector<telemetryTypes::AdcsTelemetry>::Callbacks::~Callbacks()
 .text._ZN18TelemetryCollectorIN14telemetryTypes13AdcsTelemetryEE9Callbacks16collectTelemetryEPht
                0x0803f9cc        0x8 ./fcapplication/adcstelemetryhandler.o
                0x0803f9cc                TelemetryCollector<telemetryTypes::AdcsTelemetry>::Callbacks::collectTelemetry(unsigned char*, unsigned short)
 .text._ZN14telemetryTypes13AdcsTelemetryC2Ev
                0x0803f9d4      0x204 ./fcapplication/adcstelemetryhandler.o
                0x0803f9d4                telemetryTypes::AdcsTelemetry::AdcsTelemetry()
                0x0803f9d4                telemetryTypes::AdcsTelemetry::AdcsTelemetry()
 .text.startup  0x0803fbd8       0x44 ./fcapplication/adcstelemetryhandler.o
 .text.exit     0x0803fc1c        0xc ./fcapplication/adcstelemetryhandler.o
 .text._ZNSt11__copy_moveILb0ELb1ESt26random_access_iterator_tagE8__copy_mIhEEPT_PKS3_S6_S4_
                0x0803fc28       0x18 ./fcapplication/config.o
                0x0803fc28                unsigned char* std::__copy_move<false, true, std::random_access_iterator_tag>::__copy_m<unsigned char>(unsigned char const*, unsigned char const*, unsigned char*)
 .text._ZN16ConfigProperties19copyDefaultToActiveEv
                0x0803fc40       0x12 ./fcapplication/config.o
                0x0803fc40                ConfigProperties::copyDefaultToActive()
 .text._ZN16ConfigProperties20copyFallbackToActiveEv
                0x0803fc52       0x12 ./fcapplication/config.o
                0x0803fc52                ConfigProperties::copyFallbackToActive()
 .text._ZN16ConfigProperties16copyMainToActiveEv
                0x0803fc64       0x12 ./fcapplication/config.o
                0x0803fc64                ConfigProperties::copyMainToActive()
 .text._ZSt4copyIPcS0_ET0_T_S2_S1_
                0x0803fc76       0x18 ./fcapplication/configclicommands.o
                0x0803fc76                char* std::copy<char*, char*>(char*, char*, char*)
 .text._ZN6Config3getIhEENS_9ErrorCodeERK15ConfigPropDescrRT_PKh
                0x0803fc8e       0x5c ./fcapplication/configclicommands.o
                0x0803fc8e                Config::ErrorCode Config::get<unsigned char>(ConfigPropDescr const&, unsigned char&, unsigned char const*)
 .text._ZN6Config3getIaEENS_9ErrorCodeERK15ConfigPropDescrRT_PKh
                0x0803fcea       0x5e ./fcapplication/configclicommands.o
                0x0803fcea                Config::ErrorCode Config::get<signed char>(ConfigPropDescr const&, signed char&, unsigned char const*)
 .text._ZN6Config3getItEENS_9ErrorCodeERK15ConfigPropDescrRT_PKh
                0x0803fd48       0x5e ./fcapplication/configclicommands.o
                0x0803fd48                Config::ErrorCode Config::get<unsigned short>(ConfigPropDescr const&, unsigned short&, unsigned char const*)
 .text._ZN6Config3getIsEENS_9ErrorCodeERK15ConfigPropDescrRT_PKh
                0x0803fda6       0x5e ./fcapplication/configclicommands.o
                0x0803fda6                Config::ErrorCode Config::get<short>(ConfigPropDescr const&, short&, unsigned char const*)
 .text._ZN6Config3getImEENS_9ErrorCodeERK15ConfigPropDescrRT_PKh
                0x0803fe04       0x5e ./fcapplication/configclicommands.o
                0x0803fe04                Config::ErrorCode Config::get<unsigned long>(ConfigPropDescr const&, unsigned long&, unsigned char const*)
 .text._ZN6Config3getIlEENS_9ErrorCodeERK15ConfigPropDescrRT_PKh
                0x0803fe62       0x5e ./fcapplication/configclicommands.o
                0x0803fe62                Config::ErrorCode Config::get<long>(ConfigPropDescr const&, long&, unsigned char const*)
 .text._ZN6Config3getIfEENS_9ErrorCodeERK15ConfigPropDescrRT_PKh
                0x0803fec0       0x60 ./fcapplication/configclicommands.o
                0x0803fec0                Config::ErrorCode Config::get<float>(ConfigPropDescr const&, float&, unsigned char const*)
 .text._ZN6Config3getIdEENS_9ErrorCodeERK15ConfigPropDescrRT_PKh
                0x0803ff20       0x64 ./fcapplication/configclicommands.o
                0x0803ff20                Config::ErrorCode Config::get<double>(ConfigPropDescr const&, double&, unsigned char const*)
 .text._ZN6Config3getISt5arrayIhLj8EEEENS_9ErrorCodeERK15ConfigPropDescrRT_PKh
                0x0803ff84       0x64 ./fcapplication/configclicommands.o
                0x0803ff84                Config::ErrorCode Config::get<std::array<unsigned char, 8u> >(ConfigPropDescr const&, std::array<unsigned char, 8u>&, unsigned char const*)
 .text._ZN6Config3getISt5arrayIhLj16EEEENS_9ErrorCodeERK15ConfigPropDescrRT_PKh
                0x0803ffe8       0x6c ./fcapplication/configclicommands.o
                0x0803ffe8                Config::ErrorCode Config::get<std::array<unsigned char, 16u> >(ConfigPropDescr const&, std::array<unsigned char, 16u>&, unsigned char const*)
 .text._ZN6Config3getISt5arrayIhLj32EEEENS_9ErrorCodeERK15ConfigPropDescrRT_PKh
                0x08040054       0x6c ./fcapplication/configclicommands.o
                0x08040054                Config::ErrorCode Config::get<std::array<unsigned char, 32u> >(ConfigPropDescr const&, std::array<unsigned char, 32u>&, unsigned char const*)
 .text._ZN6Config3getISt5arrayIhLj64EEEENS_9ErrorCodeERK15ConfigPropDescrRT_PKh
                0x080400c0       0x6c ./fcapplication/configclicommands.o
                0x080400c0                Config::ErrorCode Config::get<std::array<unsigned char, 64u> >(ConfigPropDescr const&, std::array<unsigned char, 64u>&, unsigned char const*)
 .text._ZN6Config3getISt5arrayIhLj128EEEENS_9ErrorCodeERK15ConfigPropDescrRT_PKh
                0x0804012c       0x66 ./fcapplication/configclicommands.o
                0x0804012c                Config::ErrorCode Config::get<std::array<unsigned char, 128u> >(ConfigPropDescr const&, std::array<unsigned char, 128u>&, unsigned char const*)
 .text._ZN6Config3getISt5arrayIcLj8EEEENS_9ErrorCodeERK15ConfigPropDescrRT_PKh
                0x08040192       0x64 ./fcapplication/configclicommands.o
                0x08040192                Config::ErrorCode Config::get<std::array<char, 8u> >(ConfigPropDescr const&, std::array<char, 8u>&, unsigned char const*)
 .text._ZN6Config3getISt5arrayIcLj16EEEENS_9ErrorCodeERK15ConfigPropDescrRT_PKh
                0x080401f6       0x6c ./fcapplication/configclicommands.o
                0x080401f6                Config::ErrorCode Config::get<std::array<char, 16u> >(ConfigPropDescr const&, std::array<char, 16u>&, unsigned char const*)
 .text._ZN6Config3getISt5arrayIcLj32EEEENS_9ErrorCodeERK15ConfigPropDescrRT_PKh
                0x08040262       0x6c ./fcapplication/configclicommands.o
                0x08040262                Config::ErrorCode Config::get<std::array<char, 32u> >(ConfigPropDescr const&, std::array<char, 32u>&, unsigned char const*)
 .text._ZN6Config3getISt5arrayIcLj64EEEENS_9ErrorCodeERK15ConfigPropDescrRT_PKh
                0x080402ce       0x6c ./fcapplication/configclicommands.o
                0x080402ce                Config::ErrorCode Config::get<std::array<char, 64u> >(ConfigPropDescr const&, std::array<char, 64u>&, unsigned char const*)
 .text._ZN6Config3getISt5arrayIcLj128EEEENS_9ErrorCodeERK15ConfigPropDescrRT_PKh
                0x0804033a       0x66 ./fcapplication/configclicommands.o
                0x0804033a                Config::ErrorCode Config::get<std::array<char, 128u> >(ConfigPropDescr const&, std::array<char, 128u>&, unsigned char const*)
 .text.startup  0x080403a0       0x10 ./fcapplication/configclicommands.o
 .text.exit     0x080403b0        0xc ./fcapplication/configclicommands.o
 .text._ZN6Config3getIhEENS_9ErrorCodeEtRT_PKh
                0x080403bc       0x7e ./fcapplication/configservice.o
                0x080403bc                Config::ErrorCode Config::get<unsigned char>(unsigned short, unsigned char&, unsigned char const*)
 .text._ZN6Config3getIaEENS_9ErrorCodeEtRT_PKh
                0x0804043a       0x80 ./fcapplication/configservice.o
                0x0804043a                Config::ErrorCode Config::get<signed char>(unsigned short, signed char&, unsigned char const*)
 .text._ZN6Config3getItEENS_9ErrorCodeEtRT_PKh
                0x080404ba       0x80 ./fcapplication/configservice.o
                0x080404ba                Config::ErrorCode Config::get<unsigned short>(unsigned short, unsigned short&, unsigned char const*)
 .text._ZN6Config3getIsEENS_9ErrorCodeEtRT_PKh
                0x0804053a       0x80 ./fcapplication/configservice.o
                0x0804053a                Config::ErrorCode Config::get<short>(unsigned short, short&, unsigned char const*)
 .text._ZN6Config3getImEENS_9ErrorCodeEtRT_PKh
                0x080405ba       0x80 ./fcapplication/configservice.o
                0x080405ba                Config::ErrorCode Config::get<unsigned long>(unsigned short, unsigned long&, unsigned char const*)
 .text._ZN6Config3getIlEENS_9ErrorCodeEtRT_PKh
                0x0804063a       0x80 ./fcapplication/configservice.o
                0x0804063a                Config::ErrorCode Config::get<long>(unsigned short, long&, unsigned char const*)
 .text._ZN6Config3getIfEENS_9ErrorCodeEtRT_PKh
                0x080406ba       0x82 ./fcapplication/configservice.o
                0x080406ba                Config::ErrorCode Config::get<float>(unsigned short, float&, unsigned char const*)
 .text._ZN6Config3getIdEENS_9ErrorCodeEtRT_PKh
                0x0804073c       0x86 ./fcapplication/configservice.o
                0x0804073c                Config::ErrorCode Config::get<double>(unsigned short, double&, unsigned char const*)
 .text._ZN6Config3getISt5arrayIhLj8EEEENS_9ErrorCodeEtRT_PKh
                0x080407c2       0x86 ./fcapplication/configservice.o
                0x080407c2                Config::ErrorCode Config::get<std::array<unsigned char, 8u> >(unsigned short, std::array<unsigned char, 8u>&, unsigned char const*)
 .text._ZN6Config3getISt5arrayIhLj16EEEENS_9ErrorCodeEtRT_PKh
                0x08040848       0x90 ./fcapplication/configservice.o
                0x08040848                Config::ErrorCode Config::get<std::array<unsigned char, 16u> >(unsigned short, std::array<unsigned char, 16u>&, unsigned char const*)
 .text._ZN6Config3getISt5arrayIhLj32EEEENS_9ErrorCodeEtRT_PKh
                0x080408d8       0x90 ./fcapplication/configservice.o
                0x080408d8                Config::ErrorCode Config::get<std::array<unsigned char, 32u> >(unsigned short, std::array<unsigned char, 32u>&, unsigned char const*)
 .text._ZN6Config3getISt5arrayIhLj64EEEENS_9ErrorCodeEtRT_PKh
                0x08040968       0x90 ./fcapplication/configservice.o
                0x08040968                Config::ErrorCode Config::get<std::array<unsigned char, 64u> >(unsigned short, std::array<unsigned char, 64u>&, unsigned char const*)
 .text._ZN6Config3getISt5arrayIhLj128EEEENS_9ErrorCodeEtRT_PKh
                0x080409f8       0x86 ./fcapplication/configservice.o
                0x080409f8                Config::ErrorCode Config::get<std::array<unsigned char, 128u> >(unsigned short, std::array<unsigned char, 128u>&, unsigned char const*)
 .text._ZN6Config3getISt5arrayIcLj8EEEENS_9ErrorCodeEtRT_PKh
                0x08040a7e       0x86 ./fcapplication/configservice.o
                0x08040a7e                Config::ErrorCode Config::get<std::array<char, 8u> >(unsigned short, std::array<char, 8u>&, unsigned char const*)
 .text._ZN6Config3getISt5arrayIcLj16EEEENS_9ErrorCodeEtRT_PKh
                0x08040b04       0x90 ./fcapplication/configservice.o
                0x08040b04                Config::ErrorCode Config::get<std::array<char, 16u> >(unsigned short, std::array<char, 16u>&, unsigned char const*)
 .text._ZN6Config3getISt5arrayIcLj32EEEENS_9ErrorCodeEtRT_PKh
                0x08040b94       0x90 ./fcapplication/configservice.o
                0x08040b94                Config::ErrorCode Config::get<std::array<char, 32u> >(unsigned short, std::array<char, 32u>&, unsigned char const*)
 .text._ZN6Config3getISt5arrayIcLj64EEEENS_9ErrorCodeEtRT_PKh
                0x08040c24       0x90 ./fcapplication/configservice.o
                0x08040c24                Config::ErrorCode Config::get<std::array<char, 64u> >(unsigned short, std::array<char, 64u>&, unsigned char const*)
 .text._ZN6Config3getISt5arrayIcLj128EEEENS_9ErrorCodeEtRT_PKh
                0x08040cb4       0x86 ./fcapplication/configservice.o
                0x08040cb4                Config::ErrorCode Config::get<std::array<char, 128u> >(unsigned short, std::array<char, 128u>&, unsigned char const*)
 .text._ZSt9__find_ifIPPcN9__gnu_cxx5__ops10_Iter_predIZN10CliHelpers14getOptionShortImEEbR9CliWriterchS1_RT_EUlPKcE_EEES9_S9_S9_T0_St26random_access_iterator_tag
                0x08040d3a       0x8c ./fcapplication/cspclicommands.o
                0x08040d3a                char** std::__find_if<char**, __gnu_cxx::__ops::_Iter_pred<CliHelpers::getOptionShort<unsigned long>(CliWriter&, char, unsigned char, char**, unsigned long&)::{lambda(char const*)#1}> >(char**, char**, __gnu_cxx::__ops::_Iter_pred<CliHelpers::getOptionShort<unsigned long>(CliWriter&, char, unsigned char, char**, unsigned long&)::{lambda(char const*)#1}>, std::random_access_iterator_tag)
 .text._ZSt9__find_ifIPPcN9__gnu_cxx5__ops10_Iter_predIZN10CliHelpers14getOptionShortIhEEbR9CliWriterchS1_RT_EUlPKcE_EEES9_S9_S9_T0_St26random_access_iterator_tag
                0x08040dc6       0x8c ./fcapplication/cspclicommands.o
                0x08040dc6                char** std::__find_if<char**, __gnu_cxx::__ops::_Iter_pred<CliHelpers::getOptionShort<unsigned char>(CliWriter&, char, unsigned char, char**, unsigned char&)::{lambda(char const*)#1}> >(char**, char**, __gnu_cxx::__ops::_Iter_pred<CliHelpers::getOptionShort<unsigned char>(CliWriter&, char, unsigned char, char**, unsigned char&)::{lambda(char const*)#1}>, std::random_access_iterator_tag)
 *fill*         0x08040e52        0x2 
 .text.startup  0x08040e54       0x10 ./fcapplication/cspclicommands.o
 .text.exit     0x08040e64        0xc ./fcapplication/cspclicommands.o
 .text.startup  0x08040e70       0x10 ./fcapplication/cmdmagnetorquers.o
 .text.exit     0x08040e80        0xc ./fcapplication/cmdmagnetorquers.o
 .text.startup  0x08040e8c       0x10 ./fcapplication/cmdfs.o
 .text.exit     0x08040e9c        0xc ./fcapplication/cmdfs.o
 .text.startup  0x08040ea8       0x10 ./fcapplication/fwupdclicommands.o
 .text.exit     0x08040eb8        0xc ./fcapplication/fwupdclicommands.o
 .text._ZN15FwUpdCliHelpers10swapEndianImEET_S1_
                0x08040ec4        0x4 ./fcapplication/fwupdclihelpers.o
                0x08040ec4                unsigned long FwUpdCliHelpers::swapEndian<unsigned long>(unsigned long)
 .text.startup  0x08040ec8       0x10 ./fcapplication/cmdflash_mt25q.o
 .text.exit     0x08040ed8        0xc ./fcapplication/cmdflash_mt25q.o
 .text._ZN12SpiMasterApp7SessionD2Ev
                0x08040ee4       0x1e ./fcapplication/framcy15b104q.o
                0x08040ee4                SpiMasterApp::Session::~Session()
                0x08040ee4                SpiMasterApp::Session::~Session()
 *fill*         0x08040f02        0x2 
 .text.startup  0x08040f04       0x10 ./fcapplication/cmdsunsensor.o
 .text.exit     0x08040f14        0xc ./fcapplication/cmdsunsensor.o
 .text.startup  0x08040f20       0x18 ./fcapplication/gps.o
 .text.startup  0x08040f38       0x10 ./fcapplication/cmdgyrostim210.o
 .text.exit     0x08040f48        0xc ./fcapplication/cmdgyrostim210.o
 .text.startup  0x08040f54       0x10 ./fcapplication/cmdmagnetometer.o
 .text.exit     0x08040f64        0xc ./fcapplication/cmdmagnetometer.o
 .text._ZSt3powIdiEN9__gnu_cxx11__promote_2IT_T0_NS0_9__promoteIS2_XsrSt12__is_integerIS2_E7__valueEE6__typeENS4_IS3_XsrS5_IS3_E7__valueEE6__typeEE6__typeES2_S3_
                0x08040f70        0xc ./fcapplication/ast_gps_process.o
                0x08040f70                __gnu_cxx::__promote_2<double, int, __gnu_cxx::__promote<double, std::__is_integer<double>::__value>::__type, __gnu_cxx::__promote<int, std::__is_integer<int>::__value>::__type>::__type std::pow<double, int>(double, int)
 .text._ZN40CNA_DynamicModel__Quat_ECI_W_BCF_BiassedaSEOS_
                0x08040f7c       0x3e ./fcapplication/cna_attitudecontrolsystem.o
                0x08040f7c                CNA_DynamicModel__Quat_ECI_W_BCF_Biassed::operator=(CNA_DynamicModel__Quat_ECI_W_BCF_Biassed&&)
 .text._ZN24CNA_DynamicModelAbstract12ApplyBiassesER10_T_VectorXRKS0_
                0x08040fba        0x2 ./fcapplication/cna_dynamicmodel.o
                0x08040fba                CNA_DynamicModelAbstract::ApplyBiasses(_T_VectorX&, _T_VectorX const&)
 .text._ZN28CNA_MeasurementModelAbstract15RefineResidualsER10_T_VectorX
                0x08040fbc        0x2 ./fcapplication/cna_kalmanabstract.o
                0x08040fbc                CNA_MeasurementModelAbstract::RefineResiduals(_T_VectorX&)
 .text._ZN28CNA_MeasurementModelAbstract18z_InitMeasurementsER10_T_VectorXR25NA_T_SatelliteEnvironmentRK22_NA_T_ADCSMeasurementsPh
                0x08040fbe        0x2 ./fcapplication/cna_kalmanabstract.o
                0x08040fbe                CNA_MeasurementModelAbstract::z_InitMeasurements(_T_VectorX&, NA_T_SatelliteEnvironment&, _NA_T_ADCSMeasurements const&, unsigned char*)
 .text._ZN24CNA_DynamicModelAbstract22GetStateVectorJacobianEP11_T_MatrixXXP10_T_VectorXRK25NA_T_SatelliteEnvironment
                0x08040fc0        0x4 ./fcapplication/cna_kalmanabstract.o
                0x08040fc0                CNA_DynamicModelAbstract::GetStateVectorJacobian(_T_MatrixXX*, _T_VectorX*, NA_T_SatelliteEnvironment const&)
 .text._ZN24CNA_DynamicModelAbstract17RefineStateVectorER10_T_VectorX
                0x08040fc4        0x2 ./fcapplication/cna_kalmanabstract.o
                0x08040fc4                CNA_DynamicModelAbstract::RefineStateVector(_T_VectorX&)
 .text._ZN24CNA_DynamicModelAbstract19SetSateliteAttitudeER10_T_VectorXRK22_NA_T_SateliteAttitudeb
                0x08040fc6        0x2 ./fcapplication/cna_kalmanabstract.o
                0x08040fc6                CNA_DynamicModelAbstract::SetSateliteAttitude(_T_VectorX&, _NA_T_SateliteAttitude const&, bool)
 .text._ZN6CanApp16CanBaseCallbacksD2Ev
                0x08040fc8        0x2 ./fcapplication/canapp.o
                0x08040fc8                CanApp::CanBaseCallbacks::~CanBaseCallbacks()
                0x08040fc8                CanApp::CanBaseCallbacks::~CanBaseCallbacks()
 .text._ZN6CanApp16CanBaseCallbacksD0Ev
                0x08040fca        0xe ./fcapplication/canapp.o
                0x08040fca                CanApp::CanBaseCallbacks::~CanBaseCallbacks()
 .text._ZN6CanApp16CanBaseCallbacks5rxIsrEmhPKh
                0x08040fd8        0x6 ./fcapplication/canapp.o
                0x08040fd8                CanApp::CanBaseCallbacks::rxIsr(unsigned long, unsigned char, unsigned char const*)
 .text._ZN6CanApp16CanBaseCallbacks9txCpltIsrEv
                0x08040fde        0x6 ./fcapplication/canapp.o
                0x08040fde                CanApp::CanBaseCallbacks::txCpltIsr()
 .text._ZN7UartApp17UartBaseCallbacksD2Ev
                0x08040fe4        0x2 ./fcapplication/uartapp.o
                0x08040fe4                UartApp::UartBaseCallbacks::~UartBaseCallbacks()
                0x08040fe4                UartApp::UartBaseCallbacks::~UartBaseCallbacks()
 .text._ZN7UartApp17UartBaseCallbacksD0Ev
                0x08040fe6        0xe ./fcapplication/uartapp.o
                0x08040fe6                UartApp::UartBaseCallbacks::~UartBaseCallbacks()
 .text._ZN7UartApp17UartBaseCallbacks5rxIsrEh
                0x08040ff4        0x6 ./fcapplication/uartapp.o
                0x08040ff4                UartApp::UartBaseCallbacks::rxIsr(unsigned char)
 .text._ZN7UartApp17UartBaseCallbacks9txCpltIsrEv
                0x08040ffa        0x6 ./fcapplication/uartapp.o
                0x08040ffa                UartApp::UartBaseCallbacks::txCpltIsr()
 .text._ZN12I2cMasterApp22I2cMasterBaseCallbacksD2Ev
                0x08041000        0x2 ./fcapplication/i2cmasterapp.o
                0x08041000                I2cMasterApp::I2cMasterBaseCallbacks::~I2cMasterBaseCallbacks()
                0x08041000                I2cMasterApp::I2cMasterBaseCallbacks::~I2cMasterBaseCallbacks()
 .text._ZN12I2cMasterApp22I2cMasterBaseCallbacksD0Ev
                0x08041002        0xe ./fcapplication/i2cmasterapp.o
                0x08041002                I2cMasterApp::I2cMasterBaseCallbacks::~I2cMasterBaseCallbacks()
 .text._ZN12I2cMasterApp22I2cMasterBaseCallbacks9rxCpltIsrEv
                0x08041010        0x6 ./fcapplication/i2cmasterapp.o
                0x08041010                I2cMasterApp::I2cMasterBaseCallbacks::rxCpltIsr()
 .text._ZN12I2cMasterApp22I2cMasterBaseCallbacks9txCpltIsrEv
                0x08041016        0x6 ./fcapplication/i2cmasterapp.o
                0x08041016                I2cMasterApp::I2cMasterBaseCallbacks::txCpltIsr()
 .text._ZN12I2cMasterApp22I2cMasterBaseCallbacks8errorIsrEv
                0x0804101c        0x6 ./fcapplication/i2cmasterapp.o
                0x0804101c                I2cMasterApp::I2cMasterBaseCallbacks::errorIsr()
 .text._ZN12SpiMasterApp22SpiMasterBaseCallbacksD2Ev
                0x08041022        0x2 ./fcapplication/spimasterapp.o
                0x08041022                SpiMasterApp::SpiMasterBaseCallbacks::~SpiMasterBaseCallbacks()
                0x08041022                SpiMasterApp::SpiMasterBaseCallbacks::~SpiMasterBaseCallbacks()
 .text._ZN12SpiMasterApp22SpiMasterBaseCallbacksD0Ev
                0x08041024        0xe ./fcapplication/spimasterapp.o
                0x08041024                SpiMasterApp::SpiMasterBaseCallbacks::~SpiMasterBaseCallbacks()
 .text._ZN12SpiMasterApp22SpiMasterBaseCallbacks9rxCpltIsrEv
                0x08041032        0x6 ./fcapplication/spimasterapp.o
                0x08041032                SpiMasterApp::SpiMasterBaseCallbacks::rxCpltIsr()
 .text._ZN12SpiMasterApp22SpiMasterBaseCallbacks9txCpltIsrEv
                0x08041038        0x6 ./fcapplication/spimasterapp.o
                0x08041038                SpiMasterApp::SpiMasterBaseCallbacks::txCpltIsr()
 .text._ZN12SpiMasterApp22SpiMasterBaseCallbacks11txRxCpltIsrEv
                0x0804103e        0x6 ./fcapplication/spimasterapp.o
                0x0804103e                SpiMasterApp::SpiMasterBaseCallbacks::txRxCpltIsr()
 .text._ZN12SpiMasterApp22SpiMasterBaseCallbacks8errorIsrEv
                0x08041044        0x6 ./fcapplication/spimasterapp.o
                0x08041044                SpiMasterApp::SpiMasterBaseCallbacks::errorIsr()
 .text._ZN16MyFlashCallbacksD2Ev
                0x0804104a        0x2 ./fcapplication/flashapp.o
                0x0804104a                MyFlashCallbacks::~MyFlashCallbacks()
                0x0804104a                MyFlashCallbacks::~MyFlashCallbacks()
 .text._ZN16MyFlashCallbacks17operationErrorIsrEm
                0x0804104c        0x6 ./fcapplication/flashapp.o
                0x0804104c                MyFlashCallbacks::operationErrorIsr(unsigned long)
 .text._ZN16MyFlashCallbacks17endOfOperationIsrEm
                0x08041052        0x6 ./fcapplication/flashapp.o
                0x08041052                MyFlashCallbacks::endOfOperationIsr(unsigned long)
 .text._ZN16MyFlashCallbacksD0Ev
                0x08041058        0xe ./fcapplication/flashapp.o
                0x08041058                MyFlashCallbacks::~MyFlashCallbacks()
 *fill*         0x08041066        0x2 
 .text.startup  0x08041068       0x10 ./fcapplication/flashapp.o
 .text.startup  0x08041078       0x10 ./fcapplication/canclicommands.o
 .text.exit     0x08041088        0xc ./fcapplication/canclicommands.o
 .text._ZN6Config3getIN13configHandler10PropertyIdEVhEENS_9ErrorCodeET_RT0_
                0x08041094       0x82 ./fcapplication/script_engine.o
                0x08041094                Config::ErrorCode Config::get<configHandler::PropertyId, unsigned char volatile>(configHandler::PropertyId, unsigned char volatile&)
 *fill*         0x08041116        0x2 
 .text.startup  0x08041118       0x28 ./fcapplication/cmdscriptengine.o
 .text.exit     0x08041140       0x1c ./fcapplication/cmdscriptengine.o
 .text.startup  0x0804115c       0x10 ./fcapplication/cmdstartracker.o
 .text.exit     0x0804116c        0xc ./fcapplication/cmdstartracker.o
 .text._ZN16StarTrackerNST1B6makeIdENS_9FrameTypeEh
                0x08041178       0x4e ./fcapplication/startrackernst1b.o
                0x08041178                StarTrackerNST1B::makeId(StarTrackerNST1B::FrameType, unsigned char)
 .text._ZN16TelemetryServiceD2Ev
                0x080411c6        0x2 ./fcapplication/telemetryservice.o
                0x080411c6                TelemetryService::~TelemetryService()
                0x080411c6                TelemetryService::~TelemetryService()
 .text._ZN16TelemetryServiceD0Ev
                0x080411c8        0xe ./fcapplication/telemetryservice.o
                0x080411c8                TelemetryService::~TelemetryService()
 *fill*         0x080411d6        0x2 
 .text.startup  0x080411d8       0x1c ./fcapplication/candrivers.o
 .text.exit     0x080411f4       0x1c ./fcapplication/candrivers.o
 .text.startup  0x08041210       0x44 ./fcapplication/uartdrivers.o
 .text.exit     0x08041254       0x44 ./fcapplication/uartdrivers.o
 .text.startup  0x08041298       0x2c ./fcapplication/i2cdrivers.o
 .text.exit     0x080412c4       0x2c ./fcapplication/i2cdrivers.o
 .text.startup  0x080412f0       0x2c ./fcapplication/spidrivers.o
 .text.exit     0x0804131c       0x2c ./fcapplication/spidrivers.o
 .text.startup  0x08041348       0x28 ./fcapplication/mcuoption.o
 .text.startup  0x08041370        0xc ./fcapplication/rtcdrivers.o
 .text.exit     0x0804137c        0xc ./fcapplication/rtcdrivers.o
 .text.startup  0x08041388       0x10 ./fcapplication/cmdlvc.o
 .text.exit     0x08041398        0xc ./fcapplication/cmdlvc.o
 .text.atexit   0x080413a4        0xc c:/program files (x86)/gnu arm embedded toolchain/9 2020-q2-update/bin/../lib/gcc/arm-none-eabi/9.3.1/../../../../arm-none-eabi/lib/thumb/v7e-m+dp/hard\libc.a(lib_a-atexit.o)
                0x080413a4                atexit
 .text.atof     0x080413b0        0x8 c:/program files (x86)/gnu arm embedded toolchain/9 2020-q2-update/bin/../lib/gcc/arm-none-eabi/9.3.1/../../../../arm-none-eabi/lib/thumb/v7e-m+dp/hard\libc.a(lib_a-atof.o)
                0x080413b0                atof
 .text.atoi     0x080413b8        0x8 c:/program files (x86)/gnu arm embedded toolchain/9 2020-q2-update/bin/../lib/gcc/arm-none-eabi/9.3.1/../../../../arm-none-eabi/lib/thumb/v7e-m+dp/hard\libc.a(lib_a-atoi.o)
                0x080413b8                atoi
 .text._atoi_r  0x080413c0        0x8 c:/program files (x86)/gnu arm embedded toolchain/9 2020-q2-update/bin/../lib/gcc/arm-none-eabi/9.3.1/../../../../arm-none-eabi/lib/thumb/v7e-m+dp/hard\libc.a(lib_a-atoi.o)
                0x080413c0                _atoi_r
 .text.exit     0x080413c8       0x20 c:/program files (x86)/gnu arm embedded toolchain/9 2020-q2-update/bin/../lib/gcc/arm-none-eabi/9.3.1/../../../../arm-none-eabi/lib/thumb/v7e-m+dp/hard\libc.a(lib_a-exit.o)
                0x080413c8                exit
 .text.__libc_init_array
                0x080413e8       0x48 c:/program files (x86)/gnu arm embedded toolchain/9 2020-q2-update/bin/../lib/gcc/arm-none-eabi/9.3.1/../../../../arm-none-eabi/lib/thumb/v7e-m+dp/hard\libc.a(lib_a-init.o)
                0x080413e8                __libc_init_array
 .text.isalpha  0x08041430       0x10 c:/program files (x86)/gnu arm embedded toolchain/9 2020-q2-update/bin/../lib/gcc/arm-none-eabi/9.3.1/../../../../arm-none-eabi/lib/thumb/v7e-m+dp/hard\libc.a(lib_a-isalpha.o)
                0x08041430                isalpha
 .text.isgraph  0x08041440       0x10 c:/program files (x86)/gnu arm embedded toolchain/9 2020-q2-update/bin/../lib/gcc/arm-none-eabi/9.3.1/../../../../arm-none-eabi/lib/thumb/v7e-m+dp/hard\libc.a(lib_a-isprint.o)
                0x08041440                isgraph
 .text.isprint  0x08041450       0x10 c:/program files (x86)/gnu arm embedded toolchain/9 2020-q2-update/bin/../lib/gcc/arm-none-eabi/9.3.1/../../../../arm-none-eabi/lib/thumb/v7e-m+dp/hard\libc.a(lib_a-isprint.o)
                0x08041450                isprint
 .text.localtime
                0x08041460       0x10 c:/program files (x86)/gnu arm embedded toolchain/9 2020-q2-update/bin/../lib/gcc/arm-none-eabi/9.3.1/../../../../arm-none-eabi/lib/thumb/v7e-m+dp/hard\libc.a(lib_a-lcltime.o)
                0x08041460                localtime
 .text.localtime_r
                0x08041470      0x240 c:/program files (x86)/gnu arm embedded toolchain/9 2020-q2-update/bin/../lib/gcc/arm-none-eabi/9.3.1/../../../../arm-none-eabi/lib/thumb/v7e-m+dp/hard\libc.a(lib_a-lcltime_r.o)
                0x08041470                localtime_r
 .text.memcmp   0x080416b0       0x60 c:/program files (x86)/gnu arm embedded toolchain/9 2020-q2-update/bin/../lib/gcc/arm-none-eabi/9.3.1/../../../../arm-none-eabi/lib/thumb/v7e-m+dp/hard\libc.a(lib_a-memcmp.o)
                0x080416b0                memcmp
 .text.memmove  0x08041710       0xd8 c:/program files (x86)/gnu arm embedded toolchain/9 2020-q2-update/bin/../lib/gcc/arm-none-eabi/9.3.1/../../../../arm-none-eabi/lib/thumb/v7e-m+dp/hard\libc.a(lib_a-memmove.o)
                0x08041710                memmove
 .text.memset   0x080417e8       0xa0 c:/program files (x86)/gnu arm embedded toolchain/9 2020-q2-update/bin/../lib/gcc/arm-none-eabi/9.3.1/../../../../arm-none-eabi/lib/thumb/v7e-m+dp/hard\libc.a(lib_a-memset.o)
                0x080417e8                memset
 .text.validate_structure
                0x08041888      0x1fc c:/program files (x86)/gnu arm embedded toolchain/9 2020-q2-update/bin/../lib/gcc/arm-none-eabi/9.3.1/../../../../arm-none-eabi/lib/thumb/v7e-m+dp/hard\libc.a(lib_a-mktime.o)
 .text.mktime   0x08041a84      0x3d4 c:/program files (x86)/gnu arm embedded toolchain/9 2020-q2-update/bin/../lib/gcc/arm-none-eabi/9.3.1/../../../../arm-none-eabi/lib/thumb/v7e-m+dp/hard\libc.a(lib_a-mktime.o)
                0x08041a84                mktime
 .text._printf_r
                0x08041e58       0x20 c:/program files (x86)/gnu arm embedded toolchain/9 2020-q2-update/bin/../lib/gcc/arm-none-eabi/9.3.1/../../../../arm-none-eabi/lib/thumb/v7e-m+dp/hard\libc.a(lib_a-printf.o)
                0x08041e58                _printf_r
 .text.printf   0x08041e78       0x28 c:/program files (x86)/gnu arm embedded toolchain/9 2020-q2-update/bin/../lib/gcc/arm-none-eabi/9.3.1/../../../../arm-none-eabi/lib/thumb/v7e-m+dp/hard\libc.a(lib_a-printf.o)
                0x08041e78                printf
 .text.srand    0x08041ea0       0x10 c:/program files (x86)/gnu arm embedded toolchain/9 2020-q2-update/bin/../lib/gcc/arm-none-eabi/9.3.1/../../../../arm-none-eabi/lib/thumb/v7e-m+dp/hard\libc.a(lib_a-rand.o)
                0x08041ea0                srand
 .text.rand     0x08041eb0       0x3c c:/program files (x86)/gnu arm embedded toolchain/9 2020-q2-update/bin/../lib/gcc/arm-none-eabi/9.3.1/../../../../arm-none-eabi/lib/thumb/v7e-m+dp/hard\libc.a(lib_a-rand.o)
                0x08041eb0                rand
 *fill*         0x08041eec        0x4 
 .text.nan      0x08041ef0       0x10 c:/program files (x86)/gnu arm embedded toolchain/9 2020-q2-update/bin/../lib/gcc/arm-none-eabi/9.3.1/../../../../arm-none-eabi/lib/thumb/v7e-m+dp/hard\libc.a(lib_a-s_nan.o)
                0x08041ef0                nan
 .text._snprintf_r
                0x08041f00       0x80 c:/program files (x86)/gnu arm embedded toolchain/9 2020-q2-update/bin/../lib/gcc/arm-none-eabi/9.3.1/../../../../arm-none-eabi/lib/thumb/v7e-m+dp/hard\libc.a(lib_a-snprintf.o)
                0x08041f00                _snprintf_r
 .text.snprintf
                0x08041f80       0x88 c:/program files (x86)/gnu arm embedded toolchain/9 2020-q2-update/bin/../lib/gcc/arm-none-eabi/9.3.1/../../../../arm-none-eabi/lib/thumb/v7e-m+dp/hard\libc.a(lib_a-snprintf.o)
                0x08041f80                snprintf
 .text._sprintf_r
                0x08042008       0x38 c:/program files (x86)/gnu arm embedded toolchain/9 2020-q2-update/bin/../lib/gcc/arm-none-eabi/9.3.1/../../../../arm-none-eabi/lib/thumb/v7e-m+dp/hard\libc.a(lib_a-sprintf.o)
                0x08042008                _sprintf_r
 .text.sprintf  0x08042040       0x44 c:/program files (x86)/gnu arm embedded toolchain/9 2020-q2-update/bin/../lib/gcc/arm-none-eabi/9.3.1/../../../../arm-none-eabi/lib/thumb/v7e-m+dp/hard\libc.a(lib_a-sprintf.o)
                0x08042040                sprintf
 .text.sscanf   0x08042084       0x58 c:/program files (x86)/gnu arm embedded toolchain/9 2020-q2-update/bin/../lib/gcc/arm-none-eabi/9.3.1/../../../../arm-none-eabi/lib/thumb/v7e-m+dp/hard\libc.a(lib_a-sscanf.o)
                0x08042084                sscanf
 .text._sscanf_r
                0x080420dc       0x58 c:/program files (x86)/gnu arm embedded toolchain/9 2020-q2-update/bin/../lib/gcc/arm-none-eabi/9.3.1/../../../../arm-none-eabi/lib/thumb/v7e-m+dp/hard\libc.a(lib_a-sscanf.o)
                0x080420dc                _sscanf_r
 .text.__sread  0x08042134       0x24 c:/program files (x86)/gnu arm embedded toolchain/9 2020-q2-update/bin/../lib/gcc/arm-none-eabi/9.3.1/../../../../arm-none-eabi/lib/thumb/v7e-m+dp/hard\libc.a(lib_a-stdio.o)
                0x08042134                __sread
 .text.__seofread
                0x08042158        0x4 c:/program files (x86)/gnu arm embedded toolchain/9 2020-q2-update/bin/../lib/gcc/arm-none-eabi/9.3.1/../../../../arm-none-eabi/lib/thumb/v7e-m+dp/hard\libc.a(lib_a-stdio.o)
                0x08042158                __seofread
 .text.__swrite
                0x0804215c       0x40 c:/program files (x86)/gnu arm embedded toolchain/9 2020-q2-update/bin/../lib/gcc/arm-none-eabi/9.3.1/../../../../arm-none-eabi/lib/thumb/v7e-m+dp/hard\libc.a(lib_a-stdio.o)
                0x0804215c                __swrite
 .text.__sseek  0x0804219c       0x20 c:/program files (x86)/gnu arm embedded toolchain/9 2020-q2-update/bin/../lib/gcc/arm-none-eabi/9.3.1/../../../../arm-none-eabi/lib/thumb/v7e-m+dp/hard\libc.a(lib_a-stdio.o)
                0x0804219c                __sseek
 .text.__sclose
                0x080421bc        0x8 c:/program files (x86)/gnu arm embedded toolchain/9 2020-q2-update/bin/../lib/gcc/arm-none-eabi/9.3.1/../../../../arm-none-eabi/lib/thumb/v7e-m+dp/hard\libc.a(lib_a-stdio.o)
                0x080421bc                __sclose
 .text.strcat   0x080421c4       0x40 c:/program files (x86)/gnu arm embedded toolchain/9 2020-q2-update/bin/../lib/gcc/arm-none-eabi/9.3.1/../../../../arm-none-eabi/lib/thumb/v7e-m+dp/hard\libc.a(lib_a-strcat.o)
                0x080421c4                strcat
 .text.strchr   0x08042204       0xd0 c:/program files (x86)/gnu arm embedded toolchain/9 2020-q2-update/bin/../lib/gcc/arm-none-eabi/9.3.1/../../../../arm-none-eabi/lib/thumb/v7e-m+dp/hard\libc.a(lib_a-strchr.o)
                0x08042204                strchr
 .text.strcpy   0x080422d4       0xbc c:/program files (x86)/gnu arm embedded toolchain/9 2020-q2-update/bin/../lib/gcc/arm-none-eabi/9.3.1/../../../../arm-none-eabi/lib/thumb/v7e-m+dp/hard\libc.a(lib_a-strcpy.o)
                0x080422d4                strcpy
 .text.strncat  0x08042390       0x5c c:/program files (x86)/gnu arm embedded toolchain/9 2020-q2-update/bin/../lib/gcc/arm-none-eabi/9.3.1/../../../../arm-none-eabi/lib/thumb/v7e-m+dp/hard\libc.a(lib_a-strncat.o)
                0x08042390                strncat
 .text.strncmp  0x080423ec       0x7c c:/program files (x86)/gnu arm embedded toolchain/9 2020-q2-update/bin/../lib/gcc/arm-none-eabi/9.3.1/../../../../arm-none-eabi/lib/thumb/v7e-m+dp/hard\libc.a(lib_a-strncmp.o)
                0x080423ec                strncmp
 .text.strncpy  0x08042468       0x68 c:/program files (x86)/gnu arm embedded toolchain/9 2020-q2-update/bin/../lib/gcc/arm-none-eabi/9.3.1/../../../../arm-none-eabi/lib/thumb/v7e-m+dp/hard\libc.a(lib_a-strncpy.o)
                0x08042468                strncpy
 .text.sulp     0x080424d0       0x34 c:/program files (x86)/gnu arm embedded toolchain/9 2020-q2-update/bin/../lib/gcc/arm-none-eabi/9.3.1/../../../../arm-none-eabi/lib/thumb/v7e-m+dp/hard\libc.a(lib_a-strtod.o)
 *fill*         0x08042504        0x4 
 .text._strtod_l
                0x08042508      0xebc c:/program files (x86)/gnu arm embedded toolchain/9 2020-q2-update/bin/../lib/gcc/arm-none-eabi/9.3.1/../../../../arm-none-eabi/lib/thumb/v7e-m+dp/hard\libc.a(lib_a-strtod.o)
                0x08042508                _strtod_l
 .text._strtod_r
                0x080433c4        0xc c:/program files (x86)/gnu arm embedded toolchain/9 2020-q2-update/bin/../lib/gcc/arm-none-eabi/9.3.1/../../../../arm-none-eabi/lib/thumb/v7e-m+dp/hard\libc.a(lib_a-strtod.o)
                0x080433c4                _strtod_r
 .text.strtod_l
                0x080433d0       0x18 c:/program files (x86)/gnu arm embedded toolchain/9 2020-q2-update/bin/../lib/gcc/arm-none-eabi/9.3.1/../../../../arm-none-eabi/lib/thumb/v7e-m+dp/hard\libc.a(lib_a-strtod.o)
                0x080433d0                strtod_l
 .text.strtod   0x080433e8       0x1c c:/program files (x86)/gnu arm embedded toolchain/9 2020-q2-update/bin/../lib/gcc/arm-none-eabi/9.3.1/../../../../arm-none-eabi/lib/thumb/v7e-m+dp/hard\libc.a(lib_a-strtod.o)
                0x080433e8                strtod
 *fill*         0x08043404        0x4 
 .text.strtof_l
                0x08043408       0x84 c:/program files (x86)/gnu arm embedded toolchain/9 2020-q2-update/bin/../lib/gcc/arm-none-eabi/9.3.1/../../../../arm-none-eabi/lib/thumb/v7e-m+dp/hard\libc.a(lib_a-strtod.o)
                0x08043408                strtof_l
 *fill*         0x0804348c        0x4 
 .text.strtof   0x08043490       0x88 c:/program files (x86)/gnu arm embedded toolchain/9 2020-q2-update/bin/../lib/gcc/arm-none-eabi/9.3.1/../../../../arm-none-eabi/lib/thumb/v7e-m+dp/hard\libc.a(lib_a-strtod.o)
                0x08043490                strtof
 .text._strtol_l.isra.0
                0x08043518      0x12c c:/program files (x86)/gnu arm embedded toolchain/9 2020-q2-update/bin/../lib/gcc/arm-none-eabi/9.3.1/../../../../arm-none-eabi/lib/thumb/v7e-m+dp/hard\libc.a(lib_a-strtol.o)
 .text._strtol_r
                0x08043644        0x4 c:/program files (x86)/gnu arm embedded toolchain/9 2020-q2-update/bin/../lib/gcc/arm-none-eabi/9.3.1/../../../../arm-none-eabi/lib/thumb/v7e-m+dp/hard\libc.a(lib_a-strtol.o)
                0x08043644                _strtol_r
 .text.strtol_l
                0x08043648       0x18 c:/program files (x86)/gnu arm embedded toolchain/9 2020-q2-update/bin/../lib/gcc/arm-none-eabi/9.3.1/../../../../arm-none-eabi/lib/thumb/v7e-m+dp/hard\libc.a(lib_a-strtol.o)
                0x08043648                strtol_l
 .text.strtol   0x08043660       0x18 c:/program files (x86)/gnu arm embedded toolchain/9 2020-q2-update/bin/../lib/gcc/arm-none-eabi/9.3.1/../../../../arm-none-eabi/lib/thumb/v7e-m+dp/hard\libc.a(lib_a-strtol.o)
                0x08043660                strtol
 .text._strtoul_l.isra.0
                0x08043678      0x13c c:/program files (x86)/gnu arm embedded toolchain/9 2020-q2-update/bin/../lib/gcc/arm-none-eabi/9.3.1/../../../../arm-none-eabi/lib/thumb/v7e-m+dp/hard\libc.a(lib_a-strtoul.o)
 .text._strtoul_r
                0x080437b4        0x4 c:/program files (x86)/gnu arm embedded toolchain/9 2020-q2-update/bin/../lib/gcc/arm-none-eabi/9.3.1/../../../../arm-none-eabi/lib/thumb/v7e-m+dp/hard\libc.a(lib_a-strtoul.o)
                0x080437b4                _strtoul_r
 .text.strtoul_l
                0x080437b8       0x18 c:/program files (x86)/gnu arm embedded toolchain/9 2020-q2-update/bin/../lib/gcc/arm-none-eabi/9.3.1/../../../../arm-none-eabi/lib/thumb/v7e-m+dp/hard\libc.a(lib_a-strtoul.o)
                0x080437b8                strtoul_l
 .text.strtoul  0x080437d0       0x18 c:/program files (x86)/gnu arm embedded toolchain/9 2020-q2-update/bin/../lib/gcc/arm-none-eabi/9.3.1/../../../../arm-none-eabi/lib/thumb/v7e-m+dp/hard\libc.a(lib_a-strtoul.o)
                0x080437d0                strtoul
 .text._strtoull_l.isra.0
                0x080437e8      0x1b8 c:/program files (x86)/gnu arm embedded toolchain/9 2020-q2-update/bin/../lib/gcc/arm-none-eabi/9.3.1/../../../../arm-none-eabi/lib/thumb/v7e-m+dp/hard\libc.a(lib_a-strtoull.o)
 .text._strtoull_r
                0x080439a0        0x4 c:/program files (x86)/gnu arm embedded toolchain/9 2020-q2-update/bin/../lib/gcc/arm-none-eabi/9.3.1/../../../../arm-none-eabi/lib/thumb/v7e-m+dp/hard\libc.a(lib_a-strtoull.o)
                0x080439a0                _strtoull_r
 .text.strtoull_l
                0x080439a4       0x18 c:/program files (x86)/gnu arm embedded toolchain/9 2020-q2-update/bin/../lib/gcc/arm-none-eabi/9.3.1/../../../../arm-none-eabi/lib/thumb/v7e-m+dp/hard\libc.a(lib_a-strtoull.o)
                0x080439a4                strtoull_l
 .text.strtoull
                0x080439bc       0x18 c:/program files (x86)/gnu arm embedded toolchain/9 2020-q2-update/bin/../lib/gcc/arm-none-eabi/9.3.1/../../../../arm-none-eabi/lib/thumb/v7e-m+dp/hard\libc.a(lib_a-strtoull.o)
                0x080439bc                strtoull
 *fill*         0x080439d4        0x4 
 .text._svfprintf_r
                0x080439d8     0x1918 c:/program files (x86)/gnu arm embedded toolchain/9 2020-q2-update/bin/../lib/gcc/arm-none-eabi/9.3.1/../../../../arm-none-eabi/lib/thumb/v7e-m+dp/hard\libc.a(lib_a-svfprintf.o)
                0x080439d8                _svfprintf_r
 .text.__ssvfscanf_r
                0x080452f0     0x16ac c:/program files (x86)/gnu arm embedded toolchain/9 2020-q2-update/bin/../lib/gcc/arm-none-eabi/9.3.1/../../../../arm-none-eabi/lib/thumb/v7e-m+dp/hard\libc.a(lib_a-svfscanf.o)
                0x080452f0                __ssvfscanf_r
 .text.tolower  0x0804699c       0x14 c:/program files (x86)/gnu arm embedded toolchain/9 2020-q2-update/bin/../lib/gcc/arm-none-eabi/9.3.1/../../../../arm-none-eabi/lib/thumb/v7e-m+dp/hard\libc.a(lib_a-tolower.o)
                0x0804699c                tolower
 .text.__tzcalc_limits
                0x080469b0      0x194 c:/program files (x86)/gnu arm embedded toolchain/9 2020-q2-update/bin/../lib/gcc/arm-none-eabi/9.3.1/../../../../arm-none-eabi/lib/thumb/v7e-m+dp/hard\libc.a(lib_a-tzcalc_limits.o)
                0x080469b0                __tzcalc_limits
 .text.__tz_lock
                0x08046b44        0xc c:/program files (x86)/gnu arm embedded toolchain/9 2020-q2-update/bin/../lib/gcc/arm-none-eabi/9.3.1/../../../../arm-none-eabi/lib/thumb/v7e-m+dp/hard\libc.a(lib_a-tzlock.o)
                0x08046b44                __tz_lock
 .text.__tz_unlock
                0x08046b50        0xc c:/program files (x86)/gnu arm embedded toolchain/9 2020-q2-update/bin/../lib/gcc/arm-none-eabi/9.3.1/../../../../arm-none-eabi/lib/thumb/v7e-m+dp/hard\libc.a(lib_a-tzlock.o)
                0x08046b50                __tz_unlock
 .text._tzset_unlocked
                0x08046b5c        0xc c:/program files (x86)/gnu arm embedded toolchain/9 2020-q2-update/bin/../lib/gcc/arm-none-eabi/9.3.1/../../../../arm-none-eabi/lib/thumb/v7e-m+dp/hard\libc.a(lib_a-tzset.o)
                0x08046b5c                _tzset_unlocked
 .text.tzset    0x08046b68       0x1c c:/program files (x86)/gnu arm embedded toolchain/9 2020-q2-update/bin/../lib/gcc/arm-none-eabi/9.3.1/../../../../arm-none-eabi/lib/thumb/v7e-m+dp/hard\libc.a(lib_a-tzset.o)
                0x08046b68                tzset
 .text._tzset_unlocked_r
                0x08046b84      0x328 c:/program files (x86)/gnu arm embedded toolchain/9 2020-q2-update/bin/../lib/gcc/arm-none-eabi/9.3.1/../../../../arm-none-eabi/lib/thumb/v7e-m+dp/hard\libc.a(lib_a-tzset_r.o)
                0x08046b84                _tzset_unlocked_r
 .text._tzset_r
                0x08046eac       0x1c c:/program files (x86)/gnu arm embedded toolchain/9 2020-q2-update/bin/../lib/gcc/arm-none-eabi/9.3.1/../../../../arm-none-eabi/lib/thumb/v7e-m+dp/hard\libc.a(lib_a-tzset_r.o)
                0x08046eac                _tzset_r
 .text._vfprintf_r
                0x08046ec8     0x19e0 c:/program files (x86)/gnu arm embedded toolchain/9 2020-q2-update/bin/../lib/gcc/arm-none-eabi/9.3.1/../../../../arm-none-eabi/lib/thumb/v7e-m+dp/hard\libc.a(lib_a-vfprintf.o)
                0x08046ec8                _vfprintf_r
 .text.vfprintf
                0x080488a8       0x18 c:/program files (x86)/gnu arm embedded toolchain/9 2020-q2-update/bin/../lib/gcc/arm-none-eabi/9.3.1/../../../../arm-none-eabi/lib/thumb/v7e-m+dp/hard\libc.a(lib_a-vfprintf.o)
                0x080488a8                vfprintf
 .text.__sbprintf
                0x080488c0       0x84 c:/program files (x86)/gnu arm embedded toolchain/9 2020-q2-update/bin/../lib/gcc/arm-none-eabi/9.3.1/../../../../arm-none-eabi/lib/thumb/v7e-m+dp/hard\libc.a(lib_a-vfprintf.o)
 .text._vsnprintf_r
                0x08048944       0x70 c:/program files (x86)/gnu arm embedded toolchain/9 2020-q2-update/bin/../lib/gcc/arm-none-eabi/9.3.1/../../../../arm-none-eabi/lib/thumb/v7e-m+dp/hard\libc.a(lib_a-vsnprintf.o)
                0x08048944                _vsnprintf_r
 .text.vsnprintf
                0x080489b4       0x20 c:/program files (x86)/gnu arm embedded toolchain/9 2020-q2-update/bin/../lib/gcc/arm-none-eabi/9.3.1/../../../../arm-none-eabi/lib/thumb/v7e-m+dp/hard\libc.a(lib_a-vsnprintf.o)
                0x080489b4                vsnprintf
 .text._write_r
                0x080489d4       0x2c c:/program files (x86)/gnu arm embedded toolchain/9 2020-q2-update/bin/../lib/gcc/arm-none-eabi/9.3.1/../../../../arm-none-eabi/lib/thumb/v7e-m+dp/hard\libc.a(lib_a-writer.o)
                0x080489d4                _write_r
 .text.__swsetup_r
                0x08048a00       0xd0 c:/program files (x86)/gnu arm embedded toolchain/9 2020-q2-update/bin/../lib/gcc/arm-none-eabi/9.3.1/../../../../arm-none-eabi/lib/thumb/v7e-m+dp/hard\libc.a(lib_a-wsetup.o)
                0x08048a00                __swsetup_r
 .text.__register_exitproc
                0x08048ad0       0x8c c:/program files (x86)/gnu arm embedded toolchain/9 2020-q2-update/bin/../lib/gcc/arm-none-eabi/9.3.1/../../../../arm-none-eabi/lib/thumb/v7e-m+dp/hard\libc.a(lib_a-__atexit.o)
                0x08048ad0                __register_exitproc
 .text.startup.register_fini
                0x08048b5c       0x14 c:/program files (x86)/gnu arm embedded toolchain/9 2020-q2-update/bin/../lib/gcc/arm-none-eabi/9.3.1/../../../../arm-none-eabi/lib/thumb/v7e-m+dp/hard\libc.a(lib_a-__call_atexit.o)
 .text.__call_exitprocs
                0x08048b70       0xcc c:/program files (x86)/gnu arm embedded toolchain/9 2020-q2-update/bin/../lib/gcc/arm-none-eabi/9.3.1/../../../../arm-none-eabi/lib/thumb/v7e-m+dp/hard\libc.a(lib_a-__call_atexit.o)
                0x08048b70                __call_exitprocs
 .text._close_r
                0x08048c3c       0x24 c:/program files (x86)/gnu arm embedded toolchain/9 2020-q2-update/bin/../lib/gcc/arm-none-eabi/9.3.1/../../../../arm-none-eabi/lib/thumb/v7e-m+dp/hard\libc.a(lib_a-closer.o)
                0x08048c3c                _close_r
 .text.div      0x08048c60       0x40 c:/program files (x86)/gnu arm embedded toolchain/9 2020-q2-update/bin/../lib/gcc/arm-none-eabi/9.3.1/../../../../arm-none-eabi/lib/thumb/v7e-m+dp/hard\libc.a(lib_a-div.o)
                0x08048c60                div
 .text.quorem   0x08048ca0      0x11c c:/program files (x86)/gnu arm embedded toolchain/9 2020-q2-update/bin/../lib/gcc/arm-none-eabi/9.3.1/../../../../arm-none-eabi/lib/thumb/v7e-m+dp/hard\libc.a(lib_a-dtoa.o)
 *fill*         0x08048dbc        0x4 
 .text._dtoa_r  0x08048dc0      0xcfc c:/program files (x86)/gnu arm embedded toolchain/9 2020-q2-update/bin/../lib/gcc/arm-none-eabi/9.3.1/../../../../arm-none-eabi/lib/thumb/v7e-m+dp/hard\libc.a(lib_a-dtoa.o)
                0x08048dc0                _dtoa_r
 .text.__errno  0x08049abc        0xc c:/program files (x86)/gnu arm embedded toolchain/9 2020-q2-update/bin/../lib/gcc/arm-none-eabi/9.3.1/../../../../arm-none-eabi/lib/thumb/v7e-m+dp/hard\libc.a(lib_a-errno.o)
                0x08049abc                __errno
 .text.__sflush_r
                0x08049ac8      0x130 c:/program files (x86)/gnu arm embedded toolchain/9 2020-q2-update/bin/../lib/gcc/arm-none-eabi/9.3.1/../../../../arm-none-eabi/lib/thumb/v7e-m+dp/hard\libc.a(lib_a-fflush.o)
                0x08049ac8                __sflush_r
 .text._fflush_r
                0x08049bf8       0x5c c:/program files (x86)/gnu arm embedded toolchain/9 2020-q2-update/bin/../lib/gcc/arm-none-eabi/9.3.1/../../../../arm-none-eabi/lib/thumb/v7e-m+dp/hard\libc.a(lib_a-fflush.o)
                0x08049bf8                _fflush_r
 .text.fflush   0x08049c54       0x24 c:/program files (x86)/gnu arm embedded toolchain/9 2020-q2-update/bin/../lib/gcc/arm-none-eabi/9.3.1/../../../../arm-none-eabi/lib/thumb/v7e-m+dp/hard\libc.a(lib_a-fflush.o)
                0x08049c54                fflush
 .text.std      0x08049c78       0x50 c:/program files (x86)/gnu arm embedded toolchain/9 2020-q2-update/bin/../lib/gcc/arm-none-eabi/9.3.1/../../../../arm-none-eabi/lib/thumb/v7e-m+dp/hard\libc.a(lib_a-findfp.o)
 .text._cleanup_r
                0x08049cc8        0xc c:/program files (x86)/gnu arm embedded toolchain/9 2020-q2-update/bin/../lib/gcc/arm-none-eabi/9.3.1/../../../../arm-none-eabi/lib/thumb/v7e-m+dp/hard\libc.a(lib_a-findfp.o)
                0x08049cc8                _cleanup_r
 .text.__fp_lock
                0x08049cd4       0x1c c:/program files (x86)/gnu arm embedded toolchain/9 2020-q2-update/bin/../lib/gcc/arm-none-eabi/9.3.1/../../../../arm-none-eabi/lib/thumb/v7e-m+dp/hard\libc.a(lib_a-findfp.o)
 .text.__fp_unlock
                0x08049cf0       0x1c c:/program files (x86)/gnu arm embedded toolchain/9 2020-q2-update/bin/../lib/gcc/arm-none-eabi/9.3.1/../../../../arm-none-eabi/lib/thumb/v7e-m+dp/hard\libc.a(lib_a-findfp.o)
 .text.__sfmoreglue
                0x08049d0c       0x30 c:/program files (x86)/gnu arm embedded toolchain/9 2020-q2-update/bin/../lib/gcc/arm-none-eabi/9.3.1/../../../../arm-none-eabi/lib/thumb/v7e-m+dp/hard\libc.a(lib_a-findfp.o)
                0x08049d0c                __sfmoreglue
 .text._cleanup
                0x08049d3c       0x14 c:/program files (x86)/gnu arm embedded toolchain/9 2020-q2-update/bin/../lib/gcc/arm-none-eabi/9.3.1/../../../../arm-none-eabi/lib/thumb/v7e-m+dp/hard\libc.a(lib_a-findfp.o)
                0x08049d3c                _cleanup
 .text.__sinit  0x08049d50       0x54 c:/program files (x86)/gnu arm embedded toolchain/9 2020-q2-update/bin/../lib/gcc/arm-none-eabi/9.3.1/../../../../arm-none-eabi/lib/thumb/v7e-m+dp/hard\libc.a(lib_a-findfp.o)
                0x08049d50                __sinit
 .text.__sfp    0x08049da4       0xa4 c:/program files (x86)/gnu arm embedded toolchain/9 2020-q2-update/bin/../lib/gcc/arm-none-eabi/9.3.1/../../../../arm-none-eabi/lib/thumb/v7e-m+dp/hard\libc.a(lib_a-findfp.o)
                0x08049da4                __sfp
 .text.__sfp_lock_acquire
                0x08049e48        0xc c:/program files (x86)/gnu arm embedded toolchain/9 2020-q2-update/bin/../lib/gcc/arm-none-eabi/9.3.1/../../../../arm-none-eabi/lib/thumb/v7e-m+dp/hard\libc.a(lib_a-findfp.o)
                0x08049e48                __sfp_lock_acquire
 .text.__sfp_lock_release
                0x08049e54        0xc c:/program files (x86)/gnu arm embedded toolchain/9 2020-q2-update/bin/../lib/gcc/arm-none-eabi/9.3.1/../../../../arm-none-eabi/lib/thumb/v7e-m+dp/hard\libc.a(lib_a-findfp.o)
                0x08049e54                __sfp_lock_release
 .text.__sinit_lock_acquire
                0x08049e60        0xc c:/program files (x86)/gnu arm embedded toolchain/9 2020-q2-update/bin/../lib/gcc/arm-none-eabi/9.3.1/../../../../arm-none-eabi/lib/thumb/v7e-m+dp/hard\libc.a(lib_a-findfp.o)
                0x08049e60                __sinit_lock_acquire
 .text.__sinit_lock_release
                0x08049e6c        0xc c:/program files (x86)/gnu arm embedded toolchain/9 2020-q2-update/bin/../lib/gcc/arm-none-eabi/9.3.1/../../../../arm-none-eabi/lib/thumb/v7e-m+dp/hard\libc.a(lib_a-findfp.o)
                0x08049e6c                __sinit_lock_release
 .text.__fp_lock_all
                0x08049e78       0x24 c:/program files (x86)/gnu arm embedded toolchain/9 2020-q2-update/bin/../lib/gcc/arm-none-eabi/9.3.1/../../../../arm-none-eabi/lib/thumb/v7e-m+dp/hard\libc.a(lib_a-findfp.o)
                0x08049e78                __fp_lock_all
 .text.__fp_unlock_all
                0x08049e9c       0x24 c:/program files (x86)/gnu arm embedded toolchain/9 2020-q2-update/bin/../lib/gcc/arm-none-eabi/9.3.1/../../../../arm-none-eabi/lib/thumb/v7e-m+dp/hard\libc.a(lib_a-findfp.o)
                0x08049e9c                __fp_unlock_all
 .text.__libc_fini_array
                0x08049ec0       0x2c c:/program files (x86)/gnu arm embedded toolchain/9 2020-q2-update/bin/../lib/gcc/arm-none-eabi/9.3.1/../../../../arm-none-eabi/lib/thumb/v7e-m+dp/hard\libc.a(lib_a-fini.o)
                0x08049ec0                __libc_fini_array
 .text._malloc_trim_r
                0x08049eec       0xa0 c:/program files (x86)/gnu arm embedded toolchain/9 2020-q2-update/bin/../lib/gcc/arm-none-eabi/9.3.1/../../../../arm-none-eabi/lib/thumb/v7e-m+dp/hard\libc.a(lib_a-freer.o)
                0x08049eec                _malloc_trim_r
 .text._free_r  0x08049f8c      0x208 c:/program files (x86)/gnu arm embedded toolchain/9 2020-q2-update/bin/../lib/gcc/arm-none-eabi/9.3.1/../../../../arm-none-eabi/lib/thumb/v7e-m+dp/hard\libc.a(lib_a-freer.o)
                0x08049f8c                _free_r
 .text._fwalk   0x0804a194       0x40 c:/program files (x86)/gnu arm embedded toolchain/9 2020-q2-update/bin/../lib/gcc/arm-none-eabi/9.3.1/../../../../arm-none-eabi/lib/thumb/v7e-m+dp/hard\libc.a(lib_a-fwalk.o)
                0x0804a194                _fwalk
 .text._fwalk_reent
                0x0804a1d4       0x48 c:/program files (x86)/gnu arm embedded toolchain/9 2020-q2-update/bin/../lib/gcc/arm-none-eabi/9.3.1/../../../../arm-none-eabi/lib/thumb/v7e-m+dp/hard\libc.a(lib_a-fwalk.o)
                0x0804a1d4                _fwalk_reent
 .text.rshift   0x0804a21c       0xa4 c:/program files (x86)/gnu arm embedded toolchain/9 2020-q2-update/bin/../lib/gcc/arm-none-eabi/9.3.1/../../../../arm-none-eabi/lib/thumb/v7e-m+dp/hard\libc.a(lib_a-gdtoa-gethex.o)
 .text.__gethex
                0x0804a2c0      0x570 c:/program files (x86)/gnu arm embedded toolchain/9 2020-q2-update/bin/../lib/gcc/arm-none-eabi/9.3.1/../../../../arm-none-eabi/lib/thumb/v7e-m+dp/hard\libc.a(lib_a-gdtoa-gethex.o)
                0x0804a2c0                __gethex
 .text.__match  0x0804a830       0x30 c:/program files (x86)/gnu arm embedded toolchain/9 2020-q2-update/bin/../lib/gcc/arm-none-eabi/9.3.1/../../../../arm-none-eabi/lib/thumb/v7e-m+dp/hard\libc.a(lib_a-gdtoa-hexnan.o)
                0x0804a830                __match
 .text.__hexnan
                0x0804a860      0x1a4 c:/program files (x86)/gnu arm embedded toolchain/9 2020-q2-update/bin/../lib/gcc/arm-none-eabi/9.3.1/../../../../arm-none-eabi/lib/thumb/v7e-m+dp/hard\libc.a(lib_a-gdtoa-hexnan.o)
                0x0804a860                __hexnan
 .text._findenv_r
                0x0804aa04       0x80 c:/program files (x86)/gnu arm embedded toolchain/9 2020-q2-update/bin/../lib/gcc/arm-none-eabi/9.3.1/../../../../arm-none-eabi/lib/thumb/v7e-m+dp/hard\libc.a(lib_a-getenv_r.o)
                0x0804aa04                _findenv_r
 .text._getenv_r
                0x0804aa84       0x10 c:/program files (x86)/gnu arm embedded toolchain/9 2020-q2-update/bin/../lib/gcc/arm-none-eabi/9.3.1/../../../../arm-none-eabi/lib/thumb/v7e-m+dp/hard\libc.a(lib_a-getenv_r.o)
                0x0804aa84                _getenv_r
 .text.__gettzinfo
                0x0804aa94        0x8 c:/program files (x86)/gnu arm embedded toolchain/9 2020-q2-update/bin/../lib/gcc/arm-none-eabi/9.3.1/../../../../arm-none-eabi/lib/thumb/v7e-m+dp/hard\libc.a(lib_a-gettzinfo.o)
                0x0804aa94                __gettzinfo
 .text.gmtime_r
                0x0804aa9c      0x1cc c:/program files (x86)/gnu arm embedded toolchain/9 2020-q2-update/bin/../lib/gcc/arm-none-eabi/9.3.1/../../../../arm-none-eabi/lib/thumb/v7e-m+dp/hard\libc.a(lib_a-gmtime_r.o)
                0x0804aa9c                gmtime_r
 .text.iswspace
                0x0804ac68        0x8 c:/program files (x86)/gnu arm embedded toolchain/9 2020-q2-update/bin/../lib/gcc/arm-none-eabi/9.3.1/../../../../arm-none-eabi/lib/thumb/v7e-m+dp/hard\libc.a(lib_a-iswspace.o)
                0x0804ac68                iswspace
 .text.iswspace_l
                0x0804ac70       0x14 c:/program files (x86)/gnu arm embedded toolchain/9 2020-q2-update/bin/../lib/gcc/arm-none-eabi/9.3.1/../../../../arm-none-eabi/lib/thumb/v7e-m+dp/hard\libc.a(lib_a-iswspace_l.o)
                0x0804ac70                iswspace_l
 .text.__numeric_load_locale
                0x0804ac84        0x4 c:/program files (x86)/gnu arm embedded toolchain/9 2020-q2-update/bin/../lib/gcc/arm-none-eabi/9.3.1/../../../../arm-none-eabi/lib/thumb/v7e-m+dp/hard\libc.a(lib_a-lnumeric.o)
                0x0804ac84                __numeric_load_locale
 .text._setlocale_r
                0x0804ac88       0x40 c:/program files (x86)/gnu arm embedded toolchain/9 2020-q2-update/bin/../lib/gcc/arm-none-eabi/9.3.1/../../../../arm-none-eabi/lib/thumb/v7e-m+dp/hard\libc.a(lib_a-locale.o)
                0x0804ac88                _setlocale_r
 .text.__locale_mb_cur_max
                0x0804acc8        0xc c:/program files (x86)/gnu arm embedded toolchain/9 2020-q2-update/bin/../lib/gcc/arm-none-eabi/9.3.1/../../../../arm-none-eabi/lib/thumb/v7e-m+dp/hard\libc.a(lib_a-locale.o)
                0x0804acc8                __locale_mb_cur_max
 .text.setlocale
                0x0804acd4       0x10 c:/program files (x86)/gnu arm embedded toolchain/9 2020-q2-update/bin/../lib/gcc/arm-none-eabi/9.3.1/../../../../arm-none-eabi/lib/thumb/v7e-m+dp/hard\libc.a(lib_a-locale.o)
                0x0804acd4                setlocale
 .text.__localeconv_l
                0x0804ace4        0x4 c:/program files (x86)/gnu arm embedded toolchain/9 2020-q2-update/bin/../lib/gcc/arm-none-eabi/9.3.1/../../../../arm-none-eabi/lib/thumb/v7e-m+dp/hard\libc.a(lib_a-localeconv.o)
                0x0804ace4                __localeconv_l
 .text._localeconv_r
                0x0804ace8        0x8 c:/program files (x86)/gnu arm embedded toolchain/9 2020-q2-update/bin/../lib/gcc/arm-none-eabi/9.3.1/../../../../arm-none-eabi/lib/thumb/v7e-m+dp/hard\libc.a(lib_a-localeconv.o)
                0x0804ace8                _localeconv_r
 .text.localeconv
                0x0804acf0        0x8 c:/program files (x86)/gnu arm embedded toolchain/9 2020-q2-update/bin/../lib/gcc/arm-none-eabi/9.3.1/../../../../arm-none-eabi/lib/thumb/v7e-m+dp/hard\libc.a(lib_a-localeconv.o)
                0x0804acf0                localeconv
 .text.__retarget_lock_init
                0x0804acf8        0x4 c:/program files (x86)/gnu arm embedded toolchain/9 2020-q2-update/bin/../lib/gcc/arm-none-eabi/9.3.1/../../../../arm-none-eabi/lib/thumb/v7e-m+dp/hard\libc.a(lib_a-lock.o)
                0x0804acf8                __retarget_lock_init
 .text.__retarget_lock_init_recursive
                0x0804acfc        0x4 c:/program files (x86)/gnu arm embedded toolchain/9 2020-q2-update/bin/../lib/gcc/arm-none-eabi/9.3.1/../../../../arm-none-eabi/lib/thumb/v7e-m+dp/hard\libc.a(lib_a-lock.o)
                0x0804acfc                __retarget_lock_init_recursive
 .text.__retarget_lock_close
                0x0804ad00        0x4 c:/program files (x86)/gnu arm embedded toolchain/9 2020-q2-update/bin/../lib/gcc/arm-none-eabi/9.3.1/../../../../arm-none-eabi/lib/thumb/v7e-m+dp/hard\libc.a(lib_a-lock.o)
                0x0804ad00                __retarget_lock_close
 .text.__retarget_lock_close_recursive
                0x0804ad04        0x4 c:/program files (x86)/gnu arm embedded toolchain/9 2020-q2-update/bin/../lib/gcc/arm-none-eabi/9.3.1/../../../../arm-none-eabi/lib/thumb/v7e-m+dp/hard\libc.a(lib_a-lock.o)
                0x0804ad04                __retarget_lock_close_recursive
 .text.__retarget_lock_acquire
                0x0804ad08        0x4 c:/program files (x86)/gnu arm embedded toolchain/9 2020-q2-update/bin/../lib/gcc/arm-none-eabi/9.3.1/../../../../arm-none-eabi/lib/thumb/v7e-m+dp/hard\libc.a(lib_a-lock.o)
                0x0804ad08                __retarget_lock_acquire
 .text.__retarget_lock_acquire_recursive
                0x0804ad0c        0x4 c:/program files (x86)/gnu arm embedded toolchain/9 2020-q2-update/bin/../lib/gcc/arm-none-eabi/9.3.1/../../../../arm-none-eabi/lib/thumb/v7e-m+dp/hard\libc.a(lib_a-lock.o)
                0x0804ad0c                __retarget_lock_acquire_recursive
 .text.__retarget_lock_try_acquire
                0x0804ad10        0x4 c:/program files (x86)/gnu arm embedded toolchain/9 2020-q2-update/bin/../lib/gcc/arm-none-eabi/9.3.1/../../../../arm-none-eabi/lib/thumb/v7e-m+dp/hard\libc.a(lib_a-lock.o)
                0x0804ad10                __retarget_lock_try_acquire
 .text.__retarget_lock_try_acquire_recursive
                0x0804ad14        0x4 c:/program files (x86)/gnu arm embedded toolchain/9 2020-q2-update/bin/../lib/gcc/arm-none-eabi/9.3.1/../../../../arm-none-eabi/lib/thumb/v7e-m+dp/hard\libc.a(lib_a-lock.o)
                0x0804ad14                __retarget_lock_try_acquire_recursive
 .text.__retarget_lock_release
                0x0804ad18        0x4 c:/program files (x86)/gnu arm embedded toolchain/9 2020-q2-update/bin/../lib/gcc/arm-none-eabi/9.3.1/../../../../arm-none-eabi/lib/thumb/v7e-m+dp/hard\libc.a(lib_a-lock.o)
                0x0804ad18                __retarget_lock_release
 .text.__retarget_lock_release_recursive
                0x0804ad1c        0x4 c:/program files (x86)/gnu arm embedded toolchain/9 2020-q2-update/bin/../lib/gcc/arm-none-eabi/9.3.1/../../../../arm-none-eabi/lib/thumb/v7e-m+dp/hard\libc.a(lib_a-lock.o)
                0x0804ad1c                __retarget_lock_release_recursive
 .text._lseek_r
                0x0804ad20       0x2c c:/program files (x86)/gnu arm embedded toolchain/9 2020-q2-update/bin/../lib/gcc/arm-none-eabi/9.3.1/../../../../arm-none-eabi/lib/thumb/v7e-m+dp/hard\libc.a(lib_a-lseekr.o)
                0x0804ad20                _lseek_r
 .text.__swhatbuf_r
                0x0804ad4c       0x5c c:/program files (x86)/gnu arm embedded toolchain/9 2020-q2-update/bin/../lib/gcc/arm-none-eabi/9.3.1/../../../../arm-none-eabi/lib/thumb/v7e-m+dp/hard\libc.a(lib_a-makebuf.o)
                0x0804ad4c                __swhatbuf_r
 .text.__smakebuf_r
                0x0804ada8       0x98 c:/program files (x86)/gnu arm embedded toolchain/9 2020-q2-update/bin/../lib/gcc/arm-none-eabi/9.3.1/../../../../arm-none-eabi/lib/thumb/v7e-m+dp/hard\libc.a(lib_a-makebuf.o)
                0x0804ada8                __smakebuf_r
 .text.malloc   0x0804ae40       0x10 c:/program files (x86)/gnu arm embedded toolchain/9 2020-q2-update/bin/../lib/gcc/arm-none-eabi/9.3.1/../../../../arm-none-eabi/lib/thumb/v7e-m+dp/hard\libc.a(lib_a-malloc.o)
                0x0804ae40                malloc
 .text.free     0x0804ae50       0x10 c:/program files (x86)/gnu arm embedded toolchain/9 2020-q2-update/bin/../lib/gcc/arm-none-eabi/9.3.1/../../../../arm-none-eabi/lib/thumb/v7e-m+dp/hard\libc.a(lib_a-malloc.o)
                0x0804ae50                free
 .text._malloc_r
                0x0804ae60      0x574 c:/program files (x86)/gnu arm embedded toolchain/9 2020-q2-update/bin/../lib/gcc/arm-none-eabi/9.3.1/../../../../arm-none-eabi/lib/thumb/v7e-m+dp/hard\libc.a(lib_a-mallocr.o)
                0x0804ae60                _malloc_r
 .text._mbrtowc_r
                0x0804b3d4       0x44 c:/program files (x86)/gnu arm embedded toolchain/9 2020-q2-update/bin/../lib/gcc/arm-none-eabi/9.3.1/../../../../arm-none-eabi/lib/thumb/v7e-m+dp/hard\libc.a(lib_a-mbrtowc.o)
                0x0804b3d4                _mbrtowc_r
 .text.mbrtowc  0x0804b418       0x54 c:/program files (x86)/gnu arm embedded toolchain/9 2020-q2-update/bin/../lib/gcc/arm-none-eabi/9.3.1/../../../../arm-none-eabi/lib/thumb/v7e-m+dp/hard\libc.a(lib_a-mbrtowc.o)
                0x0804b418                mbrtowc
 .text._mbtowc_r
                0x0804b46c       0x14 c:/program files (x86)/gnu arm embedded toolchain/9 2020-q2-update/bin/../lib/gcc/arm-none-eabi/9.3.1/../../../../arm-none-eabi/lib/thumb/v7e-m+dp/hard\libc.a(lib_a-mbtowc_r.o)
                0x0804b46c                _mbtowc_r
 .text.__ascii_mbtowc
                0x0804b480       0x2c c:/program files (x86)/gnu arm embedded toolchain/9 2020-q2-update/bin/../lib/gcc/arm-none-eabi/9.3.1/../../../../arm-none-eabi/lib/thumb/v7e-m+dp/hard\libc.a(lib_a-mbtowc_r.o)
                0x0804b480                __ascii_mbtowc
 .text.__malloc_lock
                0x0804b4ac        0xc c:/program files (x86)/gnu arm embedded toolchain/9 2020-q2-update/bin/../lib/gcc/arm-none-eabi/9.3.1/../../../../arm-none-eabi/lib/thumb/v7e-m+dp/hard\libc.a(lib_a-mlock.o)
                0x0804b4ac                __malloc_lock
 .text.__malloc_unlock
                0x0804b4b8        0xc c:/program files (x86)/gnu arm embedded toolchain/9 2020-q2-update/bin/../lib/gcc/arm-none-eabi/9.3.1/../../../../arm-none-eabi/lib/thumb/v7e-m+dp/hard\libc.a(lib_a-mlock.o)
                0x0804b4b8                __malloc_unlock
 .text._Balloc  0x0804b4c4       0x4c c:/program files (x86)/gnu arm embedded toolchain/9 2020-q2-update/bin/../lib/gcc/arm-none-eabi/9.3.1/../../../../arm-none-eabi/lib/thumb/v7e-m+dp/hard\libc.a(lib_a-mprec.o)
                0x0804b4c4                _Balloc
 .text._Bfree   0x0804b510       0x14 c:/program files (x86)/gnu arm embedded toolchain/9 2020-q2-update/bin/../lib/gcc/arm-none-eabi/9.3.1/../../../../arm-none-eabi/lib/thumb/v7e-m+dp/hard\libc.a(lib_a-mprec.o)
                0x0804b510                _Bfree
 .text.__multadd
                0x0804b524       0xac c:/program files (x86)/gnu arm embedded toolchain/9 2020-q2-update/bin/../lib/gcc/arm-none-eabi/9.3.1/../../../../arm-none-eabi/lib/thumb/v7e-m+dp/hard\libc.a(lib_a-mprec.o)
                0x0804b524                __multadd
 .text.__s2b    0x0804b5d0       0xb4 c:/program files (x86)/gnu arm embedded toolchain/9 2020-q2-update/bin/../lib/gcc/arm-none-eabi/9.3.1/../../../../arm-none-eabi/lib/thumb/v7e-m+dp/hard\libc.a(lib_a-mprec.o)
                0x0804b5d0                __s2b
 .text.__hi0bits
                0x0804b684       0x40 c:/program files (x86)/gnu arm embedded toolchain/9 2020-q2-update/bin/../lib/gcc/arm-none-eabi/9.3.1/../../../../arm-none-eabi/lib/thumb/v7e-m+dp/hard\libc.a(lib_a-mprec.o)
                0x0804b684                __hi0bits
 .text.__lo0bits
                0x0804b6c4       0x60 c:/program files (x86)/gnu arm embedded toolchain/9 2020-q2-update/bin/../lib/gcc/arm-none-eabi/9.3.1/../../../../arm-none-eabi/lib/thumb/v7e-m+dp/hard\libc.a(lib_a-mprec.o)
                0x0804b6c4                __lo0bits
 .text.__i2b    0x0804b724       0x2c c:/program files (x86)/gnu arm embedded toolchain/9 2020-q2-update/bin/../lib/gcc/arm-none-eabi/9.3.1/../../../../arm-none-eabi/lib/thumb/v7e-m+dp/hard\libc.a(lib_a-mprec.o)
                0x0804b724                __i2b
 .text.__multiply
                0x0804b750      0x160 c:/program files (x86)/gnu arm embedded toolchain/9 2020-q2-update/bin/../lib/gcc/arm-none-eabi/9.3.1/../../../../arm-none-eabi/lib/thumb/v7e-m+dp/hard\libc.a(lib_a-mprec.o)
                0x0804b750                __multiply
 .text.__pow5mult
                0x0804b8b0       0x98 c:/program files (x86)/gnu arm embedded toolchain/9 2020-q2-update/bin/../lib/gcc/arm-none-eabi/9.3.1/../../../../arm-none-eabi/lib/thumb/v7e-m+dp/hard\libc.a(lib_a-mprec.o)
                0x0804b8b0                __pow5mult
 .text.__lshift
                0x0804b948       0xe8 c:/program files (x86)/gnu arm embedded toolchain/9 2020-q2-update/bin/../lib/gcc/arm-none-eabi/9.3.1/../../../../arm-none-eabi/lib/thumb/v7e-m+dp/hard\libc.a(lib_a-mprec.o)
                0x0804b948                __lshift
 .text.__mcmp   0x0804ba30       0x3c c:/program files (x86)/gnu arm embedded toolchain/9 2020-q2-update/bin/../lib/gcc/arm-none-eabi/9.3.1/../../../../arm-none-eabi/lib/thumb/v7e-m+dp/hard\libc.a(lib_a-mprec.o)
                0x0804ba30                __mcmp
 .text.__mdiff  0x0804ba6c      0x148 c:/program files (x86)/gnu arm embedded toolchain/9 2020-q2-update/bin/../lib/gcc/arm-none-eabi/9.3.1/../../../../arm-none-eabi/lib/thumb/v7e-m+dp/hard\libc.a(lib_a-mprec.o)
                0x0804ba6c                __mdiff
 .text.__ulp    0x0804bbb4       0x60 c:/program files (x86)/gnu arm embedded toolchain/9 2020-q2-update/bin/../lib/gcc/arm-none-eabi/9.3.1/../../../../arm-none-eabi/lib/thumb/v7e-m+dp/hard\libc.a(lib_a-mprec.o)
                0x0804bbb4                __ulp
 .text.__b2d    0x0804bc14       0xc4 c:/program files (x86)/gnu arm embedded toolchain/9 2020-q2-update/bin/../lib/gcc/arm-none-eabi/9.3.1/../../../../arm-none-eabi/lib/thumb/v7e-m+dp/hard\libc.a(lib_a-mprec.o)
                0x0804bc14                __b2d
 .text.__d2b    0x0804bcd8       0xd0 c:/program files (x86)/gnu arm embedded toolchain/9 2020-q2-update/bin/../lib/gcc/arm-none-eabi/9.3.1/../../../../arm-none-eabi/lib/thumb/v7e-m+dp/hard\libc.a(lib_a-mprec.o)
                0x0804bcd8                __d2b
 .text.__ratio  0x0804bda8       0x64 c:/program files (x86)/gnu arm embedded toolchain/9 2020-q2-update/bin/../lib/gcc/arm-none-eabi/9.3.1/../../../../arm-none-eabi/lib/thumb/v7e-m+dp/hard\libc.a(lib_a-mprec.o)
                0x0804bda8                __ratio
 .text._mprec_log10
                0x0804be0c       0x28 c:/program files (x86)/gnu arm embedded toolchain/9 2020-q2-update/bin/../lib/gcc/arm-none-eabi/9.3.1/../../../../arm-none-eabi/lib/thumb/v7e-m+dp/hard\libc.a(lib_a-mprec.o)
                0x0804be0c                _mprec_log10
 .text.__copybits
                0x0804be34       0x48 c:/program files (x86)/gnu arm embedded toolchain/9 2020-q2-update/bin/../lib/gcc/arm-none-eabi/9.3.1/../../../../arm-none-eabi/lib/thumb/v7e-m+dp/hard\libc.a(lib_a-mprec.o)
                0x0804be34                __copybits
 .text.__any_on
                0x0804be7c       0x64 c:/program files (x86)/gnu arm embedded toolchain/9 2020-q2-update/bin/../lib/gcc/arm-none-eabi/9.3.1/../../../../arm-none-eabi/lib/thumb/v7e-m+dp/hard\libc.a(lib_a-mprec.o)
                0x0804be7c                __any_on
 .text._read_r  0x0804bee0       0x2c c:/program files (x86)/gnu arm embedded toolchain/9 2020-q2-update/bin/../lib/gcc/arm-none-eabi/9.3.1/../../../../arm-none-eabi/lib/thumb/v7e-m+dp/hard\libc.a(lib_a-readr.o)
                0x0804bee0                _read_r
 .text.realloc  0x0804bf0c       0x10 c:/program files (x86)/gnu arm embedded toolchain/9 2020-q2-update/bin/../lib/gcc/arm-none-eabi/9.3.1/../../../../arm-none-eabi/lib/thumb/v7e-m+dp/hard\libc.a(lib_a-realloc.o)
                0x0804bf0c                realloc
 .text._realloc_r
                0x0804bf1c      0x3e0 c:/program files (x86)/gnu arm embedded toolchain/9 2020-q2-update/bin/../lib/gcc/arm-none-eabi/9.3.1/../../../../arm-none-eabi/lib/thumb/v7e-m+dp/hard\libc.a(lib_a-reallocr.o)
                0x0804bf1c                _realloc_r
 .text.cleanup_glue
                0x0804c2fc       0x1c c:/program files (x86)/gnu arm embedded toolchain/9 2020-q2-update/bin/../lib/gcc/arm-none-eabi/9.3.1/../../../../arm-none-eabi/lib/thumb/v7e-m+dp/hard\libc.a(lib_a-reent.o)
                0x0804c2fc                cleanup_glue
 .text._reclaim_reent
                0x0804c318       0x84 c:/program files (x86)/gnu arm embedded toolchain/9 2020-q2-update/bin/../lib/gcc/arm-none-eabi/9.3.1/../../../../arm-none-eabi/lib/thumb/v7e-m+dp/hard\libc.a(lib_a-reent.o)
                0x0804c318                _reclaim_reent
 *fill*         0x0804c39c        0x4 
 .text.frexp    0x0804c3a0       0x78 c:/program files (x86)/gnu arm embedded toolchain/9 2020-q2-update/bin/../lib/gcc/arm-none-eabi/9.3.1/../../../../arm-none-eabi/lib/thumb/v7e-m+dp/hard\libc.a(lib_a-s_frexp.o)
                0x0804c3a0                frexp
 .text._sbrk_r  0x0804c418       0x24 c:/program files (x86)/gnu arm embedded toolchain/9 2020-q2-update/bin/../lib/gcc/arm-none-eabi/9.3.1/../../../../arm-none-eabi/lib/thumb/v7e-m+dp/hard\libc.a(lib_a-sbrkr.o)
                0x0804c418                _sbrk_r
 .text.__sccl   0x0804c43c       0x88 c:/program files (x86)/gnu arm embedded toolchain/9 2020-q2-update/bin/../lib/gcc/arm-none-eabi/9.3.1/../../../../arm-none-eabi/lib/thumb/v7e-m+dp/hard\libc.a(lib_a-sccl.o)
                0x0804c43c                __sccl
 .text.nanf     0x0804c4c4        0xc c:/program files (x86)/gnu arm embedded toolchain/9 2020-q2-update/bin/../lib/gcc/arm-none-eabi/9.3.1/../../../../arm-none-eabi/lib/thumb/v7e-m+dp/hard\libc.a(lib_a-sf_nan.o)
                0x0804c4c4                nanf
 .text.siscanf  0x0804c4d0       0x58 c:/program files (x86)/gnu arm embedded toolchain/9 2020-q2-update/bin/../lib/gcc/arm-none-eabi/9.3.1/../../../../arm-none-eabi/lib/thumb/v7e-m+dp/hard\libc.a(lib_a-siscanf.o)
                0x0804c4d0                siscanf
 .text._siscanf_r
                0x0804c528       0x58 c:/program files (x86)/gnu arm embedded toolchain/9 2020-q2-update/bin/../lib/gcc/arm-none-eabi/9.3.1/../../../../arm-none-eabi/lib/thumb/v7e-m+dp/hard\libc.a(lib_a-siscanf.o)
                0x0804c528                _siscanf_r
 .text._strtoll_l.isra.0
                0x0804c580      0x17c c:/program files (x86)/gnu arm embedded toolchain/9 2020-q2-update/bin/../lib/gcc/arm-none-eabi/9.3.1/../../../../arm-none-eabi/lib/thumb/v7e-m+dp/hard\libc.a(lib_a-strtoll.o)
 .text._strtoll_r
                0x0804c6fc        0x4 c:/program files (x86)/gnu arm embedded toolchain/9 2020-q2-update/bin/../lib/gcc/arm-none-eabi/9.3.1/../../../../arm-none-eabi/lib/thumb/v7e-m+dp/hard\libc.a(lib_a-strtoll.o)
                0x0804c6fc                _strtoll_r
 .text.strtoll_l
                0x0804c700       0x18 c:/program files (x86)/gnu arm embedded toolchain/9 2020-q2-update/bin/../lib/gcc/arm-none-eabi/9.3.1/../../../../arm-none-eabi/lib/thumb/v7e-m+dp/hard\libc.a(lib_a-strtoll.o)
                0x0804c700                strtoll_l
 .text.strtoll  0x0804c718       0x18 c:/program files (x86)/gnu arm embedded toolchain/9 2020-q2-update/bin/../lib/gcc/arm-none-eabi/9.3.1/../../../../arm-none-eabi/lib/thumb/v7e-m+dp/hard\libc.a(lib_a-strtoll.o)
                0x0804c718                strtoll
 .text.__ssprint_r
                0x0804c730       0xf8 c:/program files (x86)/gnu arm embedded toolchain/9 2020-q2-update/bin/../lib/gcc/arm-none-eabi/9.3.1/../../../../arm-none-eabi/lib/thumb/v7e-m+dp/hard\libc.a(lib_a-svfiprintf.o)
                0x0804c730                __ssprint_r
 .text._svfiprintf_r
                0x0804c828      0xb6c c:/program files (x86)/gnu arm embedded toolchain/9 2020-q2-update/bin/../lib/gcc/arm-none-eabi/9.3.1/../../../../arm-none-eabi/lib/thumb/v7e-m+dp/hard\libc.a(lib_a-svfiprintf.o)
                0x0804c828                _svfiprintf_r
 .text._sungetc_r
                0x0804d394       0x80 c:/program files (x86)/gnu arm embedded toolchain/9 2020-q2-update/bin/../lib/gcc/arm-none-eabi/9.3.1/../../../../arm-none-eabi/lib/thumb/v7e-m+dp/hard\libc.a(lib_a-svfiscanf.o)
                0x0804d394                _sungetc_r
 .text.__ssrefill_r
                0x0804d414       0x3c c:/program files (x86)/gnu arm embedded toolchain/9 2020-q2-update/bin/../lib/gcc/arm-none-eabi/9.3.1/../../../../arm-none-eabi/lib/thumb/v7e-m+dp/hard\libc.a(lib_a-svfiscanf.o)
                0x0804d414                __ssrefill_r
 .text._sfread_r
                0x0804d450       0x7c c:/program files (x86)/gnu arm embedded toolchain/9 2020-q2-update/bin/../lib/gcc/arm-none-eabi/9.3.1/../../../../arm-none-eabi/lib/thumb/v7e-m+dp/hard\libc.a(lib_a-svfiscanf.o)
                0x0804d450                _sfread_r
 .text.__ssvfiscanf_r
                0x0804d4cc     0x125c c:/program files (x86)/gnu arm embedded toolchain/9 2020-q2-update/bin/../lib/gcc/arm-none-eabi/9.3.1/../../../../arm-none-eabi/lib/thumb/v7e-m+dp/hard\libc.a(lib_a-svfiscanf.o)
                0x0804d4cc                __ssvfiscanf_r
 .text.__submore
                0x0804e728       0x78 c:/program files (x86)/gnu arm embedded toolchain/9 2020-q2-update/bin/../lib/gcc/arm-none-eabi/9.3.1/../../../../arm-none-eabi/lib/thumb/v7e-m+dp/hard\libc.a(lib_a-ungetc.o)
                0x0804e728                __submore
 .text._ungetc_r
                0x0804e7a0      0x13c c:/program files (x86)/gnu arm embedded toolchain/9 2020-q2-update/bin/../lib/gcc/arm-none-eabi/9.3.1/../../../../arm-none-eabi/lib/thumb/v7e-m+dp/hard\libc.a(lib_a-ungetc.o)
                0x0804e7a0                _ungetc_r
 .text.ungetc   0x0804e8dc       0x10 c:/program files (x86)/gnu arm embedded toolchain/9 2020-q2-update/bin/../lib/gcc/arm-none-eabi/9.3.1/../../../../arm-none-eabi/lib/thumb/v7e-m+dp/hard\libc.a(lib_a-ungetc.o)
                0x0804e8dc                ungetc
 .text.__sprint_r.part.0
                0x0804e8ec       0x78 c:/program files (x86)/gnu arm embedded toolchain/9 2020-q2-update/bin/../lib/gcc/arm-none-eabi/9.3.1/../../../../arm-none-eabi/lib/thumb/v7e-m+dp/hard\libc.a(lib_a-vfiprintf.o)
 .text.__sprint_r
                0x0804e964       0x18 c:/program files (x86)/gnu arm embedded toolchain/9 2020-q2-update/bin/../lib/gcc/arm-none-eabi/9.3.1/../../../../arm-none-eabi/lib/thumb/v7e-m+dp/hard\libc.a(lib_a-vfiprintf.o)
                0x0804e964                __sprint_r
 .text._vfiprintf_r
                0x0804e97c      0xd4c c:/program files (x86)/gnu arm embedded toolchain/9 2020-q2-update/bin/../lib/gcc/arm-none-eabi/9.3.1/../../../../arm-none-eabi/lib/thumb/v7e-m+dp/hard\libc.a(lib_a-vfiprintf.o)
                0x0804e97c                _vfiprintf_r
 .text.vfiprintf
                0x0804f6c8       0x18 c:/program files (x86)/gnu arm embedded toolchain/9 2020-q2-update/bin/../lib/gcc/arm-none-eabi/9.3.1/../../../../arm-none-eabi/lib/thumb/v7e-m+dp/hard\libc.a(lib_a-vfiprintf.o)
                0x0804f6c8                vfiprintf
 .text.__sbprintf
                0x0804f6e0       0x84 c:/program files (x86)/gnu arm embedded toolchain/9 2020-q2-update/bin/../lib/gcc/arm-none-eabi/9.3.1/../../../../arm-none-eabi/lib/thumb/v7e-m+dp/hard\libc.a(lib_a-vfiprintf.o)
 .text._wctomb_r
                0x0804f764       0x14 c:/program files (x86)/gnu arm embedded toolchain/9 2020-q2-update/bin/../lib/gcc/arm-none-eabi/9.3.1/../../../../arm-none-eabi/lib/thumb/v7e-m+dp/hard\libc.a(lib_a-wctomb_r.o)
                0x0804f764                _wctomb_r
 .text.__ascii_wctomb
                0x0804f778       0x1c c:/program files (x86)/gnu arm embedded toolchain/9 2020-q2-update/bin/../lib/gcc/arm-none-eabi/9.3.1/../../../../arm-none-eabi/lib/thumb/v7e-m+dp/hard\libc.a(lib_a-wctomb_r.o)
                0x0804f778                __ascii_wctomb
 .text.__assert_func
                0x0804f794       0x3c c:/program files (x86)/gnu arm embedded toolchain/9 2020-q2-update/bin/../lib/gcc/arm-none-eabi/9.3.1/../../../../arm-none-eabi/lib/thumb/v7e-m+dp/hard\libc.a(lib_a-assert.o)
                0x0804f794                __assert_func
 .text.__assert
                0x0804f7d0        0xc c:/program files (x86)/gnu arm embedded toolchain/9 2020-q2-update/bin/../lib/gcc/arm-none-eabi/9.3.1/../../../../arm-none-eabi/lib/thumb/v7e-m+dp/hard\libc.a(lib_a-assert.o)
                0x0804f7d0                __assert
 .text._calloc_r
                0x0804f7dc       0x60 c:/program files (x86)/gnu arm embedded toolchain/9 2020-q2-update/bin/../lib/gcc/arm-none-eabi/9.3.1/../../../../arm-none-eabi/lib/thumb/v7e-m+dp/hard\libc.a(lib_a-callocr.o)
                0x0804f7dc                _calloc_r
 .text.__env_lock
                0x0804f83c        0xc c:/program files (x86)/gnu arm embedded toolchain/9 2020-q2-update/bin/../lib/gcc/arm-none-eabi/9.3.1/../../../../arm-none-eabi/lib/thumb/v7e-m+dp/hard\libc.a(lib_a-envlock.o)
                0x0804f83c                __env_lock
 .text.__env_unlock
                0x0804f848        0xc c:/program files (x86)/gnu arm embedded toolchain/9 2020-q2-update/bin/../lib/gcc/arm-none-eabi/9.3.1/../../../../arm-none-eabi/lib/thumb/v7e-m+dp/hard\libc.a(lib_a-envlock.o)
                0x0804f848                __env_unlock
 .text._fclose_r
                0x0804f854       0xcc c:/program files (x86)/gnu arm embedded toolchain/9 2020-q2-update/bin/../lib/gcc/arm-none-eabi/9.3.1/../../../../arm-none-eabi/lib/thumb/v7e-m+dp/hard\libc.a(lib_a-fclose.o)
                0x0804f854                _fclose_r
 .text.fclose   0x0804f920       0x10 c:/program files (x86)/gnu arm embedded toolchain/9 2020-q2-update/bin/../lib/gcc/arm-none-eabi/9.3.1/../../../../arm-none-eabi/lib/thumb/v7e-m+dp/hard\libc.a(lib_a-fclose.o)
                0x0804f920                fclose
 .text._fiprintf_r
                0x0804f930       0x1c c:/program files (x86)/gnu arm embedded toolchain/9 2020-q2-update/bin/../lib/gcc/arm-none-eabi/9.3.1/../../../../arm-none-eabi/lib/thumb/v7e-m+dp/hard\libc.a(lib_a-fiprintf.o)
                0x0804f930                _fiprintf_r
 .text.fiprintf
                0x0804f94c       0x28 c:/program files (x86)/gnu arm embedded toolchain/9 2020-q2-update/bin/../lib/gcc/arm-none-eabi/9.3.1/../../../../arm-none-eabi/lib/thumb/v7e-m+dp/hard\libc.a(lib_a-fiprintf.o)
                0x0804f94c                fiprintf
 .text.__fputwc
                0x0804f974       0xa8 c:/program files (x86)/gnu arm embedded toolchain/9 2020-q2-update/bin/../lib/gcc/arm-none-eabi/9.3.1/../../../../arm-none-eabi/lib/thumb/v7e-m+dp/hard\libc.a(lib_a-fputwc.o)
                0x0804f974                __fputwc
 .text._fputwc_r
                0x0804fa1c       0x68 c:/program files (x86)/gnu arm embedded toolchain/9 2020-q2-update/bin/../lib/gcc/arm-none-eabi/9.3.1/../../../../arm-none-eabi/lib/thumb/v7e-m+dp/hard\libc.a(lib_a-fputwc.o)
                0x0804fa1c                _fputwc_r
 .text.fputwc   0x0804fa84       0x3c c:/program files (x86)/gnu arm embedded toolchain/9 2020-q2-update/bin/../lib/gcc/arm-none-eabi/9.3.1/../../../../arm-none-eabi/lib/thumb/v7e-m+dp/hard\libc.a(lib_a-fputwc.o)
                0x0804fa84                fputwc
 .text._fstat_r
                0x0804fac0       0x2c c:/program files (x86)/gnu arm embedded toolchain/9 2020-q2-update/bin/../lib/gcc/arm-none-eabi/9.3.1/../../../../arm-none-eabi/lib/thumb/v7e-m+dp/hard\libc.a(lib_a-fstatr.o)
                0x0804fac0                _fstat_r
 .text.__sfvwrite_r
                0x0804faec      0x2e0 c:/program files (x86)/gnu arm embedded toolchain/9 2020-q2-update/bin/../lib/gcc/arm-none-eabi/9.3.1/../../../../arm-none-eabi/lib/thumb/v7e-m+dp/hard\libc.a(lib_a-fvwrite.o)
                0x0804faec                __sfvwrite_r
 .text._isatty_r
                0x0804fdcc       0x24 c:/program files (x86)/gnu arm embedded toolchain/9 2020-q2-update/bin/../lib/gcc/arm-none-eabi/9.3.1/../../../../arm-none-eabi/lib/thumb/v7e-m+dp/hard\libc.a(lib_a-isattyr.o)
                0x0804fdcc                _isatty_r
 .text.__swbuf_r
                0x0804fdf0       0xb0 c:/program files (x86)/gnu arm embedded toolchain/9 2020-q2-update/bin/../lib/gcc/arm-none-eabi/9.3.1/../../../../arm-none-eabi/lib/thumb/v7e-m+dp/hard\libc.a(lib_a-wbuf.o)
                0x0804fdf0                __swbuf_r
 .text.__swbuf  0x0804fea0       0x10 c:/program files (x86)/gnu arm embedded toolchain/9 2020-q2-update/bin/../lib/gcc/arm-none-eabi/9.3.1/../../../../arm-none-eabi/lib/thumb/v7e-m+dp/hard\libc.a(lib_a-wbuf.o)
                0x0804fea0                __swbuf
 .text._wcrtomb_r
                0x0804feb0       0x3c c:/program files (x86)/gnu arm embedded toolchain/9 2020-q2-update/bin/../lib/gcc/arm-none-eabi/9.3.1/../../../../arm-none-eabi/lib/thumb/v7e-m+dp/hard\libc.a(lib_a-wcrtomb.o)
                0x0804feb0                _wcrtomb_r
 .text.wcrtomb  0x0804feec       0x4c c:/program files (x86)/gnu arm embedded toolchain/9 2020-q2-update/bin/../lib/gcc/arm-none-eabi/9.3.1/../../../../arm-none-eabi/lib/thumb/v7e-m+dp/hard\libc.a(lib_a-wcrtomb.o)
                0x0804feec                wcrtomb
 .text.abort    0x0804ff38       0x10 c:/program files (x86)/gnu arm embedded toolchain/9 2020-q2-update/bin/../lib/gcc/arm-none-eabi/9.3.1/../../../../arm-none-eabi/lib/thumb/v7e-m+dp/hard\libc.a(lib_a-abort.o)
                0x0804ff38                abort
 .text._init_signal_r.part.0
                0x0804ff48       0x2c c:/program files (x86)/gnu arm embedded toolchain/9 2020-q2-update/bin/../lib/gcc/arm-none-eabi/9.3.1/../../../../arm-none-eabi/lib/thumb/v7e-m+dp/hard\libc.a(lib_a-signal.o)
 .text._init_signal_r
                0x0804ff74       0x10 c:/program files (x86)/gnu arm embedded toolchain/9 2020-q2-update/bin/../lib/gcc/arm-none-eabi/9.3.1/../../../../arm-none-eabi/lib/thumb/v7e-m+dp/hard\libc.a(lib_a-signal.o)
                0x0804ff74                _init_signal_r
 .text._signal_r
                0x0804ff84       0x38 c:/program files (x86)/gnu arm embedded toolchain/9 2020-q2-update/bin/../lib/gcc/arm-none-eabi/9.3.1/../../../../arm-none-eabi/lib/thumb/v7e-m+dp/hard\libc.a(lib_a-signal.o)
                0x0804ff84                _signal_r
 .text._raise_r
                0x0804ffbc       0x58 c:/program files (x86)/gnu arm embedded toolchain/9 2020-q2-update/bin/../lib/gcc/arm-none-eabi/9.3.1/../../../../arm-none-eabi/lib/thumb/v7e-m+dp/hard\libc.a(lib_a-signal.o)
                0x0804ffbc                _raise_r
 .text.__sigtramp_r
                0x08050014       0x54 c:/program files (x86)/gnu arm embedded toolchain/9 2020-q2-update/bin/../lib/gcc/arm-none-eabi/9.3.1/../../../../arm-none-eabi/lib/thumb/v7e-m+dp/hard\libc.a(lib_a-signal.o)
                0x08050014                __sigtramp_r
 .text.raise    0x08050068       0x10 c:/program files (x86)/gnu arm embedded toolchain/9 2020-q2-update/bin/../lib/gcc/arm-none-eabi/9.3.1/../../../../arm-none-eabi/lib/thumb/v7e-m+dp/hard\libc.a(lib_a-signal.o)
                0x08050068                raise
 .text.signal   0x08050078       0x10 c:/program files (x86)/gnu arm embedded toolchain/9 2020-q2-update/bin/../lib/gcc/arm-none-eabi/9.3.1/../../../../arm-none-eabi/lib/thumb/v7e-m+dp/hard\libc.a(lib_a-signal.o)
                0x08050078                signal
 .text._init_signal
                0x08050088       0x18 c:/program files (x86)/gnu arm embedded toolchain/9 2020-q2-update/bin/../lib/gcc/arm-none-eabi/9.3.1/../../../../arm-none-eabi/lib/thumb/v7e-m+dp/hard\libc.a(lib_a-signal.o)
                0x08050088                _init_signal
 .text.__sigtramp
                0x080500a0       0x10 c:/program files (x86)/gnu arm embedded toolchain/9 2020-q2-update/bin/../lib/gcc/arm-none-eabi/9.3.1/../../../../arm-none-eabi/lib/thumb/v7e-m+dp/hard\libc.a(lib_a-signal.o)
                0x080500a0                __sigtramp
 .text._kill_r  0x080500b0       0x2c c:/program files (x86)/gnu arm embedded toolchain/9 2020-q2-update/bin/../lib/gcc/arm-none-eabi/9.3.1/../../../../arm-none-eabi/lib/thumb/v7e-m+dp/hard\libc.a(lib_a-signalr.o)
                0x080500b0                _kill_r
 .text._getpid_r
                0x080500dc        0x4 c:/program files (x86)/gnu arm embedded toolchain/9 2020-q2-update/bin/../lib/gcc/arm-none-eabi/9.3.1/../../../../arm-none-eabi/lib/thumb/v7e-m+dp/hard\libc.a(lib_a-signalr.o)
                0x080500dc                _getpid_r
 .text._close   0x080500e0       0x10 c:/program files (x86)/gnu arm embedded toolchain/9 2020-q2-update/bin/../lib/gcc/arm-none-eabi/9.3.1/../../../../arm-none-eabi/lib/thumb/v7e-m+dp/hard\libnosys.a(close.o)
                0x080500e0                _close
 .text._fstat   0x080500f0       0x10 c:/program files (x86)/gnu arm embedded toolchain/9 2020-q2-update/bin/../lib/gcc/arm-none-eabi/9.3.1/../../../../arm-none-eabi/lib/thumb/v7e-m+dp/hard\libnosys.a(fstat.o)
                0x080500f0                _fstat
 .text._getpid  0x08050100       0x10 c:/program files (x86)/gnu arm embedded toolchain/9 2020-q2-update/bin/../lib/gcc/arm-none-eabi/9.3.1/../../../../arm-none-eabi/lib/thumb/v7e-m+dp/hard\libnosys.a(getpid.o)
                0x08050100                _getpid
 .text._isatty  0x08050110       0x10 c:/program files (x86)/gnu arm embedded toolchain/9 2020-q2-update/bin/../lib/gcc/arm-none-eabi/9.3.1/../../../../arm-none-eabi/lib/thumb/v7e-m+dp/hard\libnosys.a(isatty.o)
                0x08050110                _isatty
 .text._kill    0x08050120       0x10 c:/program files (x86)/gnu arm embedded toolchain/9 2020-q2-update/bin/../lib/gcc/arm-none-eabi/9.3.1/../../../../arm-none-eabi/lib/thumb/v7e-m+dp/hard\libnosys.a(kill.o)
                0x08050120                _kill
 .text._lseek   0x08050130       0x10 c:/program files (x86)/gnu arm embedded toolchain/9 2020-q2-update/bin/../lib/gcc/arm-none-eabi/9.3.1/../../../../arm-none-eabi/lib/thumb/v7e-m+dp/hard\libnosys.a(lseek.o)
                0x08050130                _lseek
 .text._read    0x08050140       0x10 c:/program files (x86)/gnu arm embedded toolchain/9 2020-q2-update/bin/../lib/gcc/arm-none-eabi/9.3.1/../../../../arm-none-eabi/lib/thumb/v7e-m+dp/hard\libnosys.a(read.o)
                0x08050140                _read
 .text._sbrk    0x08050150       0x1c c:/program files (x86)/gnu arm embedded toolchain/9 2020-q2-update/bin/../lib/gcc/arm-none-eabi/9.3.1/../../../../arm-none-eabi/lib/thumb/v7e-m+dp/hard\libnosys.a(sbrk.o)
                0x08050150                _sbrk
 .text._write   0x0805016c       0x10 c:/program files (x86)/gnu arm embedded toolchain/9 2020-q2-update/bin/../lib/gcc/arm-none-eabi/9.3.1/../../../../arm-none-eabi/lib/thumb/v7e-m+dp/hard\libnosys.a(write.o)
                0x0805016c                _write
 .text._exit    0x0805017c        0x4 c:/program files (x86)/gnu arm embedded toolchain/9 2020-q2-update/bin/../lib/gcc/arm-none-eabi/9.3.1/../../../../arm-none-eabi/lib/thumb/v7e-m+dp/hard\libnosys.a(_exit.o)
                0x0805017c                _exit
 .text.exp      0x08050180      0x1e8 c:/program files (x86)/gnu arm embedded toolchain/9 2020-q2-update/bin/../lib/gcc/arm-none-eabi/9.3.1/../../../../arm-none-eabi/lib/thumb/v7e-m+dp/hard\libm.a(lib_a-exp.o)
                0x08050180                exp
 .text.with_errno
                0x08050368       0x18 c:/program files (x86)/gnu arm embedded toolchain/9 2020-q2-update/bin/../lib/gcc/arm-none-eabi/9.3.1/../../../../arm-none-eabi/lib/thumb/v7e-m+dp/hard\libm.a(lib_a-math_err.o)
 .text.xflow    0x08050380       0x24 c:/program files (x86)/gnu arm embedded toolchain/9 2020-q2-update/bin/../lib/gcc/arm-none-eabi/9.3.1/../../../../arm-none-eabi/lib/thumb/v7e-m+dp/hard\libm.a(lib_a-math_err.o)
 *fill*         0x080503a4        0x4 
 .text.__math_uflow
                0x080503a8       0x10 c:/program files (x86)/gnu arm embedded toolchain/9 2020-q2-update/bin/../lib/gcc/arm-none-eabi/9.3.1/../../../../arm-none-eabi/lib/thumb/v7e-m+dp/hard\libm.a(lib_a-math_err.o)
                0x080503a8                __math_uflow
 .text.__math_may_uflow
                0x080503b8       0x10 c:/program files (x86)/gnu arm embedded toolchain/9 2020-q2-update/bin/../lib/gcc/arm-none-eabi/9.3.1/../../../../arm-none-eabi/lib/thumb/v7e-m+dp/hard\libm.a(lib_a-math_err.o)
                0x080503b8                __math_may_uflow
 .text.__math_oflow
                0x080503c8       0x10 c:/program files (x86)/gnu arm embedded toolchain/9 2020-q2-update/bin/../lib/gcc/arm-none-eabi/9.3.1/../../../../arm-none-eabi/lib/thumb/v7e-m+dp/hard\libm.a(lib_a-math_err.o)
                0x080503c8                __math_oflow
 .text.__math_divzero
                0x080503d8       0x30 c:/program files (x86)/gnu arm embedded toolchain/9 2020-q2-update/bin/../lib/gcc/arm-none-eabi/9.3.1/../../../../arm-none-eabi/lib/thumb/v7e-m+dp/hard\libm.a(lib_a-math_err.o)
                0x080503d8                __math_divzero
 .text.__math_invalid
                0x08050408       0x20 c:/program files (x86)/gnu arm embedded toolchain/9 2020-q2-update/bin/../lib/gcc/arm-none-eabi/9.3.1/../../../../arm-none-eabi/lib/thumb/v7e-m+dp/hard\libm.a(lib_a-math_err.o)
                0x08050408                __math_invalid
 .text.__math_check_uflow
                0x08050428       0x14 c:/program files (x86)/gnu arm embedded toolchain/9 2020-q2-update/bin/../lib/gcc/arm-none-eabi/9.3.1/../../../../arm-none-eabi/lib/thumb/v7e-m+dp/hard\libm.a(lib_a-math_err.o)
                0x08050428                __math_check_uflow
 *fill*         0x0805043c        0x4 
 .text.__math_check_oflow
                0x08050440       0x28 c:/program files (x86)/gnu arm embedded toolchain/9 2020-q2-update/bin/../lib/gcc/arm-none-eabi/9.3.1/../../../../arm-none-eabi/lib/thumb/v7e-m+dp/hard\libm.a(lib_a-math_err.o)
                0x08050440                __math_check_oflow
 .text.pow      0x08050468      0x6cc c:/program files (x86)/gnu arm embedded toolchain/9 2020-q2-update/bin/../lib/gcc/arm-none-eabi/9.3.1/../../../../arm-none-eabi/lib/thumb/v7e-m+dp/hard\libm.a(lib_a-pow.o)
                0x08050468                pow
 *fill*         0x08050b34        0x4 
 .text.atan     0x08050b38      0x1fc c:/program files (x86)/gnu arm embedded toolchain/9 2020-q2-update/bin/../lib/gcc/arm-none-eabi/9.3.1/../../../../arm-none-eabi/lib/thumb/v7e-m+dp/hard\libm.a(lib_a-s_atan.o)
                0x08050b38                atan
 *fill*         0x08050d34        0x4 
 .text.cos      0x08050d38       0xa0 c:/program files (x86)/gnu arm embedded toolchain/9 2020-q2-update/bin/../lib/gcc/arm-none-eabi/9.3.1/../../../../arm-none-eabi/lib/thumb/v7e-m+dp/hard\libm.a(lib_a-s_cos.o)
                0x08050d38                cos
 .text.fabs     0x08050dd8       0x14 c:/program files (x86)/gnu arm embedded toolchain/9 2020-q2-update/bin/../lib/gcc/arm-none-eabi/9.3.1/../../../../arm-none-eabi/lib/thumb/v7e-m+dp/hard\libm.a(lib_a-s_fabs.o)
                0x08050dd8                fabs
 *fill*         0x08050dec        0x4 
 .text.floor    0x08050df0      0x110 c:/program files (x86)/gnu arm embedded toolchain/9 2020-q2-update/bin/../lib/gcc/arm-none-eabi/9.3.1/../../../../arm-none-eabi/lib/thumb/v7e-m+dp/hard\libm.a(lib_a-s_floor.o)
                0x08050df0                floor
 .text.round    0x08050f00       0x9c c:/program files (x86)/gnu arm embedded toolchain/9 2020-q2-update/bin/../lib/gcc/arm-none-eabi/9.3.1/../../../../arm-none-eabi/lib/thumb/v7e-m+dp/hard\libm.a(lib_a-s_round.o)
                0x08050f00                round
 *fill*         0x08050f9c        0x4 
 .text.sin      0x08050fa0       0xa0 c:/program files (x86)/gnu arm embedded toolchain/9 2020-q2-update/bin/../lib/gcc/arm-none-eabi/9.3.1/../../../../arm-none-eabi/lib/thumb/v7e-m+dp/hard\libm.a(lib_a-s_sin.o)
                0x08050fa0                sin
 .text.tan      0x08051040       0x68 c:/program files (x86)/gnu arm embedded toolchain/9 2020-q2-update/bin/../lib/gcc/arm-none-eabi/9.3.1/../../../../arm-none-eabi/lib/thumb/v7e-m+dp/hard\libm.a(lib_a-s_tan.o)
                0x08051040                tan
 .text.acos     0x080510a8       0x64 c:/program files (x86)/gnu arm embedded toolchain/9 2020-q2-update/bin/../lib/gcc/arm-none-eabi/9.3.1/../../../../arm-none-eabi/lib/thumb/v7e-m+dp/hard\libm.a(lib_a-w_acos.o)
                0x080510a8                acos
 .text.asin     0x0805110c       0x64 c:/program files (x86)/gnu arm embedded toolchain/9 2020-q2-update/bin/../lib/gcc/arm-none-eabi/9.3.1/../../../../arm-none-eabi/lib/thumb/v7e-m+dp/hard\libm.a(lib_a-w_asin.o)
                0x0805110c                asin
 .text.atan2    0x08051170        0x4 c:/program files (x86)/gnu arm embedded toolchain/9 2020-q2-update/bin/../lib/gcc/arm-none-eabi/9.3.1/../../../../arm-none-eabi/lib/thumb/v7e-m+dp/hard\libm.a(lib_a-w_atan2.o)
                0x08051170                atan2
 *fill*         0x08051174        0x4 
 .text.fmod     0x08051178       0x64 c:/program files (x86)/gnu arm embedded toolchain/9 2020-q2-update/bin/../lib/gcc/arm-none-eabi/9.3.1/../../../../arm-none-eabi/lib/thumb/v7e-m+dp/hard\libm.a(lib_a-w_fmod.o)
                0x08051178                fmod
 *fill*         0x080511dc        0x4 
 .text.sqrt     0x080511e0       0x54 c:/program files (x86)/gnu arm embedded toolchain/9 2020-q2-update/bin/../lib/gcc/arm-none-eabi/9.3.1/../../../../arm-none-eabi/lib/thumb/v7e-m+dp/hard\libm.a(lib_a-w_sqrt.o)
                0x080511e0                sqrt
 .text.sqrtf    0x08051234       0x50 c:/program files (x86)/gnu arm embedded toolchain/9 2020-q2-update/bin/../lib/gcc/arm-none-eabi/9.3.1/../../../../arm-none-eabi/lib/thumb/v7e-m+dp/hard\libm.a(lib_a-wf_sqrt.o)
                0x08051234                sqrtf
 *fill*         0x08051284        0x4 
 .text.__ieee754_acos
                0x08051288      0x2bc c:/program files (x86)/gnu arm embedded toolchain/9 2020-q2-update/bin/../lib/gcc/arm-none-eabi/9.3.1/../../../../arm-none-eabi/lib/thumb/v7e-m+dp/hard\libm.a(lib_a-e_acos.o)
                0x08051288                __ieee754_acos
 *fill*         0x08051544        0x4 
 .text.__ieee754_asin
                0x08051548      0x264 c:/program files (x86)/gnu arm embedded toolchain/9 2020-q2-update/bin/../lib/gcc/arm-none-eabi/9.3.1/../../../../arm-none-eabi/lib/thumb/v7e-m+dp/hard\libm.a(lib_a-e_asin.o)
                0x08051548                __ieee754_asin
 *fill*         0x080517ac        0x4 
 .text.__ieee754_atan2
                0x080517b0      0x1e4 c:/program files (x86)/gnu arm embedded toolchain/9 2020-q2-update/bin/../lib/gcc/arm-none-eabi/9.3.1/../../../../arm-none-eabi/lib/thumb/v7e-m+dp/hard\libm.a(lib_a-e_atan2.o)
                0x080517b0                __ieee754_atan2
 .text.__ieee754_fmod
                0x08051994      0x298 c:/program files (x86)/gnu arm embedded toolchain/9 2020-q2-update/bin/../lib/gcc/arm-none-eabi/9.3.1/../../../../arm-none-eabi/lib/thumb/v7e-m+dp/hard\libm.a(lib_a-e_fmod.o)
                0x08051994                __ieee754_fmod
 *fill*         0x08051c2c        0x4 
 .text.__ieee754_rem_pio2
                0x08051c30      0x294 c:/program files (x86)/gnu arm embedded toolchain/9 2020-q2-update/bin/../lib/gcc/arm-none-eabi/9.3.1/../../../../arm-none-eabi/lib/thumb/v7e-m+dp/hard\libm.a(lib_a-e_rem_pio2.o)
                0x08051c30                __ieee754_rem_pio2
 .text.__ieee754_sqrt
                0x08051ec4        0x8 c:/program files (x86)/gnu arm embedded toolchain/9 2020-q2-update/bin/../lib/gcc/arm-none-eabi/9.3.1/../../../../arm-none-eabi/lib/thumb/v7e-m+dp/hard\libm.a(lib_a-e_sqrt.o)
                0x08051ec4                __ieee754_sqrt
 .text.__ieee754_sqrtf
                0x08051ecc        0x8 c:/program files (x86)/gnu arm embedded toolchain/9 2020-q2-update/bin/../lib/gcc/arm-none-eabi/9.3.1/../../../../arm-none-eabi/lib/thumb/v7e-m+dp/hard\libm.a(lib_a-ef_sqrt.o)
                0x08051ecc                __ieee754_sqrtf
 *fill*         0x08051ed4        0x4 
 .text.__kernel_cos
                0x08051ed8      0x120 c:/program files (x86)/gnu arm embedded toolchain/9 2020-q2-update/bin/../lib/gcc/arm-none-eabi/9.3.1/../../../../arm-none-eabi/lib/thumb/v7e-m+dp/hard\libm.a(lib_a-k_cos.o)
                0x08051ed8                __kernel_cos
 .text.__kernel_rem_pio2
                0x08051ff8      0x694 c:/program files (x86)/gnu arm embedded toolchain/9 2020-q2-update/bin/../lib/gcc/arm-none-eabi/9.3.1/../../../../arm-none-eabi/lib/thumb/v7e-m+dp/hard\libm.a(lib_a-k_rem_pio2.o)
                0x08051ff8                __kernel_rem_pio2
 *fill*         0x0805268c        0x4 
 .text.__kernel_sin
                0x08052690       0xb0 c:/program files (x86)/gnu arm embedded toolchain/9 2020-q2-update/bin/../lib/gcc/arm-none-eabi/9.3.1/../../../../arm-none-eabi/lib/thumb/v7e-m+dp/hard\libm.a(lib_a-k_sin.o)
                0x08052690                __kernel_sin
 .text.__kernel_tan
                0x08052740      0x258 c:/program files (x86)/gnu arm embedded toolchain/9 2020-q2-update/bin/../lib/gcc/arm-none-eabi/9.3.1/../../../../arm-none-eabi/lib/thumb/v7e-m+dp/hard\libm.a(lib_a-k_tan.o)
                0x08052740                __kernel_tan
 .text.scalbn   0x08052998      0x10c c:/program files (x86)/gnu arm embedded toolchain/9 2020-q2-update/bin/../lib/gcc/arm-none-eabi/9.3.1/../../../../arm-none-eabi/lib/thumb/v7e-m+dp/hard\libm.a(lib_a-s_scalbn.o)
                0x08052998                scalbn
 *(.glue_7)
 .glue_7        0x08052aa4        0x0 linker stubs
 *(.glue_7t)
 .glue_7t       0x08052aa4        0x0 linker stubs
 *(.eh_frame)
 .eh_frame      0x08052aa4        0x0 c:/program files (x86)/gnu arm embedded toolchain/9 2020-q2-update/bin/../lib/gcc/arm-none-eabi/9.3.1/thumb/v7e-m+dp/hard/crtbegin.o
 .eh_frame      0x08052aa4        0x4 c:/program files (x86)/gnu arm embedded toolchain/9 2020-q2-update/bin/../lib/gcc/arm-none-eabi/9.3.1/thumb/v7e-m+dp/hard/crtend.o
 *(.init)
 .init          0x08052aa8        0x4 c:/program files (x86)/gnu arm embedded toolchain/9 2020-q2-update/bin/../lib/gcc/arm-none-eabi/9.3.1/thumb/v7e-m+dp/hard/crti.o
                0x08052aa8                _init
 .init          0x08052aac        0x8 c:/program files (x86)/gnu arm embedded toolchain/9 2020-q2-update/bin/../lib/gcc/arm-none-eabi/9.3.1/thumb/v7e-m+dp/hard/crtn.o
 *(.fini)
 .fini          0x08052ab4        0x4 c:/program files (x86)/gnu arm embedded toolchain/9 2020-q2-update/bin/../lib/gcc/arm-none-eabi/9.3.1/thumb/v7e-m+dp/hard/crti.o
                0x08052ab4                _fini
 .fini          0x08052ab8        0x8 c:/program files (x86)/gnu arm embedded toolchain/9 2020-q2-update/bin/../lib/gcc/arm-none-eabi/9.3.1/thumb/v7e-m+dp/hard/crtn.o
                0x08052ac0                . = ALIGN (0x4)
                0x08052ac0                _etext = .

.vfp11_veneer   0x08052ac0        0x0
 .vfp11_veneer  0x08052ac0        0x0 linker stubs

.v4_bx          0x08052ac0        0x0
 .v4_bx         0x08052ac0        0x0 linker stubs

.iplt           0x08052ac0        0x0
 .iplt          0x08052ac0        0x0 c:/program files (x86)/gnu arm embedded toolchain/9 2020-q2-update/bin/../lib/gcc/arm-none-eabi/9.3.1/thumb/v7e-m+dp/hard/crtbegin.o

.rodata         0x08052ac0     0xbb60
                0x08052ac0                . = ALIGN (0x4)
 *(.rodata)
 .rodata        0x08052ac0       0x50 ./fcapplication/mainofapplication.o
 .rodata        0x08052b10      0x180 ./fcapplication/commands.o
 .rodata        0x08052c90       0x80 ./fcapplication/cmdi2c.o
 .rodata        0x08052d10       0xc0 ./fcapplication/cmdframcy15b104q.o
 .rodata        0x08052dd0       0xf8 ./fcapplication/confighandler.o
 .rodata        0x08052ec8       0xc0 ./fcapplication/cmdadc.o
 .rodata        0x08052f88       0x80 ./fcapplication/overcurrentprotectiontask.o
 .rodata        0x08053008       0x84 ./fcapplication/system_dbg.o
                0x08053008                reason_tbl
 .rodata        0x0805308c       0x80 ./fcapplication/cmdlog.o
 .rodata        0x0805310c       0xe0 ./fcapplication/cmdrtc.o
 .rodata        0x080531ec      0x2c0 ./fcapplication/file_table.o
                0x080531ec                File_table_crc
                0x080531f0                File_table
 .rodata        0x080534ac       0x10 ./fcapplication/system_stm32h7xx.o
                0x080534ac                D1CorePrescTable
 *fill*         0x080534bc        0x4 
 .rodata        0x080534c0       0x1c ./fcapplication/adcstelemetryhandler.o
 .rodata        0x080534dc       0x48 ./fcapplication/config.o
 .rodata        0x08053524      0x188 ./fcapplication/configclicommands.o
 .rodata        0x080536ac       0x26 ./fcapplication/configservice.o
                0x080536ac                vtable for ConfigService
 *fill*         0x080536d2        0x2 
 .rodata        0x080536d4      0x400 ./fcapplication/csp_crc32.o
 .rodata        0x08053ad4        0x6 ./fcapplication/csp_debug.o
 *fill*         0x08053ada        0x2 
 .rodata        0x08053adc       0xe0 ./fcapplication/cspclicommands.o
 .rodata        0x08053bbc       0x40 ./fcapplication/cmdmagnetorquers.o
 .rodata        0x08053bfc      0x400 ./fcapplication/fs_tests.o
                0x08053bfc                data_set
 .rodata        0x08053ffc      0x240 ./fcapplication/cmdfs.o
 .rodata        0x0805423c       0x48 ./fcapplication/fwupd.o
 .rodata        0x08054284      0x120 ./fcapplication/fwupdclicommands.o
 .rodata        0x080543a4      0x400 ./fcapplication/fwupdcrc32.o
 .rodata        0x080547a4       0x14 ./fcapplication/fwupdservice.o
                0x080547a4                vtable for FwUpdService
 .rodata        0x080547b8      0x160 ./fcapplication/cmdflash_mt25q.o
 .rodata        0x08054918       0xf0 ./fcapplication/fram_fm22l16.o
                0x08054918                FRAM_pin
 .rodata        0x08054a08        0x4 ./fcapplication/tasks.o
 .rodata        0x08054a0c       0xa0 ./fcapplication/cmdsunsensor.o
 .rodata        0x08054aac        0x8 ./fcapplication/stm32h7xx_hal_dma.o
 .rodata        0x08054ab4       0x23 ./fcapplication/stm32h7xx_hal_fdcan.o
 *fill*         0x08054ad7        0x1 
 .rodata        0x08054ad8       0x4e ./fcapplication/stm32h7xx_hal_uart.o
 .rodata        0x08054b26       0x30 ./fcapplication/stm32h7xx_hal_tim_ex.o
 *fill*         0x08054b56        0x2 
 .rodata        0x08054b58       0x80 ./fcapplication/cmdgyrostim210.o
 .rodata        0x08054bd8      0x100 ./fcapplication/crc8ccitt.o
 .rodata        0x08054cd8       0xc0 ./fcapplication/cmdmagnetometer.o
 .rodata        0x08054d98      0x4c0 ./fcapplication/na_arraymath.o
 .rodata        0x08055258      0x2e8 ./fcapplication/ast_gaintable.o
                0x08055530                vtable for AST_GainTable
 .rodata        0x08055540       0x30 ./fcapplication/astc_filter_derivedrate.o
 .rodata        0x08055570      0x100 ./fcapplication/cna_adcsconfig.o
 .rodata        0x08055670       0xd8 ./fcapplication/cna_attitudecontrolsystem.o
                0x08055670                CNA_AttitudeControlSystem::Z
                0x08055688                CNA_AttitudeControlSystem::X
                0x080556a0                CNA_AttitudeControlSystem::Y
                0x080556b8                CNA_AttitudeControlSystem::MinusX
                0x080556d0                CNA_AttitudeControlSystem::MinusY
                0x080556e8                CNA_AttitudeControlSystem::MinusZ
                0x08055730                vtable for CNA_AttitudeControlSystem
                0x08055740                CNA_AttitudeControlSystem::TriadFollow4VectorsSwitch_Deg
 .rodata        0x08055748       0x70 ./fcapplication/cna_dynamicmodel.o
                0x08055748                vtable for CNA_DynamicModel__Quat_ECI_W_BCF
                0x08055780                vtable for CNA_DynamicModel__Quat_ECI_W_BCF_Biassed
 .rodata        0x080557b8       0x84 ./fcapplication/cna_kalmanabstract.o
                0x080557b8                vtable for CNA_KalmanAbstract
                0x080557e8                vtable for CNA_MeasurementModelAbstract
                0x08055804                vtable for CNA_DynamicModelAbstract
 .rodata        0x0805583c       0x5c ./fcapplication/cna_measurementmodel.o
                0x0805583c                vtable for CNA_Measurement_SunV
                0x0805585c                vtable for CNA_Measurement_SunV_Gyro3_MField3
                0x0805587c                vtable for CNA_Measurement_StarTracker_IMUMultimeasBias
 .rodata        0x08055898      0x7d0 ./fcapplication/na_igrfmodel.o
 .rodata        0x08056068       0x40 ./fcapplication/na_refframe.o
 .rodata        0x080560a8      0x480 ./fcapplication/na_sgp4.o
 .rodata        0x08056528       0xc0 ./fcapplication/na_sundirectionmodel.o
 .rodata        0x080565e8      0x334 ./fcapplication/navigationdefines.o
 .rodata        0x0805691c       0x40 ./fcapplication/canclicommands.o
 .rodata        0x0805695c       0x18 ./fcapplication/reqrepclienttransportcsp.o
                0x0805695c                vtable for ReqRepClientTransportCsp
 .rodata        0x08056974       0xa0 ./fcapplication/cmdscriptengine.o
 .rodata        0x08056a14       0xe0 ./fcapplication/cmdstartracker.o
 .rodata        0x08056af4       0x14 ./fcapplication/telemetryservice.o
                0x08056af4                vtable for TelemetryService
 .rodata        0x08056b08       0x14 ./fcapplication/timesyncservice.o
                0x08056b08                vtable for TimeSyncService
 .rodata        0x08056b1c      0x100 ./fcapplication/adc.o
 .rodata        0x08056c1c       0x54 ./fcapplication/can1.o
                0x08056c40                vtable for Can1
 .rodata        0x08056c70       0x30 ./fcapplication/can2.o
                0x08056c70                vtable for Can2
 .rodata        0x08056ca0       0x20 ./fcapplication/uart4.o
                0x08056ca0                vtable for Uart4
 .rodata        0x08056cc0       0x20 ./fcapplication/uart5.o
                0x08056cc0                vtable for Uart5
 .rodata        0x08056ce0       0x20 ./fcapplication/uart7.o
                0x08056ce0                vtable for Uart7
 .rodata        0x08056d00       0x20 ./fcapplication/uart8.o
                0x08056d00                vtable for Uart8
 .rodata        0x08056d20       0x20 ./fcapplication/uart1.o
                0x08056d20                vtable for Uart1
 .rodata        0x08056d40       0x20 ./fcapplication/uart3.o
                0x08056d40                vtable for Uart3
 .rodata        0x08056d60       0x20 ./fcapplication/uart6.o
                0x08056d60                vtable for Uart6
 .rodata        0x08056d80       0x24 ./fcapplication/i2c1.o
                0x08056d80                vtable for I2c1
 .rodata        0x08056da4       0x24 ./fcapplication/i2c2.o
                0x08056da4                vtable for I2c2
 .rodata        0x08056dc8       0x24 ./fcapplication/i2c3.o
                0x08056dc8                vtable for I2c3
 .rodata        0x08056dec       0x24 ./fcapplication/i2c4.o
                0x08056dec                vtable for I2c4
 .rodata        0x08056e10       0x28 ./fcapplication/spi1.o
                0x08056e10                vtable for Spi1
 .rodata        0x08056e38       0x28 ./fcapplication/spi2.o
                0x08056e38                vtable for Spi2
 .rodata        0x08056e60       0x28 ./fcapplication/spi4.o
                0x08056e60                vtable for Spi4
 .rodata        0x08056e88       0x28 ./fcapplication/spi5.o
                0x08056e88                vtable for Spi5
 .rodata        0x08056eb0        0xc ./fcapplication/mcuoption.o
 .rodata        0x08056ebc       0x3c ./fcapplication/rtc.o
                0x08056ebc                vtable for Rtc
 .rodata        0x08056ef8       0xa0 ./fcapplication/cmdlvc.o
 *(.rodata*)
 .rodata.str1.1
                0x08056f98      0x127 ./fcapplication/mainofapplication.o
 *fill*         0x080570bf        0x1 
 .rodata._ZTV20TimeSyncRtcCallbacks
                0x080570c0       0x28 ./fcapplication/mainofapplication.o
                0x080570c0                vtable for TimeSyncRtcCallbacks
 .rodata._ZTV22CKalman_Sun_3gyro_3Mag
                0x080570e8       0x30 ./fcapplication/mainofapplication.o
                0x080570e8                vtable for CKalman_Sun_3gyro_3Mag
 .rodata._ZTV38CKalman_StarTracker_IMUMultimeasBiased
                0x08057118       0x30 ./fcapplication/mainofapplication.o
                0x08057118                vtable for CKalman_StarTracker_IMUMultimeasBiased
 .rodata.str1.1
                0x08057148        0xa ./fcapplication/csphandler.o
 .rodata.str1.1
                0x08057148      0x370 ./fcapplication/commands.o
                                0x3b1 (size before relaxing)
 .rodata.str1.1
                0x080574b8       0x59 ./fcapplication/cmdi2c.o
                                 0x6a (size before relaxing)
 .rodata.str1.1
                0x08057511       0x15 ./fcapplication/crc_hw.o
 .rodata.str1.1
                0x08057526      0x129 ./fcapplication/cmdframcy15b104q.o
                                0x152 (size before relaxing)
 *fill*         0x0805764f        0x1 
 .rodata._ZTV16FramPinControl_1
                0x08057650       0x1c ./fcapplication/cmdframcy15b104q.o
                0x08057650                vtable for FramPinControl_1
 .rodata._ZTV16FramPinControl_2
                0x0805766c       0x1c ./fcapplication/cmdframcy15b104q.o
                0x0805766c                vtable for FramPinControl_2
 .rodata._ZTV32ConfigStorageCallbacksFileSystem
                0x08057688       0x18 ./fcapplication/confighandler.o
                0x08057688                vtable for ConfigStorageCallbacksFileSystem
 .rodata._ZTV16MyEventCallbacks
                0x080576a0       0x18 ./fcapplication/confighandler.o
                0x080576a0                vtable for MyEventCallbacks
 .rodata.str1.1
                0x080576b8       0x93 ./fcapplication/confighandler.o
 .rodata.str1.1
                0x0805774b       0xd3 ./fcapplication/cmdadc.o
                                 0xf7 (size before relaxing)
 .rodata.str1.1
                0x0805781e       0x7a ./fcapplication/overcurrentprotectiontask.o
                                 0x97 (size before relaxing)
 .rodata.str1.1
                0x08057898       0x42 ./fcapplication/system_dbg.o
 *fill*         0x080578da        0x2 
 .rodata._ZTVN18TelemetryCollectorIN14telemetryTypes16GeneralTelemetryEE9CallbacksE
                0x080578dc       0x14 ./fcapplication/telemetryhandler.o
                0x080578dc                vtable for TelemetryCollector<telemetryTypes::GeneralTelemetry>::Callbacks
 .rodata.str1.1
                0x080578f0      0x180 ./fcapplication/cmdlog.o
                                0x196 (size before relaxing)
 .rodata.str1.1
                0x08057a70       0x27 ./fcapplication/log.o
                                 0x2a (size before relaxing)
 .rodata.str1.1
                0x08057a97       0x1c ./fcapplication/fwupdhandler.o
 *fill*         0x08057ab3        0x1 
 .rodata._ZTV24FwUpdMemDriverFileSystem
                0x08057ab4       0x1c ./fcapplication/fwupdhandler.o
                0x08057ab4                vtable for FwUpdMemDriverFileSystem
 .rodata._ZTV27FwUpdMemDriverInternalFlash
                0x08057ad0       0x1c ./fcapplication/fwupdhandler.o
                0x08057ad0                vtable for FwUpdMemDriverInternalFlash
 .rodata.str1.1
                0x08057aec      0x326 ./fcapplication/cmdrtc.o
                                0x32e (size before relaxing)
 .rodata.str1.1
                0x08057e12       0xd6 ./fcapplication/file_table.o
                                 0xed (size before relaxing)
 .rodata.str1.1
                0x08057ee8       0x36 ./fcapplication/powercontrolunithandler.o
                                 0x3a (size before relaxing)
 *fill*         0x08057f1e        0x2 
 .rodata._ZTV14GyroPinControl
                0x08057f20       0x14 ./fcapplication/adcssensors.o
                0x08057f20                vtable for GyroPinControl
 .rodata.str1.1
                0x08057f34       0x16 ./fcapplication/adcsapp.o
 *fill*         0x08057f4a        0x2 
 .rodata._ZTVN18TelemetryCollectorIN14telemetryTypes13AdcsTelemetryEE9CallbacksE
                0x08057f4c       0x14 ./fcapplication/adcstelemetryhandler.o
                0x08057f4c                vtable for TelemetryCollector<telemetryTypes::AdcsTelemetry>::Callbacks
 .rodata.str1.1
                0x08057f60       0x9b ./fcapplication/cli.o
                                 0xaa (size before relaxing)
 *fill*         0x08057ffb        0x1 
 .rodata._ZN6CliCmd10crc32TableE
                0x08057ffc      0x400 ./fcapplication/cli.o
                0x08057ffc                CliCmd::crc32Table
 .rodata.str1.1
                0x080583fc       0x10 ./fcapplication/cliwriter.o
                                 0x1d (size before relaxing)
 .rodata.str1.1
                0x0805840c       0xc4 ./fcapplication/clihelpers.o
                                 0xd1 (size before relaxing)
 .rodata.str1.1
                0x080584d0       0xd6 ./fcapplication/config.o
                                 0xdb (size before relaxing)
 .rodata.str1.1
                0x080585a6      0x55b ./fcapplication/configclicommands.o
                                0x5f2 (size before relaxing)
 .rodata.str1.1
                0x08058b01       0x7c ./fcapplication/csp_bridge.o
 .rodata.str1.1
                0x08058b7d      0x104 ./fcapplication/csp_buffer.o
 .rodata.str1.1
                0x08058c81      0x217 ./fcapplication/csp_conn.o
 .rodata.str1.1
                0x08058e98       0x92 ./fcapplication/csp_iflist.o
 .rodata.str1.1
                0x08058f2a      0x399 ./fcapplication/csp_io.o
 .rodata.str1.1
                0x080592c3       0x87 ./fcapplication/csp_port.o
 .rodata.str1.1
                0x0805934a       0x22 ./fcapplication/csp_promisc.o
 .rodata.str1.1
                0x0805936c       0x85 ./fcapplication/csp_qfifo.o
 .rodata.str1.1
                0x080593f1      0x217 ./fcapplication/csp_route.o
                                0x231 (size before relaxing)
 .rodata.str1.1
                0x08059608       0x3e ./fcapplication/csp_service_handler.o
 .rodata.str1.1
                0x08059646       0xaa ./fcapplication/csp_services.o
                                 0xb0 (size before relaxing)
 .rodata.str1.1
                0x080596f0       0x81 ./fcapplication/csp_sfp.o
 .rodata.str1.1
                0x08059771       0x43 ./fcapplication/csp_udp.o
 .rodata.str1.1
                0x080597b4       0x64 ./fcapplication/csp_rtable_static.o
 .rodata.str1.1
                0x08059818        0x5 ./fcapplication/csp_if_lo.o
 .rodata.str1.1
                0x0805981d      0x1e4 ./fcapplication/csp_if_can.o
                                0x1e8 (size before relaxing)
 .rodata.str1.1
                0x08059a01       0x12 ./fcapplication/csp_semaphore.o
 .rodata.str1.1
                0x08059a13       0x24 ./fcapplication/csp_system.o
 .rodata.str1.1
                0x08059a37      0x1ab ./fcapplication/cspclicommands.o
                                0x218 (size before relaxing)
 .rodata.str1.1
                0x08059be2       0x64 ./fcapplication/cmdmagnetorquers.o
                                 0x72 (size before relaxing)
 .rodata.str1.1
                0x08059c46        0x8 ./fcapplication/file_system.o
 .rodata.str1.1
                0x08059c46       0x8f ./fcapplication/fs_tests.o
 .rodata.str1.1
                0x08059cd5      0x89e ./fcapplication/cmdfs.o
                                0x920 (size before relaxing)
 .rodata.str1.1
                0x0805a573       0xc4 ./fcapplication/fwupd.o
                                 0xde (size before relaxing)
 .rodata.str1.1
                0x0805a637      0x1a1 ./fcapplication/fwupdclicommands.o
                                0x1f1 (size before relaxing)
 .rodata.str1.1
                0x0805a7d8       0xbd ./fcapplication/fwupdclihelpers.o
                                 0xd4 (size before relaxing)
 .rodata.str1.1
                0x0805a895      0x1c3 ./fcapplication/cmdflash_mt25q.o
                                0x2e6 (size before relaxing)
 .rodata._ZN13FramCY15B104Q6Consts8deviceIdE
                0x0805aa58        0x9 ./fcapplication/framcy15b104q.o
                0x0805aa58                FramCY15B104Q::Consts::deviceId
 .rodata.str1.1
                0x0805aa61       0x2c ./fcapplication/tasks.o
 .rodata.str1.1
                0x0805aa8d       0x6c ./fcapplication/cmdsunsensor.o
                                 0x77 (size before relaxing)
 .rodata._ZN14SunSensorNSFSS6Consts8Commands6getSunE
                0x0805aaf9        0x1 ./fcapplication/sunsensornsfss.o
                0x0805aaf9                SunSensorNSFSS::Consts::Commands::getSun
 .rodata._ZN14SunSensorNSFSS6Consts8Commands9sampleSunE
                0x0805aafa        0x1 ./fcapplication/sunsensornsfss.o
                0x0805aafa                SunSensorNSFSS::Consts::Commands::sampleSun
 .rodata._ZN14SunSensorNSFSS6Consts8Commands7getTempE
                0x0805aafb        0x1 ./fcapplication/sunsensornsfss.o
                0x0805aafb                SunSensorNSFSS::Consts::Commands::getTemp
 .rodata._ZN14SunSensorNSFSS6Consts8Commands10sampleTempE
                0x0805aafc        0x1 ./fcapplication/sunsensornsfss.o
                0x0805aafc                SunSensorNSFSS::Consts::Commands::sampleTemp
 .rodata._ZN14SunSensorNSFSS6Consts8Commands7getUuidE
                0x0805aafd        0x1 ./fcapplication/sunsensornsfss.o
                0x0805aafd                SunSensorNSFSS::Consts::Commands::getUuid
 .rodata.str1.1
                0x0805aafe       0x30 ./fcapplication/sentence.o
                                 0x31 (size before relaxing)
 .rodata.str1.1
                0x0805ab2e       0xb2 ./fcapplication/cmdgyrostim210.o
                                 0xd4 (size before relaxing)
 .rodata.str1.1
                0x0805abe0       0xcf ./fcapplication/cmdmagnetometer.o
                                 0xec (size before relaxing)
 .rodata.str1.1
                0x0805acaf        0x5 ./fcapplication/na_arraymath.o
 .rodata.str1.1
                0x0805acb4      0x1c0 ./fcapplication/na_statusstrs.o
 .rodata.str1.1
                0x0805ae74      0x5bb ./fcapplication/na_sgp4.o
                                0x602 (size before relaxing)
 .rodata.str1.1
                0x0805b42f      0x6a4 ./fcapplication/navigationdefines.o
                                0x84a (size before relaxing)
 .rodata.str1.1
                0x0805bad3       0x2f ./fcapplication/sgp4io.o
                                 0x9c (size before relaxing)
 *fill*         0x0805bb02        0x2 
 .rodata._ZTVN6CanApp16CanBaseCallbacksE
                0x0805bb04       0x18 ./fcapplication/canapp.o
                0x0805bb04                vtable for CanApp::CanBaseCallbacks
 .rodata._ZTVN7UartApp17UartBaseCallbacksE
                0x0805bb1c       0x18 ./fcapplication/uartapp.o
                0x0805bb1c                vtable for UartApp::UartBaseCallbacks
 .rodata._ZTVN12I2cMasterApp22I2cMasterBaseCallbacksE
                0x0805bb34       0x1c ./fcapplication/i2cmasterapp.o
                0x0805bb34                vtable for I2cMasterApp::I2cMasterBaseCallbacks
 .rodata._ZTVN12SpiMasterApp22SpiMasterBaseCallbacksE
                0x0805bb50       0x20 ./fcapplication/spimasterapp.o
                0x0805bb50                vtable for SpiMasterApp::SpiMasterBaseCallbacks
 .rodata._ZTV16MyFlashCallbacks
                0x0805bb70       0x18 ./fcapplication/flashapp.o
                0x0805bb70                vtable for MyFlashCallbacks
 .rodata.str1.1
                0x0805bb88       0x56 ./fcapplication/canclicommands.o
                                 0x62 (size before relaxing)
 .rodata.str1.1
                0x0805bbde      0x116 ./fcapplication/script_engine.o
                                0x120 (size before relaxing)
 .rodata.str1.1
                0x0805bcf4      0x1a3 ./fcapplication/cmdscriptengine.o
                                0x23d (size before relaxing)
 .rodata.str1.1
                0x0805be97      0x2e6 ./fcapplication/cmdstartracker.o
                                0x2fd (size before relaxing)
 .rodata.str1.1
                0x0805c17d        0xb ./fcapplication/supervisor.o
 .rodata.str1.1
                0x0805c188        0x9 ./fcapplication/timesynctask.o
 .rodata.str1.1
                0x0805c188       0xd6 ./fcapplication/mcuoption.o
                                 0xdb (size before relaxing)
 .rodata.str1.1
                0x0805c25e        0x1 ./fcapplication/rtc.o
 .rodata.str1.1
                0x0805c25e       0xf7 ./fcapplication/cmdlvc.o
                                 0xf8 (size before relaxing)
 *fill*         0x0805c355        0x3 
 .rodata._global_impure_ptr
                0x0805c358        0x4 c:/program files (x86)/gnu arm embedded toolchain/9 2020-q2-update/bin/../lib/gcc/arm-none-eabi/9.3.1/../../../../arm-none-eabi/lib/thumb/v7e-m+dp/hard\libc.a(lib_a-impure.o)
                0x0805c358                _global_impure_ptr
 .rodata.DAYS_IN_MONTH
                0x0805c35c       0x30 c:/program files (x86)/gnu arm embedded toolchain/9 2020-q2-update/bin/../lib/gcc/arm-none-eabi/9.3.1/../../../../arm-none-eabi/lib/thumb/v7e-m+dp/hard\libc.a(lib_a-mktime.o)
 .rodata._DAYS_BEFORE_MONTH
                0x0805c38c       0x30 c:/program files (x86)/gnu arm embedded toolchain/9 2020-q2-update/bin/../lib/gcc/arm-none-eabi/9.3.1/../../../../arm-none-eabi/lib/thumb/v7e-m+dp/hard\libc.a(lib_a-mktime.o)
 .rodata.__month_lengths
                0x0805c3bc       0x60 c:/program files (x86)/gnu arm embedded toolchain/9 2020-q2-update/bin/../lib/gcc/arm-none-eabi/9.3.1/../../../../arm-none-eabi/lib/thumb/v7e-m+dp/hard\libc.a(lib_a-month_lengths.o)
                0x0805c3bc                __month_lengths
 .rodata._strtod_l.str1.4
                0x0805c41c        0xf c:/program files (x86)/gnu arm embedded toolchain/9 2020-q2-update/bin/../lib/gcc/arm-none-eabi/9.3.1/../../../../arm-none-eabi/lib/thumb/v7e-m+dp/hard\libc.a(lib_a-strtod.o)
                                 0x11 (size before relaxing)
 *fill*         0x0805c42b        0x1 
 .rodata.fpi.7559
                0x0805c42c       0x14 c:/program files (x86)/gnu arm embedded toolchain/9 2020-q2-update/bin/../lib/gcc/arm-none-eabi/9.3.1/../../../../arm-none-eabi/lib/thumb/v7e-m+dp/hard\libc.a(lib_a-strtod.o)
 .rodata.fpinan.7595
                0x0805c440       0x14 c:/program files (x86)/gnu arm embedded toolchain/9 2020-q2-update/bin/../lib/gcc/arm-none-eabi/9.3.1/../../../../arm-none-eabi/lib/thumb/v7e-m+dp/hard\libc.a(lib_a-strtod.o)
 *fill*         0x0805c454        0x4 
 .rodata.tinytens
                0x0805c458       0x28 c:/program files (x86)/gnu arm embedded toolchain/9 2020-q2-update/bin/../lib/gcc/arm-none-eabi/9.3.1/../../../../arm-none-eabi/lib/thumb/v7e-m+dp/hard\libc.a(lib_a-strtod.o)
 .rodata._svfprintf_r.str1.4
                0x0805c480       0x42 c:/program files (x86)/gnu arm embedded toolchain/9 2020-q2-update/bin/../lib/gcc/arm-none-eabi/9.3.1/../../../../arm-none-eabi/lib/thumb/v7e-m+dp/hard\libc.a(lib_a-svfprintf.o)
 *fill*         0x0805c4c2        0x2 
 .rodata.blanks.8698
                0x0805c4c4       0x10 c:/program files (x86)/gnu arm embedded toolchain/9 2020-q2-update/bin/../lib/gcc/arm-none-eabi/9.3.1/../../../../arm-none-eabi/lib/thumb/v7e-m+dp/hard\libc.a(lib_a-svfprintf.o)
 .rodata.zeroes.8699
                0x0805c4d4       0x10 c:/program files (x86)/gnu arm embedded toolchain/9 2020-q2-update/bin/../lib/gcc/arm-none-eabi/9.3.1/../../../../arm-none-eabi/lib/thumb/v7e-m+dp/hard\libc.a(lib_a-svfprintf.o)
 .rodata.__ssvfscanf_r.str1.4
                0x0805c4e4        0x5 c:/program files (x86)/gnu arm embedded toolchain/9 2020-q2-update/bin/../lib/gcc/arm-none-eabi/9.3.1/../../../../arm-none-eabi/lib/thumb/v7e-m+dp/hard\libc.a(lib_a-svfscanf.o)
                                  0x9 (size before relaxing)
 *fill*         0x0805c4e9        0x3 
 .rodata.basefix.8767
                0x0805c4ec       0x22 c:/program files (x86)/gnu arm embedded toolchain/9 2020-q2-update/bin/../lib/gcc/arm-none-eabi/9.3.1/../../../../arm-none-eabi/lib/thumb/v7e-m+dp/hard\libc.a(lib_a-svfscanf.o)
 *fill*         0x0805c50e        0x2 
 .rodata._tzset_unlocked_r.str1.4
                0x0805c510       0x53 c:/program files (x86)/gnu arm embedded toolchain/9 2020-q2-update/bin/../lib/gcc/arm-none-eabi/9.3.1/../../../../arm-none-eabi/lib/thumb/v7e-m+dp/hard\libc.a(lib_a-tzset_r.o)
 .rodata.str1.4
                0x0805c563        0x4 c:/program files (x86)/gnu arm embedded toolchain/9 2020-q2-update/bin/../lib/gcc/arm-none-eabi/9.3.1/../../../../arm-none-eabi/lib/thumb/v7e-m+dp/hard\libc.a(lib_a-tzvars.o)
 .rodata._vfprintf_r.str1.4
                0x0805c563       0x42 c:/program files (x86)/gnu arm embedded toolchain/9 2020-q2-update/bin/../lib/gcc/arm-none-eabi/9.3.1/../../../../arm-none-eabi/lib/thumb/v7e-m+dp/hard\libc.a(lib_a-vfprintf.o)
 *fill*         0x0805c563        0x1 
 .rodata.blanks.8713
                0x0805c564       0x10 c:/program files (x86)/gnu arm embedded toolchain/9 2020-q2-update/bin/../lib/gcc/arm-none-eabi/9.3.1/../../../../arm-none-eabi/lib/thumb/v7e-m+dp/hard\libc.a(lib_a-vfprintf.o)
 .rodata.zeroes.8714
                0x0805c574       0x10 c:/program files (x86)/gnu arm embedded toolchain/9 2020-q2-update/bin/../lib/gcc/arm-none-eabi/9.3.1/../../../../arm-none-eabi/lib/thumb/v7e-m+dp/hard\libc.a(lib_a-vfprintf.o)
 .rodata._ctype_
                0x0805c584      0x101 c:/program files (x86)/gnu arm embedded toolchain/9 2020-q2-update/bin/../lib/gcc/arm-none-eabi/9.3.1/../../../../arm-none-eabi/lib/thumb/v7e-m+dp/hard\libc.a(lib_a-ctype_.o)
                0x0805c584                _ctype_
 *fill*         0x0805c685        0x3 
 .rodata._dtoa_r.str1.4
                0x0805c688       0xa0 c:/program files (x86)/gnu arm embedded toolchain/9 2020-q2-update/bin/../lib/gcc/arm-none-eabi/9.3.1/../../../../arm-none-eabi/lib/thumb/v7e-m+dp/hard\libc.a(lib_a-dtoa.o)
                                 0xa4 (size before relaxing)
 .rodata.__gethex.str1.4
                0x0805c728       0x84 c:/program files (x86)/gnu arm embedded toolchain/9 2020-q2-update/bin/../lib/gcc/arm-none-eabi/9.3.1/../../../../arm-none-eabi/lib/thumb/v7e-m+dp/hard\libc.a(lib_a-gdtoa-gethex.o)
                                 0x98 (size before relaxing)
 .rodata.__hexdig
                0x0805c7ac      0x100 c:/program files (x86)/gnu arm embedded toolchain/9 2020-q2-update/bin/../lib/gcc/arm-none-eabi/9.3.1/../../../../arm-none-eabi/lib/thumb/v7e-m+dp/hard\libc.a(lib_a-gdtoa-gethex.o)
                0x0805c7ac                __hexdig
 .rodata.str1.4
                0x0805c8ac        0x2 c:/program files (x86)/gnu arm embedded toolchain/9 2020-q2-update/bin/../lib/gcc/arm-none-eabi/9.3.1/../../../../arm-none-eabi/lib/thumb/v7e-m+dp/hard\libc.a(lib_a-lnumeric.o)
                                  0x5 (size before relaxing)
 *fill*         0x0805c8ae        0x2 
 .rodata._C_numeric_locale
                0x0805c8b0        0xc c:/program files (x86)/gnu arm embedded toolchain/9 2020-q2-update/bin/../lib/gcc/arm-none-eabi/9.3.1/../../../../arm-none-eabi/lib/thumb/v7e-m+dp/hard\libc.a(lib_a-lnumeric.o)
                0x0805c8b0                _C_numeric_locale
 .rodata._setlocale_r.str1.4
                0x0805c8bc        0xa c:/program files (x86)/gnu arm embedded toolchain/9 2020-q2-update/bin/../lib/gcc/arm-none-eabi/9.3.1/../../../../arm-none-eabi/lib/thumb/v7e-m+dp/hard\libc.a(lib_a-locale.o)
                                  0xd (size before relaxing)
 .rodata.str1.4
                0x0805c8c6        0x2 c:/program files (x86)/gnu arm embedded toolchain/9 2020-q2-update/bin/../lib/gcc/arm-none-eabi/9.3.1/../../../../arm-none-eabi/lib/thumb/v7e-m+dp/hard\libc.a(lib_a-locale.o)
 .rodata._mbrtowc_r.str1.4
                0x0805c8c6        0x1 c:/program files (x86)/gnu arm embedded toolchain/9 2020-q2-update/bin/../lib/gcc/arm-none-eabi/9.3.1/../../../../arm-none-eabi/lib/thumb/v7e-m+dp/hard\libc.a(lib_a-mbrtowc.o)
 *fill*         0x0805c8c6        0x2 
 .rodata.__multadd.str1.4
                0x0805c8c8       0x7d c:/program files (x86)/gnu arm embedded toolchain/9 2020-q2-update/bin/../lib/gcc/arm-none-eabi/9.3.1/../../../../arm-none-eabi/lib/thumb/v7e-m+dp/hard\libc.a(lib_a-mprec.o)
                                 0x91 (size before relaxing)
 *fill*         0x0805c945        0x3 
 .rodata.__mprec_bigtens
                0x0805c948       0x28 c:/program files (x86)/gnu arm embedded toolchain/9 2020-q2-update/bin/../lib/gcc/arm-none-eabi/9.3.1/../../../../arm-none-eabi/lib/thumb/v7e-m+dp/hard\libc.a(lib_a-mprec.o)
                0x0805c948                __mprec_bigtens
 .rodata.__mprec_tens
                0x0805c970       0xc8 c:/program files (x86)/gnu arm embedded toolchain/9 2020-q2-update/bin/../lib/gcc/arm-none-eabi/9.3.1/../../../../arm-none-eabi/lib/thumb/v7e-m+dp/hard\libc.a(lib_a-mprec.o)
                0x0805c970                __mprec_tens
 .rodata.__mprec_tinytens
                0x0805ca38       0x28 c:/program files (x86)/gnu arm embedded toolchain/9 2020-q2-update/bin/../lib/gcc/arm-none-eabi/9.3.1/../../../../arm-none-eabi/lib/thumb/v7e-m+dp/hard\libc.a(lib_a-mprec.o)
                0x0805ca38                __mprec_tinytens
 .rodata.p05.7485
                0x0805ca60        0xc c:/program files (x86)/gnu arm embedded toolchain/9 2020-q2-update/bin/../lib/gcc/arm-none-eabi/9.3.1/../../../../arm-none-eabi/lib/thumb/v7e-m+dp/hard\libc.a(lib_a-mprec.o)
 .rodata._svfiprintf_r.str1.4
                0x0805ca6c       0x2f c:/program files (x86)/gnu arm embedded toolchain/9 2020-q2-update/bin/../lib/gcc/arm-none-eabi/9.3.1/../../../../arm-none-eabi/lib/thumb/v7e-m+dp/hard\libc.a(lib_a-svfiprintf.o)
 .rodata.blanks.8677
                0x0805ca6c       0x10 c:/program files (x86)/gnu arm embedded toolchain/9 2020-q2-update/bin/../lib/gcc/arm-none-eabi/9.3.1/../../../../arm-none-eabi/lib/thumb/v7e-m+dp/hard\libc.a(lib_a-svfiprintf.o)
 .rodata.zeroes.8678
                0x0805ca7c       0x10 c:/program files (x86)/gnu arm embedded toolchain/9 2020-q2-update/bin/../lib/gcc/arm-none-eabi/9.3.1/../../../../arm-none-eabi/lib/thumb/v7e-m+dp/hard\libc.a(lib_a-svfiprintf.o)
 .rodata.basefix.8280
                0x0805ca8c       0x22 c:/program files (x86)/gnu arm embedded toolchain/9 2020-q2-update/bin/../lib/gcc/arm-none-eabi/9.3.1/../../../../arm-none-eabi/lib/thumb/v7e-m+dp/hard\libc.a(lib_a-svfiscanf.o)
 .rodata._vfiprintf_r.str1.4
                0x0805caae       0x2f c:/program files (x86)/gnu arm embedded toolchain/9 2020-q2-update/bin/../lib/gcc/arm-none-eabi/9.3.1/../../../../arm-none-eabi/lib/thumb/v7e-m+dp/hard\libc.a(lib_a-vfiprintf.o)
 *fill*         0x0805caae        0x2 
 .rodata.blanks.8691
                0x0805cab0       0x10 c:/program files (x86)/gnu arm embedded toolchain/9 2020-q2-update/bin/../lib/gcc/arm-none-eabi/9.3.1/../../../../arm-none-eabi/lib/thumb/v7e-m+dp/hard\libc.a(lib_a-vfiprintf.o)
 .rodata.zeroes.8692
                0x0805cac0       0x10 c:/program files (x86)/gnu arm embedded toolchain/9 2020-q2-update/bin/../lib/gcc/arm-none-eabi/9.3.1/../../../../arm-none-eabi/lib/thumb/v7e-m+dp/hard\libc.a(lib_a-vfiprintf.o)
 .rodata.__assert_func.str1.4
                0x0805cad0       0x3f c:/program files (x86)/gnu arm embedded toolchain/9 2020-q2-update/bin/../lib/gcc/arm-none-eabi/9.3.1/../../../../arm-none-eabi/lib/thumb/v7e-m+dp/hard\libc.a(lib_a-assert.o)
                                 0x43 (size before relaxing)
 *fill*         0x0805cb0f        0x1 
 .rodata.__exp_data
                0x0805cb10      0x870 c:/program files (x86)/gnu arm embedded toolchain/9 2020-q2-update/bin/../lib/gcc/arm-none-eabi/9.3.1/../../../../arm-none-eabi/lib/thumb/v7e-m+dp/hard\libm.a(lib_a-exp_data.o)
                0x0805cb10                __exp_data
 .rodata.__pow_log_data
                0x0805d380     0x1048 c:/program files (x86)/gnu arm embedded toolchain/9 2020-q2-update/bin/../lib/gcc/arm-none-eabi/9.3.1/../../../../arm-none-eabi/lib/thumb/v7e-m+dp/hard\libm.a(lib_a-pow_log_data.o)
                0x0805d380                __pow_log_data
 .rodata.atanhi
                0x0805e3c8       0x20 c:/program files (x86)/gnu arm embedded toolchain/9 2020-q2-update/bin/../lib/gcc/arm-none-eabi/9.3.1/../../../../arm-none-eabi/lib/thumb/v7e-m+dp/hard\libm.a(lib_a-s_atan.o)
 .rodata.atanlo
                0x0805e3e8       0x20 c:/program files (x86)/gnu arm embedded toolchain/9 2020-q2-update/bin/../lib/gcc/arm-none-eabi/9.3.1/../../../../arm-none-eabi/lib/thumb/v7e-m+dp/hard\libm.a(lib_a-s_atan.o)
 .rodata.acos.str1.4
                0x0805e408        0x1 c:/program files (x86)/gnu arm embedded toolchain/9 2020-q2-update/bin/../lib/gcc/arm-none-eabi/9.3.1/../../../../arm-none-eabi/lib/thumb/v7e-m+dp/hard\libm.a(lib_a-w_acos.o)
 .rodata.asin.str1.4
                0x0805e408        0x1 c:/program files (x86)/gnu arm embedded toolchain/9 2020-q2-update/bin/../lib/gcc/arm-none-eabi/9.3.1/../../../../arm-none-eabi/lib/thumb/v7e-m+dp/hard\libm.a(lib_a-w_asin.o)
 .rodata.CSWTCH.8
                0x0805e408       0x18 c:/program files (x86)/gnu arm embedded toolchain/9 2020-q2-update/bin/../lib/gcc/arm-none-eabi/9.3.1/../../../../arm-none-eabi/lib/thumb/v7e-m+dp/hard\libm.a(lib_a-e_atan2.o)
 .rodata.CSWTCH.9
                0x0805e420       0x18 c:/program files (x86)/gnu arm embedded toolchain/9 2020-q2-update/bin/../lib/gcc/arm-none-eabi/9.3.1/../../../../arm-none-eabi/lib/thumb/v7e-m+dp/hard\libm.a(lib_a-e_atan2.o)
 .rodata.Zero   0x0805e438       0x10 c:/program files (x86)/gnu arm embedded toolchain/9 2020-q2-update/bin/../lib/gcc/arm-none-eabi/9.3.1/../../../../arm-none-eabi/lib/thumb/v7e-m+dp/hard\libm.a(lib_a-e_fmod.o)
 .rodata.npio2_hw
                0x0805e448       0x80 c:/program files (x86)/gnu arm embedded toolchain/9 2020-q2-update/bin/../lib/gcc/arm-none-eabi/9.3.1/../../../../arm-none-eabi/lib/thumb/v7e-m+dp/hard\libm.a(lib_a-e_rem_pio2.o)
 .rodata.two_over_pi
                0x0805e4c8      0x108 c:/program files (x86)/gnu arm embedded toolchain/9 2020-q2-update/bin/../lib/gcc/arm-none-eabi/9.3.1/../../../../arm-none-eabi/lib/thumb/v7e-m+dp/hard\libm.a(lib_a-e_rem_pio2.o)
 .rodata.PIo2   0x0805e5d0       0x40 c:/program files (x86)/gnu arm embedded toolchain/9 2020-q2-update/bin/../lib/gcc/arm-none-eabi/9.3.1/../../../../arm-none-eabi/lib/thumb/v7e-m+dp/hard\libm.a(lib_a-k_rem_pio2.o)
 .rodata.init_jk
                0x0805e610       0x10 c:/program files (x86)/gnu arm embedded toolchain/9 2020-q2-update/bin/../lib/gcc/arm-none-eabi/9.3.1/../../../../arm-none-eabi/lib/thumb/v7e-m+dp/hard\libm.a(lib_a-k_rem_pio2.o)
                0x0805e620                . = ALIGN (0x4)

.ARM.__at_0x08040400
                0x0805e620        0x6
 .ARM.__at_0x08040400
                0x0805e620        0x6 ./fcapplication/mainofapplication.o

.ARM.extab      0x0805e626        0x0
 *(.ARM.extab* .gnu.linkonce.armextab.*)
 .ARM.extab     0x0805e626        0x0 c:/program files (x86)/gnu arm embedded toolchain/9 2020-q2-update/bin/../lib/gcc/arm-none-eabi/9.3.1/../../../../arm-none-eabi/lib/thumb/v7e-m+dp/hard/crt0.o
 .ARM.extab     0x0805e626        0x0 c:/program files (x86)/gnu arm embedded toolchain/9 2020-q2-update/bin/../lib/gcc/arm-none-eabi/9.3.1/thumb/v7e-m+dp/hard\libgcc.a(_udivmoddi4.o)

.ARM            0x0805e628        0x8
                0x0805e628                __exidx_start = .
 *(.ARM.exidx*)
 .ARM.exidx     0x0805e628        0x8 c:/program files (x86)/gnu arm embedded toolchain/9 2020-q2-update/bin/../lib/gcc/arm-none-eabi/9.3.1/../../../../arm-none-eabi/lib/thumb/v7e-m+dp/hard/crt0.o
                                 0x10 (size before relaxing)
 .ARM.exidx     0x0805e630        0x0 c:/program files (x86)/gnu arm embedded toolchain/9 2020-q2-update/bin/../lib/gcc/arm-none-eabi/9.3.1/thumb/v7e-m+dp/hard\libgcc.a(_udivmoddi4.o)
                                  0x8 (size before relaxing)
                0x0805e630                __exidx_end = .

.rel.dyn        0x0805e630        0x0
 .rel.iplt      0x0805e630        0x0 c:/program files (x86)/gnu arm embedded toolchain/9 2020-q2-update/bin/../lib/gcc/arm-none-eabi/9.3.1/thumb/v7e-m+dp/hard/crtbegin.o

.preinit_array  0x0805e630        0x0
                0x0805e630                PROVIDE (__preinit_array_start = .)
 *(.preinit_array*)
                0x0805e630                PROVIDE (__preinit_array_end = .)

.init_array     0x0805e630       0xa4
                0x0805e630                PROVIDE (__init_array_start = .)
 *(SORT_BY_NAME(.init_array.*))
 .init_array.00000
                0x0805e630        0x4 c:/program files (x86)/gnu arm embedded toolchain/9 2020-q2-update/bin/../lib/gcc/arm-none-eabi/9.3.1/../../../../arm-none-eabi/lib/thumb/v7e-m+dp/hard\libc.a(lib_a-__call_atexit.o)
 *(.init_array*)
 .init_array    0x0805e634        0x4 c:/program files (x86)/gnu arm embedded toolchain/9 2020-q2-update/bin/../lib/gcc/arm-none-eabi/9.3.1/thumb/v7e-m+dp/hard/crtbegin.o
 .init_array    0x0805e638        0x4 ./fcapplication/mainofapplication.o
 .init_array    0x0805e63c        0x4 ./fcapplication/csphandler.o
 .init_array    0x0805e640        0x4 ./fcapplication/commands.o
 .init_array    0x0805e644        0x4 ./fcapplication/cmdi2c.o
 .init_array    0x0805e648        0x4 ./fcapplication/cmdframcy15b104q.o
 .init_array    0x0805e64c        0x4 ./fcapplication/peripheralapps.o
 .init_array    0x0805e650        0x4 ./fcapplication/confighandler.o
 .init_array    0x0805e654        0x4 ./fcapplication/cmdadc.o
 .init_array    0x0805e658        0x4 ./fcapplication/overcurrentprotectiontask.o
 .init_array    0x0805e65c        0x4 ./fcapplication/telemetryhandler.o
 .init_array    0x0805e660        0x4 ./fcapplication/cmdlog.o
 .init_array    0x0805e664        0x4 ./fcapplication/log.o
 .init_array    0x0805e668        0x4 ./fcapplication/fwupdhandler.o
 .init_array    0x0805e66c        0x4 ./fcapplication/cmdrtc.o
 .init_array    0x0805e670        0x4 ./fcapplication/powercontrolunithandler.o
 .init_array    0x0805e674        0x4 ./fcapplication/adcsactuators.o
 .init_array    0x0805e678        0x4 ./fcapplication/adcssensors.o
 .init_array    0x0805e67c        0x4 ./fcapplication/adcstelemetryhandler.o
 .init_array    0x0805e680        0x4 ./fcapplication/configclicommands.o
 .init_array    0x0805e684        0x4 ./fcapplication/cspclicommands.o
 .init_array    0x0805e688        0x4 ./fcapplication/cmdmagnetorquers.o
 .init_array    0x0805e68c        0x4 ./fcapplication/cmdfs.o
 .init_array    0x0805e690        0x4 ./fcapplication/fwupdclicommands.o
 .init_array    0x0805e694        0x4 ./fcapplication/cmdflash_mt25q.o
 .init_array    0x0805e698        0x4 ./fcapplication/cmdsunsensor.o
 .init_array    0x0805e69c        0x4 ./fcapplication/gps.o
 .init_array    0x0805e6a0        0x4 ./fcapplication/cmdgyrostim210.o
 .init_array    0x0805e6a4        0x4 ./fcapplication/cmdmagnetometer.o
 .init_array    0x0805e6a8        0x4 ./fcapplication/flashapp.o
 .init_array    0x0805e6ac        0x4 ./fcapplication/canclicommands.o
 .init_array    0x0805e6b0        0x4 ./fcapplication/cmdscriptengine.o
 .init_array    0x0805e6b4        0x4 ./fcapplication/cmdstartracker.o
 .init_array    0x0805e6b8        0x4 ./fcapplication/candrivers.o
 .init_array    0x0805e6bc        0x4 ./fcapplication/uartdrivers.o
 .init_array    0x0805e6c0        0x4 ./fcapplication/i2cdrivers.o
 .init_array    0x0805e6c4        0x4 ./fcapplication/spidrivers.o
 .init_array    0x0805e6c8        0x4 ./fcapplication/mcuoption.o
 .init_array    0x0805e6cc        0x4 ./fcapplication/rtcdrivers.o
 .init_array    0x0805e6d0        0x4 ./fcapplication/cmdlvc.o
                0x0805e6d4                PROVIDE (__init_array_end = .)

.fini_array     0x0805e6d4       0x8c
                0x0805e6d4                PROVIDE (__fini_array_start = .)
 *(SORT_BY_NAME(.fini_array.*))
 *(.fini_array*)
 .fini_array    0x0805e6d4        0x4 c:/program files (x86)/gnu arm embedded toolchain/9 2020-q2-update/bin/../lib/gcc/arm-none-eabi/9.3.1/thumb/v7e-m+dp/hard/crtbegin.o
 .fini_array    0x0805e6d8        0x4 ./fcapplication/mainofapplication.o
 .fini_array    0x0805e6dc        0x4 ./fcapplication/csphandler.o
 .fini_array    0x0805e6e0        0x4 ./fcapplication/commands.o
 .fini_array    0x0805e6e4        0x4 ./fcapplication/cmdi2c.o
 .fini_array    0x0805e6e8        0x4 ./fcapplication/cmdframcy15b104q.o
 .fini_array    0x0805e6ec        0x4 ./fcapplication/peripheralapps.o
 .fini_array    0x0805e6f0        0x4 ./fcapplication/confighandler.o
 .fini_array    0x0805e6f4        0x4 ./fcapplication/cmdadc.o
 .fini_array    0x0805e6f8        0x4 ./fcapplication/overcurrentprotectiontask.o
 .fini_array    0x0805e6fc        0x4 ./fcapplication/telemetryhandler.o
 .fini_array    0x0805e700        0x4 ./fcapplication/cmdlog.o
 .fini_array    0x0805e704        0x4 ./fcapplication/fwupdhandler.o
 .fini_array    0x0805e708        0x4 ./fcapplication/cmdrtc.o
 .fini_array    0x0805e70c        0x4 ./fcapplication/adcsactuators.o
 .fini_array    0x0805e710        0x4 ./fcapplication/adcssensors.o
 .fini_array    0x0805e714        0x4 ./fcapplication/adcstelemetryhandler.o
 .fini_array    0x0805e718        0x4 ./fcapplication/configclicommands.o
 .fini_array    0x0805e71c        0x4 ./fcapplication/cspclicommands.o
 .fini_array    0x0805e720        0x4 ./fcapplication/cmdmagnetorquers.o
 .fini_array    0x0805e724        0x4 ./fcapplication/cmdfs.o
 .fini_array    0x0805e728        0x4 ./fcapplication/fwupdclicommands.o
 .fini_array    0x0805e72c        0x4 ./fcapplication/cmdflash_mt25q.o
 .fini_array    0x0805e730        0x4 ./fcapplication/cmdsunsensor.o
 .fini_array    0x0805e734        0x4 ./fcapplication/cmdgyrostim210.o
 .fini_array    0x0805e738        0x4 ./fcapplication/cmdmagnetometer.o
 .fini_array    0x0805e73c        0x4 ./fcapplication/canclicommands.o
 .fini_array    0x0805e740        0x4 ./fcapplication/cmdscriptengine.o
 .fini_array    0x0805e744        0x4 ./fcapplication/cmdstartracker.o
 .fini_array    0x0805e748        0x4 ./fcapplication/candrivers.o
 .fini_array    0x0805e74c        0x4 ./fcapplication/uartdrivers.o
 .fini_array    0x0805e750        0x4 ./fcapplication/i2cdrivers.o
 .fini_array    0x0805e754        0x4 ./fcapplication/spidrivers.o
 .fini_array    0x0805e758        0x4 ./fcapplication/rtcdrivers.o
 .fini_array    0x0805e75c        0x4 ./fcapplication/cmdlvc.o
                0x0805e760                PROVIDE (__fini_array_end = .)
                0x0805e760                _sidata = LOADADDR (.data)

.data           0x20000000      0xfb0 load address 0x0805e760
                0x20000000                . = ALIGN (0x4)
                0x20000000                _sdata = .
 *(.data)
 .data          0x20000000        0x0 c:/program files (x86)/gnu arm embedded toolchain/9 2020-q2-update/bin/../lib/gcc/arm-none-eabi/9.3.1/thumb/v7e-m+dp/hard/crti.o
 .data          0x20000000        0x4 c:/program files (x86)/gnu arm embedded toolchain/9 2020-q2-update/bin/../lib/gcc/arm-none-eabi/9.3.1/thumb/v7e-m+dp/hard/crtbegin.o
                0x20000000                __dso_handle
 .data          0x20000004        0x0 c:/program files (x86)/gnu arm embedded toolchain/9 2020-q2-update/bin/../lib/gcc/arm-none-eabi/9.3.1/../../../../arm-none-eabi/lib/thumb/v7e-m+dp/hard/crt0.o
 .data          0x20000004      0x250 ./fcapplication/mainofapplication.o
                0x20000004                init_stats
                0x20000078                supervisorTaskList
 .data          0x20000254        0x0 ./fcapplication/stm32h7xx_it.o
 .data          0x20000254        0x0 ./fcapplication/stm32h7xx_hal_msp.o
 .data          0x20000254        0x4 ./fcapplication/csphandler.o
 .data          0x20000258        0x0 ./fcapplication/dwt.o
 .data          0x20000258        0x0 ./fcapplication/commands.o
 .data          0x20000258        0x0 ./fcapplication/cmdi2c.o
 .data          0x20000258        0x0 ./fcapplication/crc_hw.o
 .data          0x20000258        0x0 ./fcapplication/cmdspi.o
 .data          0x20000258        0x8 ./fcapplication/cmdframcy15b104q.o
 .data          0x20000260        0x0 ./fcapplication/peripheralapps.o
 .data          0x20000260        0x0 ./fcapplication/oshooks.o
 .data          0x20000260       0x64 ./fcapplication/confighandler.o
 .data          0x200002c4        0x0 ./fcapplication/cmdadc.o
 .data          0x200002c4        0x4 ./fcapplication/overcurrentprotectiontask.o
 .data          0x200002c8        0x0 ./fcapplication/system_dbg.o
 .data          0x200002c8        0x0 ./fcapplication/telemetryhandler.o
 .data          0x200002c8        0x0 ./fcapplication/cmdlog.o
 .data          0x200002c8        0x0 ./fcapplication/log.o
 .data          0x200002c8       0x1c ./fcapplication/fwupdhandler.o
 .data          0x200002e4        0x0 ./fcapplication/cspcpureset.o
 .data          0x200002e4        0x0 ./fcapplication/cmdrtc.o
 .data          0x200002e4        0x0 ./fcapplication/file_table.o
 .data          0x200002e4        0x0 ./fcapplication/powercontrolunithandler.o
 .data          0x200002e4        0x8 ./fcapplication/system_stm32h7xx.o
                0x200002e4                SystemCoreClock
                0x200002e8                SystemD2Clock
 .data          0x200002ec        0x0 ./fcapplication/startup_stm32h743xx.o
 .data          0x200002ec        0x0 ./fcapplication/adcsactuators.o
 .data          0x200002ec        0x4 ./fcapplication/adcssensors.o
 .data          0x200002f0        0x0 ./fcapplication/adcsapp.o
 .data          0x200002f0        0x0 ./fcapplication/adcstelemetryhandler.o
 .data          0x200002f0        0x0 ./fcapplication/cli.o
 .data          0x200002f0        0x0 ./fcapplication/clicmd.o
 .data          0x200002f0        0x0 ./fcapplication/clicmdindexer.o
 .data          0x200002f0        0x0 ./fcapplication/clicmdindexnode.o
 .data          0x200002f0        0x0 ./fcapplication/cliwriter.o
 .data          0x200002f0        0x0 ./fcapplication/cliservice.o
 .data          0x200002f0        0x0 ./fcapplication/clihelpers.o
 .data          0x200002f0        0x0 ./fcapplication/config.o
 .data          0x200002f0        0x0 ./fcapplication/configclicommands.o
 .data          0x200002f0        0x0 ./fcapplication/configservice.o
 .data          0x200002f0        0x0 ./fcapplication/configclient.o
 .data          0x200002f0        0x0 ./fcapplication/csp_bridge.o
 .data          0x200002f0        0x0 ./fcapplication/csp_buffer.o
 .data          0x200002f0        0x0 ./fcapplication/csp_conn.o
 .data          0x200002f0        0x0 ./fcapplication/csp_crc32.o
 .data          0x200002f0        0x7 ./fcapplication/csp_debug.o
 .data          0x200002f7        0x0 ./fcapplication/csp_dedup.o
 .data          0x200002f7        0x0 ./fcapplication/csp_endian.o
 .data          0x200002f7        0x0 ./fcapplication/csp_iflist.o
 *fill*         0x200002f7        0x1 
 .data          0x200002f8        0x4 ./fcapplication/csp_io.o
 .data          0x200002fc        0x0 ./fcapplication/csp_port.o
 .data          0x200002fc        0x0 ./fcapplication/csp_promisc.o
 .data          0x200002fc        0x0 ./fcapplication/csp_qfifo.o
 .data          0x200002fc        0x0 ./fcapplication/csp_route.o
 .data          0x200002fc        0x4 ./fcapplication/csp_service_handler.o
 .data          0x20000300        0x0 ./fcapplication/csp_services.o
 .data          0x20000300        0x0 ./fcapplication/csp_sfp.o
 .data          0x20000300        0x0 ./fcapplication/csp_rdp.o
 .data          0x20000300        0x0 ./fcapplication/csp_udp.o
 .data          0x20000300        0x0 ./fcapplication/csp_rtable_static.o
 .data          0x20000300       0x3c ./fcapplication/csp_if_lo.o
                0x20000300                csp_if_lo
 .data          0x2000033c       0x3c ./fcapplication/csp_if_can.o
                0x2000033c                csp_if_can
 .data          0x20000378        0x0 ./fcapplication/csp_malloc.o
 .data          0x20000378        0x0 ./fcapplication/csp_queue.o
 .data          0x20000378        0x0 ./fcapplication/csp_semaphore.o
 .data          0x20000378        0x0 ./fcapplication/csp_system.o
 .data          0x20000378        0x0 ./fcapplication/csp_thread.o
 .data          0x20000378        0x0 ./fcapplication/csp_time.o
 .data          0x20000378        0x0 ./fcapplication/cspclicommands.o
 .data          0x20000378        0x0 ./fcapplication/cspserver.o
 .data          0x20000378        0x0 ./fcapplication/cmdmagnetorquers.o
 .data          0x20000378        0x0 ./fcapplication/magnetorquers.o
 .data          0x20000378        0x5 ./fcapplication/file_system.o
                0x2000037c                FS_state
 *fill*         0x2000037d        0x3 
 .data          0x20000380        0x5 ./fcapplication/ftransfer_sat.o
 *fill*         0x20000385        0x3 
 .data          0x20000388       0xb4 ./fcapplication/fs_tests.o
                0x20000388                cnt_tbl
 .data          0x2000043c        0x0 ./fcapplication/cmdfs.o
 .data          0x2000043c        0x0 ./fcapplication/filesystem.o
 .data          0x2000043c        0x0 ./fcapplication/fwupd.o
 .data          0x2000043c        0x0 ./fcapplication/fwupdclicommands.o
 .data          0x2000043c        0x0 ./fcapplication/fwupdcrc32.o
 .data          0x2000043c        0x0 ./fcapplication/fwupdmemdescriptor.o
 .data          0x2000043c        0x0 ./fcapplication/fwupdservice.o
 .data          0x2000043c        0x0 ./fcapplication/fwupddescriptorhandler.o
 .data          0x2000043c        0x0 ./fcapplication/fwupdclihelpers.o
 .data          0x2000043c        0x0 ./fcapplication/flash_mt25q.o
 .data          0x2000043c        0x0 ./fcapplication/cmdflash_mt25q.o
 .data          0x2000043c        0x0 ./fcapplication/framcy15b104q.o
 .data          0x2000043c        0x0 ./fcapplication/fram_fm22l16.o
 .data          0x2000043c        0x0 ./fcapplication/croutine.o
 .data          0x2000043c        0x0 ./fcapplication/event_groups.o
 .data          0x2000043c        0x0 ./fcapplication/list.o
 .data          0x2000043c        0x0 ./fcapplication/queue.o
 .data          0x2000043c        0x0 ./fcapplication/tasks.o
 .data          0x2000043c        0x0 ./fcapplication/timers.o
 .data          0x2000043c        0x4 ./fcapplication/port.o
 .data          0x20000440        0x0 ./fcapplication/heap_4.o
 .data          0x20000440        0x0 ./fcapplication/cmdsunsensor.o
 .data          0x20000440        0x0 ./fcapplication/sunsensornsfss.o
 .data          0x20000440        0x0 ./fcapplication/gps.o
 .data          0x20000440        0x0 ./fcapplication/sentence.o
 .data          0x20000440        0x0 ./fcapplication/stm32h7xx_hal_spi_ex.o
 .data          0x20000440        0x0 ./fcapplication/stm32h7xx_hal_qspi.o
 .data          0x20000440        0x0 ./fcapplication/stm32h7xx_hal_flash.o
 .data          0x20000440        0x0 ./fcapplication/stm32h7xx_ll_fmc.o
 .data          0x20000440        0x0 ./fcapplication/stm32h7xx_hal.o
 .data          0x20000440        0x0 ./fcapplication/stm32h7xx_hal_mdma.o
 .data          0x20000440        0x0 ./fcapplication/stm32h7xx_hal_i2c.o
 .data          0x20000440        0x0 ./fcapplication/stm32h7xx_hal_dma.o
 .data          0x20000440        0x0 ./fcapplication/stm32h7xx_hal_pwr.o
 .data          0x20000440        0x0 ./fcapplication/stm32h7xx_hal_cortex.o
 .data          0x20000440        0x0 ./fcapplication/stm32h7xx_hal_spi.o
 .data          0x20000440        0x0 ./fcapplication/stm32h7xx_hal_gpio.o
 .data          0x20000440        0x0 ./fcapplication/stm32h7xx_hal_fdcan.o
 .data          0x20000440        0x0 ./fcapplication/stm32h7xx_hal_flash_ex.o
 .data          0x20000440        0x0 ./fcapplication/stm32h7xx_hal_tim.o
 .data          0x20000440        0x0 ./fcapplication/stm32h7xx_hal_uart.o
 .data          0x20000440        0x0 ./fcapplication/stm32h7xx_hal_rcc.o
 .data          0x20000440        0x0 ./fcapplication/stm32h7xx_hal_rcc_ex.o
 .data          0x20000440        0x0 ./fcapplication/stm32h7xx_hal_sram.o
 .data          0x20000440        0x0 ./fcapplication/stm32h7xx_hal_uart_ex.o
 .data          0x20000440        0x0 ./fcapplication/stm32h7xx_hal_dma_ex.o
 .data          0x20000440        0x0 ./fcapplication/stm32h7xx_hal_tim_ex.o
 .data          0x20000440        0x0 ./fcapplication/stm32h7xx_hal_i2c_ex.o
 .data          0x20000440        0x0 ./fcapplication/stm32h7xx_hal_pwr_ex.o
 .data          0x20000440        0x0 ./fcapplication/stm32h7xx_hal_iwdg.o
 .data          0x20000440        0x0 ./fcapplication/stm32h7xx_hal_usart.o
 .data          0x20000440        0x0 ./fcapplication/stm32h7xx_hal_rtc.o
 .data          0x20000440        0x0 ./fcapplication/stm32h7xx_hal_rtc_ex.o
 .data          0x20000440        0x0 ./fcapplication/stm32h7xx_hal_crc.o
 .data          0x20000440        0x0 ./fcapplication/stm32h7xx_hal_crc_ex.o
 .data          0x20000440        0x0 ./fcapplication/stm32h7xx_hal_adc.o
 .data          0x20000440        0x0 ./fcapplication/stm32h7xx_hal_adc_ex.o
 .data          0x20000440        0x0 ./fcapplication/cmdgyrostim210.o
 .data          0x20000440        0x0 ./fcapplication/crc8ccitt.o
 .data          0x20000440        0x0 ./fcapplication/gyrostim210.o
 .data          0x20000440        0x0 ./fcapplication/cmdmagnetometer.o
 .data          0x20000440        0x0 ./fcapplication/magnetometermmc5883ma.o
 .data          0x20000440        0x0 ./fcapplication/memoryoperators.o
 .data          0x20000440        0x0 ./fcapplication/na_arraymath.o
 .data          0x20000440        0x0 ./fcapplication/na_arrayxxmath.o
 .data          0x20000440        0x0 ./fcapplication/na_statusstrs.o
 .data          0x20000440        0x1 ./fcapplication/ast_cna_runadcs.o
 .data          0x20000441        0x0 ./fcapplication/ast_gaintable.o
 .data          0x20000441        0x0 ./fcapplication/ast_gps_process.o
 .data          0x20000441        0x0 ./fcapplication/ast_mag_process.o
 .data          0x20000441        0x0 ./fcapplication/ast_sens_process.o
 .data          0x20000441        0x0 ./fcapplication/astc_filter_derivedrate.o
 *fill*         0x20000441        0x7 
 .data          0x20000448      0x108 ./fcapplication/cna_adcsconfig.o
 .data          0x20000550        0x0 ./fcapplication/cna_alphabetagamafilter.o
 .data          0x20000550        0x0 ./fcapplication/cna_attitudecontrolsystem.o
 .data          0x20000550        0x0 ./fcapplication/cna_dynamicmodel.o
 .data          0x20000550        0x0 ./fcapplication/cna_kalman_startracker_imumultimeasbiased.o
 .data          0x20000550        0x0 ./fcapplication/cna_kalman_sun_3gyro_3mag.o
 .data          0x20000550        0x0 ./fcapplication/cna_kalmanabstract.o
 .data          0x20000550        0x0 ./fcapplication/cna_measurementmodel.o
 .data          0x20000550        0x0 ./fcapplication/cna_rwvelocity.o
 .data          0x20000550        0x0 ./fcapplication/na_filter.o
 .data          0x20000550        0x0 ./fcapplication/na_igrfmodel.o
 .data          0x20000550        0x0 ./fcapplication/na_refframe.o
 .data          0x20000550        0x0 ./fcapplication/na_rigidbody.o
 .data          0x20000550        0x0 ./fcapplication/na_sgp4.o
 .data          0x20000550        0x0 ./fcapplication/na_sundirectionmodel.o
 .data          0x20000550        0x0 ./fcapplication/na_time.o
 .data          0x20000550        0x0 ./fcapplication/navigationdefines.o
 .data          0x20000550        0x0 ./fcapplication/pch.o
 .data          0x20000550        0x0 ./fcapplication/sgp4ext.o
 .data          0x20000550        0x0 ./fcapplication/sgp4io.o
 .data          0x20000550        0x0 ./fcapplication/sgp4unit.o
 .data          0x20000550        0x0 ./fcapplication/patternfinder.o
 .data          0x20000550        0x0 ./fcapplication/canapp.o
 .data          0x20000550        0x0 ./fcapplication/rtcapp.o
 .data          0x20000550        0x0 ./fcapplication/uartapp.o
 .data          0x20000550        0x0 ./fcapplication/i2cmasterapp.o
 .data          0x20000550        0x0 ./fcapplication/spimasterapp.o
 .data          0x20000550        0x0 ./fcapplication/flashapp.o
 .data          0x20000550        0x0 ./fcapplication/canclicommands.o
 .data          0x20000550        0x0 ./fcapplication/rtcbase.o
 .data          0x20000550        0x0 ./fcapplication/reqrepclienttransportcsp.o
 .data          0x20000550        0x0 ./fcapplication/reqrepservicetransportcsp.o
 .data          0x20000550        0x0 ./fcapplication/bcrw4.o
 .data          0x20000550       0x38 ./fcapplication/script_engine.o
                0x20000550                SE
 .data          0x20000588        0x0 ./fcapplication/cmdscriptengine.o
 .data          0x20000588        0x0 ./fcapplication/semihostingoff.o
 .data          0x20000588        0x0 ./fcapplication/cmdstartracker.o
 .data          0x20000588        0x0 ./fcapplication/startrackernst1b.o
 .data          0x20000588        0x0 ./fcapplication/supervisor.o
 .data          0x20000588        0x0 ./fcapplication/telemetrycollectorbasic.o
 .data          0x20000588        0x0 ./fcapplication/telemetryhelpers.o
 .data          0x20000588        0x0 ./fcapplication/telemetryservice.o
 .data          0x20000588        0x0 ./fcapplication/timesyncclient.o
 .data          0x20000588        0x0 ./fcapplication/timesyncservice.o
 .data          0x20000588        0x8 ./fcapplication/timesynctask.o
 .data          0x20000590        0x0 ./fcapplication/adc.o
 .data          0x20000590        0x0 ./fcapplication/systemclock.o
 .data          0x20000590        0x0 ./fcapplication/watchdog.o
 .data          0x20000590        0x0 ./fcapplication/gpio.o
 .data          0x20000590        0x0 ./fcapplication/can1.o
 .data          0x20000590        0x0 ./fcapplication/can2.o
 .data          0x20000590        0x0 ./fcapplication/candrivers.o
 .data          0x20000590        0x0 ./fcapplication/uart4.o
 .data          0x20000590        0x0 ./fcapplication/uart5.o
 .data          0x20000590        0x0 ./fcapplication/uart7.o
 .data          0x20000590        0x0 ./fcapplication/uart8.o
 .data          0x20000590        0x0 ./fcapplication/uart1.o
 .data          0x20000590        0x0 ./fcapplication/uart3.o
 .data          0x20000590        0x0 ./fcapplication/uart6.o
 .data          0x20000590        0x0 ./fcapplication/uartdrivers.o
 .data          0x20000590        0x0 ./fcapplication/i2c1.o
 .data          0x20000590        0x0 ./fcapplication/i2c2.o
 .data          0x20000590        0x0 ./fcapplication/i2c3.o
 .data          0x20000590        0x0 ./fcapplication/i2c4.o
 .data          0x20000590        0x0 ./fcapplication/i2cdrivers.o
 .data          0x20000590        0x0 ./fcapplication/spi1.o
 .data          0x20000590        0x0 ./fcapplication/spi2.o
 .data          0x20000590        0x0 ./fcapplication/spi4.o
 .data          0x20000590        0x0 ./fcapplication/spi5.o
 .data          0x20000590        0x0 ./fcapplication/spidrivers.o
 .data          0x20000590        0x0 ./fcapplication/flash.o
 .data          0x20000590        0x0 ./fcapplication/tim8.o
 .data          0x20000590        0x0 ./fcapplication/tim2.o
 .data          0x20000590        0x0 ./fcapplication/timdrivers.o
 .data          0x20000590        0x0 ./fcapplication/mcuoption.o
 .data          0x20000590        0x0 ./fcapplication/tim5.o
 .data          0x20000590        0x0 ./fcapplication/rtc.o
 .data          0x20000590        0x0 ./fcapplication/tim12.o
 .data          0x20000590        0x0 ./fcapplication/rtcdrivers.o
 .data          0x20000590        0x0 ./fcapplication/cmdlvc.o
 .data          0x20000590        0x0 ./fcapplication/lvc.o
 .data          0x20000590        0x0 c:/program files (x86)/gnu arm embedded toolchain/9 2020-q2-update/bin/../lib/gcc/arm-none-eabi/9.3.1/thumb/v7e-m+dp/hard\libgcc.a(_arm_addsubdf3.o)
 .data          0x20000590        0x0 c:/program files (x86)/gnu arm embedded toolchain/9 2020-q2-update/bin/../lib/gcc/arm-none-eabi/9.3.1/thumb/v7e-m+dp/hard\libgcc.a(_aeabi_ldivmod.o)
 .data          0x20000590        0x0 c:/program files (x86)/gnu arm embedded toolchain/9 2020-q2-update/bin/../lib/gcc/arm-none-eabi/9.3.1/thumb/v7e-m+dp/hard\libgcc.a(_aeabi_uldivmod.o)
 .data          0x20000590        0x0 c:/program files (x86)/gnu arm embedded toolchain/9 2020-q2-update/bin/../lib/gcc/arm-none-eabi/9.3.1/thumb/v7e-m+dp/hard\libgcc.a(_fixdfdi.o)
 .data          0x20000590        0x0 c:/program files (x86)/gnu arm embedded toolchain/9 2020-q2-update/bin/../lib/gcc/arm-none-eabi/9.3.1/thumb/v7e-m+dp/hard\libgcc.a(_fixunsdfdi.o)
 .data          0x20000590        0x0 c:/program files (x86)/gnu arm embedded toolchain/9 2020-q2-update/bin/../lib/gcc/arm-none-eabi/9.3.1/thumb/v7e-m+dp/hard\libgcc.a(_udivmoddi4.o)
 .data          0x20000590        0x0 c:/program files (x86)/gnu arm embedded toolchain/9 2020-q2-update/bin/../lib/gcc/arm-none-eabi/9.3.1/thumb/v7e-m+dp/hard\libgcc.a(_dvmd_tls.o)
 .data          0x20000590        0x0 c:/program files (x86)/gnu arm embedded toolchain/9 2020-q2-update/bin/../lib/gcc/arm-none-eabi/9.3.1/../../../../arm-none-eabi/lib/thumb/v7e-m+dp/hard\libc.a(lib_a-atexit.o)
 .data          0x20000590        0x0 c:/program files (x86)/gnu arm embedded toolchain/9 2020-q2-update/bin/../lib/gcc/arm-none-eabi/9.3.1/../../../../arm-none-eabi/lib/thumb/v7e-m+dp/hard\libc.a(lib_a-atof.o)
 .data          0x20000590        0x0 c:/program files (x86)/gnu arm embedded toolchain/9 2020-q2-update/bin/../lib/gcc/arm-none-eabi/9.3.1/../../../../arm-none-eabi/lib/thumb/v7e-m+dp/hard\libc.a(lib_a-atoi.o)
 .data          0x20000590        0x0 c:/program files (x86)/gnu arm embedded toolchain/9 2020-q2-update/bin/../lib/gcc/arm-none-eabi/9.3.1/../../../../arm-none-eabi/lib/thumb/v7e-m+dp/hard\libc.a(lib_a-exit.o)
 .data          0x20000590        0x0 c:/program files (x86)/gnu arm embedded toolchain/9 2020-q2-update/bin/../lib/gcc/arm-none-eabi/9.3.1/../../../../arm-none-eabi/lib/thumb/v7e-m+dp/hard\libc.a(lib_a-impure.o)
 .data          0x20000590        0x0 c:/program files (x86)/gnu arm embedded toolchain/9 2020-q2-update/bin/../lib/gcc/arm-none-eabi/9.3.1/../../../../arm-none-eabi/lib/thumb/v7e-m+dp/hard\libc.a(lib_a-init.o)
 .data          0x20000590        0x0 c:/program files (x86)/gnu arm embedded toolchain/9 2020-q2-update/bin/../lib/gcc/arm-none-eabi/9.3.1/../../../../arm-none-eabi/lib/thumb/v7e-m+dp/hard\libc.a(lib_a-isalpha.o)
 .data          0x20000590        0x0 c:/program files (x86)/gnu arm embedded toolchain/9 2020-q2-update/bin/../lib/gcc/arm-none-eabi/9.3.1/../../../../arm-none-eabi/lib/thumb/v7e-m+dp/hard\libc.a(lib_a-isprint.o)
 .data          0x20000590        0x0 c:/program files (x86)/gnu arm embedded toolchain/9 2020-q2-update/bin/../lib/gcc/arm-none-eabi/9.3.1/../../../../arm-none-eabi/lib/thumb/v7e-m+dp/hard\libc.a(lib_a-lcltime.o)
 .data          0x20000590        0x0 c:/program files (x86)/gnu arm embedded toolchain/9 2020-q2-update/bin/../lib/gcc/arm-none-eabi/9.3.1/../../../../arm-none-eabi/lib/thumb/v7e-m+dp/hard\libc.a(lib_a-lcltime_r.o)
 .data          0x20000590        0x0 c:/program files (x86)/gnu arm embedded toolchain/9 2020-q2-update/bin/../lib/gcc/arm-none-eabi/9.3.1/../../../../arm-none-eabi/lib/thumb/v7e-m+dp/hard\libc.a(lib_a-memcmp.o)
 .data          0x20000590        0x0 c:/program files (x86)/gnu arm embedded toolchain/9 2020-q2-update/bin/../lib/gcc/arm-none-eabi/9.3.1/../../../../arm-none-eabi/lib/thumb/v7e-m+dp/hard\libc.a(lib_a-memcpy.o)
 .data          0x20000590        0x0 c:/program files (x86)/gnu arm embedded toolchain/9 2020-q2-update/bin/../lib/gcc/arm-none-eabi/9.3.1/../../../../arm-none-eabi/lib/thumb/v7e-m+dp/hard\libc.a(lib_a-memmove.o)
 .data          0x20000590        0x0 c:/program files (x86)/gnu arm embedded toolchain/9 2020-q2-update/bin/../lib/gcc/arm-none-eabi/9.3.1/../../../../arm-none-eabi/lib/thumb/v7e-m+dp/hard\libc.a(lib_a-memset.o)
 .data          0x20000590        0x0 c:/program files (x86)/gnu arm embedded toolchain/9 2020-q2-update/bin/../lib/gcc/arm-none-eabi/9.3.1/../../../../arm-none-eabi/lib/thumb/v7e-m+dp/hard\libc.a(lib_a-mktime.o)
 .data          0x20000590        0x0 c:/program files (x86)/gnu arm embedded toolchain/9 2020-q2-update/bin/../lib/gcc/arm-none-eabi/9.3.1/../../../../arm-none-eabi/lib/thumb/v7e-m+dp/hard\libc.a(lib_a-month_lengths.o)
 .data          0x20000590        0x0 c:/program files (x86)/gnu arm embedded toolchain/9 2020-q2-update/bin/../lib/gcc/arm-none-eabi/9.3.1/../../../../arm-none-eabi/lib/thumb/v7e-m+dp/hard\libc.a(lib_a-printf.o)
 .data          0x20000590        0x0 c:/program files (x86)/gnu arm embedded toolchain/9 2020-q2-update/bin/../lib/gcc/arm-none-eabi/9.3.1/../../../../arm-none-eabi/lib/thumb/v7e-m+dp/hard\libc.a(lib_a-rand.o)
 .data          0x20000590        0x0 c:/program files (x86)/gnu arm embedded toolchain/9 2020-q2-update/bin/../lib/gcc/arm-none-eabi/9.3.1/../../../../arm-none-eabi/lib/thumb/v7e-m+dp/hard\libc.a(lib_a-s_nan.o)
 .data          0x20000590        0x0 c:/program files (x86)/gnu arm embedded toolchain/9 2020-q2-update/bin/../lib/gcc/arm-none-eabi/9.3.1/../../../../arm-none-eabi/lib/thumb/v7e-m+dp/hard\libc.a(lib_a-snprintf.o)
 .data          0x20000590        0x0 c:/program files (x86)/gnu arm embedded toolchain/9 2020-q2-update/bin/../lib/gcc/arm-none-eabi/9.3.1/../../../../arm-none-eabi/lib/thumb/v7e-m+dp/hard\libc.a(lib_a-sprintf.o)
 .data          0x20000590        0x0 c:/program files (x86)/gnu arm embedded toolchain/9 2020-q2-update/bin/../lib/gcc/arm-none-eabi/9.3.1/../../../../arm-none-eabi/lib/thumb/v7e-m+dp/hard\libc.a(lib_a-sscanf.o)
 .data          0x20000590        0x0 c:/program files (x86)/gnu arm embedded toolchain/9 2020-q2-update/bin/../lib/gcc/arm-none-eabi/9.3.1/../../../../arm-none-eabi/lib/thumb/v7e-m+dp/hard\libc.a(lib_a-stdio.o)
 .data          0x20000590        0x0 c:/program files (x86)/gnu arm embedded toolchain/9 2020-q2-update/bin/../lib/gcc/arm-none-eabi/9.3.1/../../../../arm-none-eabi/lib/thumb/v7e-m+dp/hard\libc.a(lib_a-strcat.o)
 .data          0x20000590        0x0 c:/program files (x86)/gnu arm embedded toolchain/9 2020-q2-update/bin/../lib/gcc/arm-none-eabi/9.3.1/../../../../arm-none-eabi/lib/thumb/v7e-m+dp/hard\libc.a(lib_a-strchr.o)
 .data          0x20000590        0x0 c:/program files (x86)/gnu arm embedded toolchain/9 2020-q2-update/bin/../lib/gcc/arm-none-eabi/9.3.1/../../../../arm-none-eabi/lib/thumb/v7e-m+dp/hard\libc.a(lib_a-strcmp.o)
 .data          0x20000590        0x0 c:/program files (x86)/gnu arm embedded toolchain/9 2020-q2-update/bin/../lib/gcc/arm-none-eabi/9.3.1/../../../../arm-none-eabi/lib/thumb/v7e-m+dp/hard\libc.a(lib_a-strcpy.o)
 .data          0x20000590        0x0 c:/program files (x86)/gnu arm embedded toolchain/9 2020-q2-update/bin/../lib/gcc/arm-none-eabi/9.3.1/../../../../arm-none-eabi/lib/thumb/v7e-m+dp/hard\libc.a(lib_a-strlen.o)
 .data          0x20000590        0x0 c:/program files (x86)/gnu arm embedded toolchain/9 2020-q2-update/bin/../lib/gcc/arm-none-eabi/9.3.1/../../../../arm-none-eabi/lib/thumb/v7e-m+dp/hard\libc.a(lib_a-strncat.o)
 .data          0x20000590        0x0 c:/program files (x86)/gnu arm embedded toolchain/9 2020-q2-update/bin/../lib/gcc/arm-none-eabi/9.3.1/../../../../arm-none-eabi/lib/thumb/v7e-m+dp/hard\libc.a(lib_a-strncmp.o)
 .data          0x20000590        0x0 c:/program files (x86)/gnu arm embedded toolchain/9 2020-q2-update/bin/../lib/gcc/arm-none-eabi/9.3.1/../../../../arm-none-eabi/lib/thumb/v7e-m+dp/hard\libc.a(lib_a-strncpy.o)
 .data          0x20000590        0x0 c:/program files (x86)/gnu arm embedded toolchain/9 2020-q2-update/bin/../lib/gcc/arm-none-eabi/9.3.1/../../../../arm-none-eabi/lib/thumb/v7e-m+dp/hard\libc.a(lib_a-strtod.o)
 .data          0x20000590        0x0 c:/program files (x86)/gnu arm embedded toolchain/9 2020-q2-update/bin/../lib/gcc/arm-none-eabi/9.3.1/../../../../arm-none-eabi/lib/thumb/v7e-m+dp/hard\libc.a(lib_a-strtol.o)
 .data          0x20000590        0x0 c:/program files (x86)/gnu arm embedded toolchain/9 2020-q2-update/bin/../lib/gcc/arm-none-eabi/9.3.1/../../../../arm-none-eabi/lib/thumb/v7e-m+dp/hard\libc.a(lib_a-strtoul.o)
 .data          0x20000590        0x0 c:/program files (x86)/gnu arm embedded toolchain/9 2020-q2-update/bin/../lib/gcc/arm-none-eabi/9.3.1/../../../../arm-none-eabi/lib/thumb/v7e-m+dp/hard\libc.a(lib_a-strtoull.o)
 .data          0x20000590        0x0 c:/program files (x86)/gnu arm embedded toolchain/9 2020-q2-update/bin/../lib/gcc/arm-none-eabi/9.3.1/../../../../arm-none-eabi/lib/thumb/v7e-m+dp/hard\libc.a(lib_a-svfprintf.o)
 .data          0x20000590        0x0 c:/program files (x86)/gnu arm embedded toolchain/9 2020-q2-update/bin/../lib/gcc/arm-none-eabi/9.3.1/../../../../arm-none-eabi/lib/thumb/v7e-m+dp/hard\libc.a(lib_a-svfscanf.o)
 .data          0x20000590        0x0 c:/program files (x86)/gnu arm embedded toolchain/9 2020-q2-update/bin/../lib/gcc/arm-none-eabi/9.3.1/../../../../arm-none-eabi/lib/thumb/v7e-m+dp/hard\libc.a(lib_a-tolower.o)
 .data          0x20000590        0x0 c:/program files (x86)/gnu arm embedded toolchain/9 2020-q2-update/bin/../lib/gcc/arm-none-eabi/9.3.1/../../../../arm-none-eabi/lib/thumb/v7e-m+dp/hard\libc.a(lib_a-tzcalc_limits.o)
 .data          0x20000590        0x0 c:/program files (x86)/gnu arm embedded toolchain/9 2020-q2-update/bin/../lib/gcc/arm-none-eabi/9.3.1/../../../../arm-none-eabi/lib/thumb/v7e-m+dp/hard\libc.a(lib_a-tzlock.o)
 .data          0x20000590        0x0 c:/program files (x86)/gnu arm embedded toolchain/9 2020-q2-update/bin/../lib/gcc/arm-none-eabi/9.3.1/../../../../arm-none-eabi/lib/thumb/v7e-m+dp/hard\libc.a(lib_a-tzset.o)
 .data          0x20000590        0x0 c:/program files (x86)/gnu arm embedded toolchain/9 2020-q2-update/bin/../lib/gcc/arm-none-eabi/9.3.1/../../../../arm-none-eabi/lib/thumb/v7e-m+dp/hard\libc.a(lib_a-tzset_r.o)
 .data          0x20000590        0x0 c:/program files (x86)/gnu arm embedded toolchain/9 2020-q2-update/bin/../lib/gcc/arm-none-eabi/9.3.1/../../../../arm-none-eabi/lib/thumb/v7e-m+dp/hard\libc.a(lib_a-tzvars.o)
 .data          0x20000590        0x0 c:/program files (x86)/gnu arm embedded toolchain/9 2020-q2-update/bin/../lib/gcc/arm-none-eabi/9.3.1/../../../../arm-none-eabi/lib/thumb/v7e-m+dp/hard\libc.a(lib_a-vfprintf.o)
 .data          0x20000590        0x0 c:/program files (x86)/gnu arm embedded toolchain/9 2020-q2-update/bin/../lib/gcc/arm-none-eabi/9.3.1/../../../../arm-none-eabi/lib/thumb/v7e-m+dp/hard\libc.a(lib_a-vsnprintf.o)
 .data          0x20000590        0x0 c:/program files (x86)/gnu arm embedded toolchain/9 2020-q2-update/bin/../lib/gcc/arm-none-eabi/9.3.1/../../../../arm-none-eabi/lib/thumb/v7e-m+dp/hard\libc.a(lib_a-writer.o)
 .data          0x20000590        0x0 c:/program files (x86)/gnu arm embedded toolchain/9 2020-q2-update/bin/../lib/gcc/arm-none-eabi/9.3.1/../../../../arm-none-eabi/lib/thumb/v7e-m+dp/hard\libc.a(lib_a-wsetup.o)
 .data          0x20000590        0x0 c:/program files (x86)/gnu arm embedded toolchain/9 2020-q2-update/bin/../lib/gcc/arm-none-eabi/9.3.1/../../../../arm-none-eabi/lib/thumb/v7e-m+dp/hard\libc.a(lib_a-__atexit.o)
 .data          0x20000590        0x0 c:/program files (x86)/gnu arm embedded toolchain/9 2020-q2-update/bin/../lib/gcc/arm-none-eabi/9.3.1/../../../../arm-none-eabi/lib/thumb/v7e-m+dp/hard\libc.a(lib_a-__call_atexit.o)
 .data          0x20000590        0x0 c:/program files (x86)/gnu arm embedded toolchain/9 2020-q2-update/bin/../lib/gcc/arm-none-eabi/9.3.1/../../../../arm-none-eabi/lib/thumb/v7e-m+dp/hard\libc.a(lib_a-closer.o)
 .data          0x20000590        0x0 c:/program files (x86)/gnu arm embedded toolchain/9 2020-q2-update/bin/../lib/gcc/arm-none-eabi/9.3.1/../../../../arm-none-eabi/lib/thumb/v7e-m+dp/hard\libc.a(lib_a-ctype_.o)
 .data          0x20000590        0x0 c:/program files (x86)/gnu arm embedded toolchain/9 2020-q2-update/bin/../lib/gcc/arm-none-eabi/9.3.1/../../../../arm-none-eabi/lib/thumb/v7e-m+dp/hard\libc.a(lib_a-div.o)
 .data          0x20000590        0x0 c:/program files (x86)/gnu arm embedded toolchain/9 2020-q2-update/bin/../lib/gcc/arm-none-eabi/9.3.1/../../../../arm-none-eabi/lib/thumb/v7e-m+dp/hard\libc.a(lib_a-dtoa.o)
 .data          0x20000590        0x0 c:/program files (x86)/gnu arm embedded toolchain/9 2020-q2-update/bin/../lib/gcc/arm-none-eabi/9.3.1/../../../../arm-none-eabi/lib/thumb/v7e-m+dp/hard\libc.a(lib_a-errno.o)
 .data          0x20000590        0x0 c:/program files (x86)/gnu arm embedded toolchain/9 2020-q2-update/bin/../lib/gcc/arm-none-eabi/9.3.1/../../../../arm-none-eabi/lib/thumb/v7e-m+dp/hard\libc.a(lib_a-fflush.o)
 .data          0x20000590        0x0 c:/program files (x86)/gnu arm embedded toolchain/9 2020-q2-update/bin/../lib/gcc/arm-none-eabi/9.3.1/../../../../arm-none-eabi/lib/thumb/v7e-m+dp/hard\libc.a(lib_a-findfp.o)
 .data          0x20000590        0x0 c:/program files (x86)/gnu arm embedded toolchain/9 2020-q2-update/bin/../lib/gcc/arm-none-eabi/9.3.1/../../../../arm-none-eabi/lib/thumb/v7e-m+dp/hard\libc.a(lib_a-fini.o)
 .data          0x20000590        0x0 c:/program files (x86)/gnu arm embedded toolchain/9 2020-q2-update/bin/../lib/gcc/arm-none-eabi/9.3.1/../../../../arm-none-eabi/lib/thumb/v7e-m+dp/hard\libc.a(lib_a-freer.o)
 .data          0x20000590        0x0 c:/program files (x86)/gnu arm embedded toolchain/9 2020-q2-update/bin/../lib/gcc/arm-none-eabi/9.3.1/../../../../arm-none-eabi/lib/thumb/v7e-m+dp/hard\libc.a(lib_a-fwalk.o)
 .data          0x20000590        0x0 c:/program files (x86)/gnu arm embedded toolchain/9 2020-q2-update/bin/../lib/gcc/arm-none-eabi/9.3.1/../../../../arm-none-eabi/lib/thumb/v7e-m+dp/hard\libc.a(lib_a-gdtoa-gethex.o)
 .data          0x20000590        0x0 c:/program files (x86)/gnu arm embedded toolchain/9 2020-q2-update/bin/../lib/gcc/arm-none-eabi/9.3.1/../../../../arm-none-eabi/lib/thumb/v7e-m+dp/hard\libc.a(lib_a-gdtoa-hexnan.o)
 .data          0x20000590        0x0 c:/program files (x86)/gnu arm embedded toolchain/9 2020-q2-update/bin/../lib/gcc/arm-none-eabi/9.3.1/../../../../arm-none-eabi/lib/thumb/v7e-m+dp/hard\libc.a(lib_a-getenv_r.o)
 .data          0x20000590        0x0 c:/program files (x86)/gnu arm embedded toolchain/9 2020-q2-update/bin/../lib/gcc/arm-none-eabi/9.3.1/../../../../arm-none-eabi/lib/thumb/v7e-m+dp/hard\libc.a(lib_a-gettzinfo.o)
 .data          0x20000590        0x0 c:/program files (x86)/gnu arm embedded toolchain/9 2020-q2-update/bin/../lib/gcc/arm-none-eabi/9.3.1/../../../../arm-none-eabi/lib/thumb/v7e-m+dp/hard\libc.a(lib_a-gmtime_r.o)
 .data          0x20000590        0x0 c:/program files (x86)/gnu arm embedded toolchain/9 2020-q2-update/bin/../lib/gcc/arm-none-eabi/9.3.1/../../../../arm-none-eabi/lib/thumb/v7e-m+dp/hard\libc.a(lib_a-iswspace.o)
 .data          0x20000590        0x0 c:/program files (x86)/gnu arm embedded toolchain/9 2020-q2-update/bin/../lib/gcc/arm-none-eabi/9.3.1/../../../../arm-none-eabi/lib/thumb/v7e-m+dp/hard\libc.a(lib_a-iswspace_l.o)
 .data          0x20000590        0x0 c:/program files (x86)/gnu arm embedded toolchain/9 2020-q2-update/bin/../lib/gcc/arm-none-eabi/9.3.1/../../../../arm-none-eabi/lib/thumb/v7e-m+dp/hard\libc.a(lib_a-lnumeric.o)
 .data          0x20000590        0x0 c:/program files (x86)/gnu arm embedded toolchain/9 2020-q2-update/bin/../lib/gcc/arm-none-eabi/9.3.1/../../../../arm-none-eabi/lib/thumb/v7e-m+dp/hard\libc.a(lib_a-locale.o)
 .data          0x20000590        0x0 c:/program files (x86)/gnu arm embedded toolchain/9 2020-q2-update/bin/../lib/gcc/arm-none-eabi/9.3.1/../../../../arm-none-eabi/lib/thumb/v7e-m+dp/hard\libc.a(lib_a-localeconv.o)
 .data          0x20000590        0x0 c:/program files (x86)/gnu arm embedded toolchain/9 2020-q2-update/bin/../lib/gcc/arm-none-eabi/9.3.1/../../../../arm-none-eabi/lib/thumb/v7e-m+dp/hard\libc.a(lib_a-lock.o)
 .data          0x20000590        0x0 c:/program files (x86)/gnu arm embedded toolchain/9 2020-q2-update/bin/../lib/gcc/arm-none-eabi/9.3.1/../../../../arm-none-eabi/lib/thumb/v7e-m+dp/hard\libc.a(lib_a-lseekr.o)
 .data          0x20000590        0x0 c:/program files (x86)/gnu arm embedded toolchain/9 2020-q2-update/bin/../lib/gcc/arm-none-eabi/9.3.1/../../../../arm-none-eabi/lib/thumb/v7e-m+dp/hard\libc.a(lib_a-makebuf.o)
 .data          0x20000590        0x0 c:/program files (x86)/gnu arm embedded toolchain/9 2020-q2-update/bin/../lib/gcc/arm-none-eabi/9.3.1/../../../../arm-none-eabi/lib/thumb/v7e-m+dp/hard\libc.a(lib_a-malloc.o)
 .data          0x20000590        0x0 c:/program files (x86)/gnu arm embedded toolchain/9 2020-q2-update/bin/../lib/gcc/arm-none-eabi/9.3.1/../../../../arm-none-eabi/lib/thumb/v7e-m+dp/hard\libc.a(lib_a-mallocr.o)
 .data          0x20000590        0x0 c:/program files (x86)/gnu arm embedded toolchain/9 2020-q2-update/bin/../lib/gcc/arm-none-eabi/9.3.1/../../../../arm-none-eabi/lib/thumb/v7e-m+dp/hard\libc.a(lib_a-mbrtowc.o)
 .data          0x20000590        0x0 c:/program files (x86)/gnu arm embedded toolchain/9 2020-q2-update/bin/../lib/gcc/arm-none-eabi/9.3.1/../../../../arm-none-eabi/lib/thumb/v7e-m+dp/hard\libc.a(lib_a-mbtowc_r.o)
 .data          0x20000590        0x0 c:/program files (x86)/gnu arm embedded toolchain/9 2020-q2-update/bin/../lib/gcc/arm-none-eabi/9.3.1/../../../../arm-none-eabi/lib/thumb/v7e-m+dp/hard\libc.a(lib_a-memchr.o)
 .data          0x20000590        0x0 c:/program files (x86)/gnu arm embedded toolchain/9 2020-q2-update/bin/../lib/gcc/arm-none-eabi/9.3.1/../../../../arm-none-eabi/lib/thumb/v7e-m+dp/hard\libc.a(lib_a-mlock.o)
 .data          0x20000590        0x0 c:/program files (x86)/gnu arm embedded toolchain/9 2020-q2-update/bin/../lib/gcc/arm-none-eabi/9.3.1/../../../../arm-none-eabi/lib/thumb/v7e-m+dp/hard\libc.a(lib_a-mprec.o)
 .data          0x20000590        0x0 c:/program files (x86)/gnu arm embedded toolchain/9 2020-q2-update/bin/../lib/gcc/arm-none-eabi/9.3.1/../../../../arm-none-eabi/lib/thumb/v7e-m+dp/hard\libc.a(lib_a-readr.o)
 .data          0x20000590        0x0 c:/program files (x86)/gnu arm embedded toolchain/9 2020-q2-update/bin/../lib/gcc/arm-none-eabi/9.3.1/../../../../arm-none-eabi/lib/thumb/v7e-m+dp/hard\libc.a(lib_a-realloc.o)
 .data          0x20000590        0x0 c:/program files (x86)/gnu arm embedded toolchain/9 2020-q2-update/bin/../lib/gcc/arm-none-eabi/9.3.1/../../../../arm-none-eabi/lib/thumb/v7e-m+dp/hard\libc.a(lib_a-reallocr.o)
 .data          0x20000590        0x0 c:/program files (x86)/gnu arm embedded toolchain/9 2020-q2-update/bin/../lib/gcc/arm-none-eabi/9.3.1/../../../../arm-none-eabi/lib/thumb/v7e-m+dp/hard\libc.a(lib_a-reent.o)
 .data          0x20000590        0x0 c:/program files (x86)/gnu arm embedded toolchain/9 2020-q2-update/bin/../lib/gcc/arm-none-eabi/9.3.1/../../../../arm-none-eabi/lib/thumb/v7e-m+dp/hard\libc.a(lib_a-s_frexp.o)
 .data          0x20000590        0x0 c:/program files (x86)/gnu arm embedded toolchain/9 2020-q2-update/bin/../lib/gcc/arm-none-eabi/9.3.1/../../../../arm-none-eabi/lib/thumb/v7e-m+dp/hard\libc.a(lib_a-sbrkr.o)
 .data          0x20000590        0x0 c:/program files (x86)/gnu arm embedded toolchain/9 2020-q2-update/bin/../lib/gcc/arm-none-eabi/9.3.1/../../../../arm-none-eabi/lib/thumb/v7e-m+dp/hard\libc.a(lib_a-sccl.o)
 .data          0x20000590        0x0 c:/program files (x86)/gnu arm embedded toolchain/9 2020-q2-update/bin/../lib/gcc/arm-none-eabi/9.3.1/../../../../arm-none-eabi/lib/thumb/v7e-m+dp/hard\libc.a(lib_a-sf_nan.o)
 .data          0x20000590        0x0 c:/program files (x86)/gnu arm embedded toolchain/9 2020-q2-update/bin/../lib/gcc/arm-none-eabi/9.3.1/../../../../arm-none-eabi/lib/thumb/v7e-m+dp/hard\libc.a(lib_a-siscanf.o)
 .data          0x20000590        0x0 c:/program files (x86)/gnu arm embedded toolchain/9 2020-q2-update/bin/../lib/gcc/arm-none-eabi/9.3.1/../../../../arm-none-eabi/lib/thumb/v7e-m+dp/hard\libc.a(lib_a-strtoll.o)
 .data          0x20000590        0x0 c:/program files (x86)/gnu arm embedded toolchain/9 2020-q2-update/bin/../lib/gcc/arm-none-eabi/9.3.1/../../../../arm-none-eabi/lib/thumb/v7e-m+dp/hard\libc.a(lib_a-svfiprintf.o)
 .data          0x20000590        0x0 c:/program files (x86)/gnu arm embedded toolchain/9 2020-q2-update/bin/../lib/gcc/arm-none-eabi/9.3.1/../../../../arm-none-eabi/lib/thumb/v7e-m+dp/hard\libc.a(lib_a-svfiscanf.o)
 .data          0x20000590        0x0 c:/program files (x86)/gnu arm embedded toolchain/9 2020-q2-update/bin/../lib/gcc/arm-none-eabi/9.3.1/../../../../arm-none-eabi/lib/thumb/v7e-m+dp/hard\libc.a(lib_a-ungetc.o)
 .data          0x20000590        0x0 c:/program files (x86)/gnu arm embedded toolchain/9 2020-q2-update/bin/../lib/gcc/arm-none-eabi/9.3.1/../../../../arm-none-eabi/lib/thumb/v7e-m+dp/hard\libc.a(lib_a-vfiprintf.o)
 .data          0x20000590        0x0 c:/program files (x86)/gnu arm embedded toolchain/9 2020-q2-update/bin/../lib/gcc/arm-none-eabi/9.3.1/../../../../arm-none-eabi/lib/thumb/v7e-m+dp/hard\libc.a(lib_a-wctomb_r.o)
 .data          0x20000590        0x0 c:/program files (x86)/gnu arm embedded toolchain/9 2020-q2-update/bin/../lib/gcc/arm-none-eabi/9.3.1/../../../../arm-none-eabi/lib/thumb/v7e-m+dp/hard\libc.a(lib_a-assert.o)
 .data          0x20000590        0x0 c:/program files (x86)/gnu arm embedded toolchain/9 2020-q2-update/bin/../lib/gcc/arm-none-eabi/9.3.1/../../../../arm-none-eabi/lib/thumb/v7e-m+dp/hard\libc.a(lib_a-callocr.o)
 .data          0x20000590        0x0 c:/program files (x86)/gnu arm embedded toolchain/9 2020-q2-update/bin/../lib/gcc/arm-none-eabi/9.3.1/../../../../arm-none-eabi/lib/thumb/v7e-m+dp/hard\libc.a(lib_a-environ.o)
 .data          0x20000590        0x0 c:/program files (x86)/gnu arm embedded toolchain/9 2020-q2-update/bin/../lib/gcc/arm-none-eabi/9.3.1/../../../../arm-none-eabi/lib/thumb/v7e-m+dp/hard\libc.a(lib_a-envlock.o)
 .data          0x20000590        0x0 c:/program files (x86)/gnu arm embedded toolchain/9 2020-q2-update/bin/../lib/gcc/arm-none-eabi/9.3.1/../../../../arm-none-eabi/lib/thumb/v7e-m+dp/hard\libc.a(lib_a-fclose.o)
 .data          0x20000590        0x0 c:/program files (x86)/gnu arm embedded toolchain/9 2020-q2-update/bin/../lib/gcc/arm-none-eabi/9.3.1/../../../../arm-none-eabi/lib/thumb/v7e-m+dp/hard\libc.a(lib_a-fiprintf.o)
 .data          0x20000590        0x0 c:/program files (x86)/gnu arm embedded toolchain/9 2020-q2-update/bin/../lib/gcc/arm-none-eabi/9.3.1/../../../../arm-none-eabi/lib/thumb/v7e-m+dp/hard\libc.a(lib_a-fputwc.o)
 .data          0x20000590        0x0 c:/program files (x86)/gnu arm embedded toolchain/9 2020-q2-update/bin/../lib/gcc/arm-none-eabi/9.3.1/../../../../arm-none-eabi/lib/thumb/v7e-m+dp/hard\libc.a(lib_a-fstatr.o)
 .data          0x20000590        0x0 c:/program files (x86)/gnu arm embedded toolchain/9 2020-q2-update/bin/../lib/gcc/arm-none-eabi/9.3.1/../../../../arm-none-eabi/lib/thumb/v7e-m+dp/hard\libc.a(lib_a-fvwrite.o)
 .data          0x20000590        0x0 c:/program files (x86)/gnu arm embedded toolchain/9 2020-q2-update/bin/../lib/gcc/arm-none-eabi/9.3.1/../../../../arm-none-eabi/lib/thumb/v7e-m+dp/hard\libc.a(lib_a-isattyr.o)
 .data          0x20000590        0x0 c:/program files (x86)/gnu arm embedded toolchain/9 2020-q2-update/bin/../lib/gcc/arm-none-eabi/9.3.1/../../../../arm-none-eabi/lib/thumb/v7e-m+dp/hard\libc.a(lib_a-wbuf.o)
 .data          0x20000590        0x0 c:/program files (x86)/gnu arm embedded toolchain/9 2020-q2-update/bin/../lib/gcc/arm-none-eabi/9.3.1/../../../../arm-none-eabi/lib/thumb/v7e-m+dp/hard\libc.a(lib_a-wcrtomb.o)
 .data          0x20000590        0x0 c:/program files (x86)/gnu arm embedded toolchain/9 2020-q2-update/bin/../lib/gcc/arm-none-eabi/9.3.1/../../../../arm-none-eabi/lib/thumb/v7e-m+dp/hard\libc.a(lib_a-abort.o)
 .data          0x20000590        0x0 c:/program files (x86)/gnu arm embedded toolchain/9 2020-q2-update/bin/../lib/gcc/arm-none-eabi/9.3.1/../../../../arm-none-eabi/lib/thumb/v7e-m+dp/hard\libc.a(lib_a-signal.o)
 .data          0x20000590        0x0 c:/program files (x86)/gnu arm embedded toolchain/9 2020-q2-update/bin/../lib/gcc/arm-none-eabi/9.3.1/../../../../arm-none-eabi/lib/thumb/v7e-m+dp/hard\libc.a(lib_a-signalr.o)
 .data          0x20000590        0x0 c:/program files (x86)/gnu arm embedded toolchain/9 2020-q2-update/bin/../lib/gcc/arm-none-eabi/9.3.1/../../../../arm-none-eabi/lib/thumb/v7e-m+dp/hard\libnosys.a(close.o)
 .data          0x20000590        0x0 c:/program files (x86)/gnu arm embedded toolchain/9 2020-q2-update/bin/../lib/gcc/arm-none-eabi/9.3.1/../../../../arm-none-eabi/lib/thumb/v7e-m+dp/hard\libnosys.a(fstat.o)
 .data          0x20000590        0x0 c:/program files (x86)/gnu arm embedded toolchain/9 2020-q2-update/bin/../lib/gcc/arm-none-eabi/9.3.1/../../../../arm-none-eabi/lib/thumb/v7e-m+dp/hard\libnosys.a(getpid.o)
 .data          0x20000590        0x0 c:/program files (x86)/gnu arm embedded toolchain/9 2020-q2-update/bin/../lib/gcc/arm-none-eabi/9.3.1/../../../../arm-none-eabi/lib/thumb/v7e-m+dp/hard\libnosys.a(isatty.o)
 .data          0x20000590        0x0 c:/program files (x86)/gnu arm embedded toolchain/9 2020-q2-update/bin/../lib/gcc/arm-none-eabi/9.3.1/../../../../arm-none-eabi/lib/thumb/v7e-m+dp/hard\libnosys.a(kill.o)
 .data          0x20000590        0x0 c:/program files (x86)/gnu arm embedded toolchain/9 2020-q2-update/bin/../lib/gcc/arm-none-eabi/9.3.1/../../../../arm-none-eabi/lib/thumb/v7e-m+dp/hard\libnosys.a(lseek.o)
 .data          0x20000590        0x0 c:/program files (x86)/gnu arm embedded toolchain/9 2020-q2-update/bin/../lib/gcc/arm-none-eabi/9.3.1/../../../../arm-none-eabi/lib/thumb/v7e-m+dp/hard\libnosys.a(read.o)
 .data          0x20000590        0x0 c:/program files (x86)/gnu arm embedded toolchain/9 2020-q2-update/bin/../lib/gcc/arm-none-eabi/9.3.1/../../../../arm-none-eabi/lib/thumb/v7e-m+dp/hard\libnosys.a(sbrk.o)
 .data          0x20000590        0x0 c:/program files (x86)/gnu arm embedded toolchain/9 2020-q2-update/bin/../lib/gcc/arm-none-eabi/9.3.1/../../../../arm-none-eabi/lib/thumb/v7e-m+dp/hard\libnosys.a(write.o)
 .data          0x20000590        0x0 c:/program files (x86)/gnu arm embedded toolchain/9 2020-q2-update/bin/../lib/gcc/arm-none-eabi/9.3.1/../../../../arm-none-eabi/lib/thumb/v7e-m+dp/hard\libnosys.a(_exit.o)
 .data          0x20000590        0x0 c:/program files (x86)/gnu arm embedded toolchain/9 2020-q2-update/bin/../lib/gcc/arm-none-eabi/9.3.1/thumb/v7e-m+dp/hard/crtend.o
 .data          0x20000590        0x0 c:/program files (x86)/gnu arm embedded toolchain/9 2020-q2-update/bin/../lib/gcc/arm-none-eabi/9.3.1/thumb/v7e-m+dp/hard/crtn.o
 .data          0x20000590        0x0 c:/program files (x86)/gnu arm embedded toolchain/9 2020-q2-update/bin/../lib/gcc/arm-none-eabi/9.3.1/../../../../arm-none-eabi/lib/thumb/v7e-m+dp/hard\libm.a(lib_a-exp.o)
 .data          0x20000590        0x0 c:/program files (x86)/gnu arm embedded toolchain/9 2020-q2-update/bin/../lib/gcc/arm-none-eabi/9.3.1/../../../../arm-none-eabi/lib/thumb/v7e-m+dp/hard\libm.a(lib_a-exp_data.o)
 .data          0x20000590        0x0 c:/program files (x86)/gnu arm embedded toolchain/9 2020-q2-update/bin/../lib/gcc/arm-none-eabi/9.3.1/../../../../arm-none-eabi/lib/thumb/v7e-m+dp/hard\libm.a(lib_a-math_err.o)
 .data          0x20000590        0x0 c:/program files (x86)/gnu arm embedded toolchain/9 2020-q2-update/bin/../lib/gcc/arm-none-eabi/9.3.1/../../../../arm-none-eabi/lib/thumb/v7e-m+dp/hard\libm.a(lib_a-pow.o)
 .data          0x20000590        0x0 c:/program files (x86)/gnu arm embedded toolchain/9 2020-q2-update/bin/../lib/gcc/arm-none-eabi/9.3.1/../../../../arm-none-eabi/lib/thumb/v7e-m+dp/hard\libm.a(lib_a-pow_log_data.o)
 .data          0x20000590        0x0 c:/program files (x86)/gnu arm embedded toolchain/9 2020-q2-update/bin/../lib/gcc/arm-none-eabi/9.3.1/../../../../arm-none-eabi/lib/thumb/v7e-m+dp/hard\libm.a(lib_a-s_atan.o)
 .data          0x20000590        0x0 c:/program files (x86)/gnu arm embedded toolchain/9 2020-q2-update/bin/../lib/gcc/arm-none-eabi/9.3.1/../../../../arm-none-eabi/lib/thumb/v7e-m+dp/hard\libm.a(lib_a-s_cos.o)
 .data          0x20000590        0x0 c:/program files (x86)/gnu arm embedded toolchain/9 2020-q2-update/bin/../lib/gcc/arm-none-eabi/9.3.1/../../../../arm-none-eabi/lib/thumb/v7e-m+dp/hard\libm.a(lib_a-s_fabs.o)
 .data          0x20000590        0x0 c:/program files (x86)/gnu arm embedded toolchain/9 2020-q2-update/bin/../lib/gcc/arm-none-eabi/9.3.1/../../../../arm-none-eabi/lib/thumb/v7e-m+dp/hard\libm.a(lib_a-s_floor.o)
 .data          0x20000590        0x0 c:/program files (x86)/gnu arm embedded toolchain/9 2020-q2-update/bin/../lib/gcc/arm-none-eabi/9.3.1/../../../../arm-none-eabi/lib/thumb/v7e-m+dp/hard\libm.a(lib_a-s_round.o)
 .data          0x20000590        0x0 c:/program files (x86)/gnu arm embedded toolchain/9 2020-q2-update/bin/../lib/gcc/arm-none-eabi/9.3.1/../../../../arm-none-eabi/lib/thumb/v7e-m+dp/hard\libm.a(lib_a-s_sin.o)
 .data          0x20000590        0x0 c:/program files (x86)/gnu arm embedded toolchain/9 2020-q2-update/bin/../lib/gcc/arm-none-eabi/9.3.1/../../../../arm-none-eabi/lib/thumb/v7e-m+dp/hard\libm.a(lib_a-s_tan.o)
 .data          0x20000590        0x0 c:/program files (x86)/gnu arm embedded toolchain/9 2020-q2-update/bin/../lib/gcc/arm-none-eabi/9.3.1/../../../../arm-none-eabi/lib/thumb/v7e-m+dp/hard\libm.a(lib_a-w_acos.o)
 .data          0x20000590        0x0 c:/program files (x86)/gnu arm embedded toolchain/9 2020-q2-update/bin/../lib/gcc/arm-none-eabi/9.3.1/../../../../arm-none-eabi/lib/thumb/v7e-m+dp/hard\libm.a(lib_a-w_asin.o)
 .data          0x20000590        0x0 c:/program files (x86)/gnu arm embedded toolchain/9 2020-q2-update/bin/../lib/gcc/arm-none-eabi/9.3.1/../../../../arm-none-eabi/lib/thumb/v7e-m+dp/hard\libm.a(lib_a-w_atan2.o)
 .data          0x20000590        0x0 c:/program files (x86)/gnu arm embedded toolchain/9 2020-q2-update/bin/../lib/gcc/arm-none-eabi/9.3.1/../../../../arm-none-eabi/lib/thumb/v7e-m+dp/hard\libm.a(lib_a-w_fmod.o)
 .data          0x20000590        0x0 c:/program files (x86)/gnu arm embedded toolchain/9 2020-q2-update/bin/../lib/gcc/arm-none-eabi/9.3.1/../../../../arm-none-eabi/lib/thumb/v7e-m+dp/hard\libm.a(lib_a-w_sqrt.o)
 .data          0x20000590        0x0 c:/program files (x86)/gnu arm embedded toolchain/9 2020-q2-update/bin/../lib/gcc/arm-none-eabi/9.3.1/../../../../arm-none-eabi/lib/thumb/v7e-m+dp/hard\libm.a(lib_a-wf_sqrt.o)
 .data          0x20000590        0x0 c:/program files (x86)/gnu arm embedded toolchain/9 2020-q2-update/bin/../lib/gcc/arm-none-eabi/9.3.1/../../../../arm-none-eabi/lib/thumb/v7e-m+dp/hard\libm.a(lib_a-e_acos.o)
 .data          0x20000590        0x0 c:/program files (x86)/gnu arm embedded toolchain/9 2020-q2-update/bin/../lib/gcc/arm-none-eabi/9.3.1/../../../../arm-none-eabi/lib/thumb/v7e-m+dp/hard\libm.a(lib_a-e_asin.o)
 .data          0x20000590        0x0 c:/program files (x86)/gnu arm embedded toolchain/9 2020-q2-update/bin/../lib/gcc/arm-none-eabi/9.3.1/../../../../arm-none-eabi/lib/thumb/v7e-m+dp/hard\libm.a(lib_a-e_atan2.o)
 .data          0x20000590        0x0 c:/program files (x86)/gnu arm embedded toolchain/9 2020-q2-update/bin/../lib/gcc/arm-none-eabi/9.3.1/../../../../arm-none-eabi/lib/thumb/v7e-m+dp/hard\libm.a(lib_a-e_fmod.o)
 .data          0x20000590        0x0 c:/program files (x86)/gnu arm embedded toolchain/9 2020-q2-update/bin/../lib/gcc/arm-none-eabi/9.3.1/../../../../arm-none-eabi/lib/thumb/v7e-m+dp/hard\libm.a(lib_a-e_rem_pio2.o)
 .data          0x20000590        0x0 c:/program files (x86)/gnu arm embedded toolchain/9 2020-q2-update/bin/../lib/gcc/arm-none-eabi/9.3.1/../../../../arm-none-eabi/lib/thumb/v7e-m+dp/hard\libm.a(lib_a-e_sqrt.o)
 .data          0x20000590        0x0 c:/program files (x86)/gnu arm embedded toolchain/9 2020-q2-update/bin/../lib/gcc/arm-none-eabi/9.3.1/../../../../arm-none-eabi/lib/thumb/v7e-m+dp/hard\libm.a(lib_a-ef_sqrt.o)
 .data          0x20000590        0x0 c:/program files (x86)/gnu arm embedded toolchain/9 2020-q2-update/bin/../lib/gcc/arm-none-eabi/9.3.1/../../../../arm-none-eabi/lib/thumb/v7e-m+dp/hard\libm.a(lib_a-k_cos.o)
 .data          0x20000590        0x0 c:/program files (x86)/gnu arm embedded toolchain/9 2020-q2-update/bin/../lib/gcc/arm-none-eabi/9.3.1/../../../../arm-none-eabi/lib/thumb/v7e-m+dp/hard\libm.a(lib_a-k_rem_pio2.o)
 .data          0x20000590        0x0 c:/program files (x86)/gnu arm embedded toolchain/9 2020-q2-update/bin/../lib/gcc/arm-none-eabi/9.3.1/../../../../arm-none-eabi/lib/thumb/v7e-m+dp/hard\libm.a(lib_a-k_sin.o)
 .data          0x20000590        0x0 c:/program files (x86)/gnu arm embedded toolchain/9 2020-q2-update/bin/../lib/gcc/arm-none-eabi/9.3.1/../../../../arm-none-eabi/lib/thumb/v7e-m+dp/hard\libm.a(lib_a-k_tan.o)
 .data          0x20000590        0x0 c:/program files (x86)/gnu arm embedded toolchain/9 2020-q2-update/bin/../lib/gcc/arm-none-eabi/9.3.1/../../../../arm-none-eabi/lib/thumb/v7e-m+dp/hard\libm.a(lib_a-s_lib_ver.o)
 .data          0x20000590        0x0 c:/program files (x86)/gnu arm embedded toolchain/9 2020-q2-update/bin/../lib/gcc/arm-none-eabi/9.3.1/../../../../arm-none-eabi/lib/thumb/v7e-m+dp/hard\libm.a(lib_a-s_scalbn.o)
 *(.data*)
 .data._impure_ptr
                0x20000590        0x4 c:/program files (x86)/gnu arm embedded toolchain/9 2020-q2-update/bin/../lib/gcc/arm-none-eabi/9.3.1/../../../../arm-none-eabi/lib/thumb/v7e-m+dp/hard\libc.a(lib_a-impure.o)
                0x20000590                _impure_ptr
 *fill*         0x20000594        0x4 
 .data.impure_data
                0x20000598      0x428 c:/program files (x86)/gnu arm embedded toolchain/9 2020-q2-update/bin/../lib/gcc/arm-none-eabi/9.3.1/../../../../arm-none-eabi/lib/thumb/v7e-m+dp/hard\libc.a(lib_a-impure.o)
 .data._tzname  0x200009c0        0x8 c:/program files (x86)/gnu arm embedded toolchain/9 2020-q2-update/bin/../lib/gcc/arm-none-eabi/9.3.1/../../../../arm-none-eabi/lib/thumb/v7e-m+dp/hard\libc.a(lib_a-tzvars.o)
                0x200009c0                _tzname
 .data.__atexit_recursive_mutex
                0x200009c8        0x4 c:/program files (x86)/gnu arm embedded toolchain/9 2020-q2-update/bin/../lib/gcc/arm-none-eabi/9.3.1/../../../../arm-none-eabi/lib/thumb/v7e-m+dp/hard\libc.a(lib_a-__call_atexit.o)
                0x200009c8                __atexit_recursive_mutex
 *fill*         0x200009cc        0x4 
 .data.tzinfo   0x200009d0       0x58 c:/program files (x86)/gnu arm embedded toolchain/9 2020-q2-update/bin/../lib/gcc/arm-none-eabi/9.3.1/../../../../arm-none-eabi/lib/thumb/v7e-m+dp/hard\libc.a(lib_a-gettzinfo.o)
 .data.numempty
                0x20000a28        0x2 c:/program files (x86)/gnu arm embedded toolchain/9 2020-q2-update/bin/../lib/gcc/arm-none-eabi/9.3.1/../../../../arm-none-eabi/lib/thumb/v7e-m+dp/hard\libc.a(lib_a-lnumeric.o)
 *fill*         0x20000a2a        0x2 
 .data.__global_locale
                0x20000a2c      0x16c c:/program files (x86)/gnu arm embedded toolchain/9 2020-q2-update/bin/../lib/gcc/arm-none-eabi/9.3.1/../../../../arm-none-eabi/lib/thumb/v7e-m+dp/hard\libc.a(lib_a-locale.o)
                0x20000a2c                __global_locale
 .data.__malloc_av_
                0x20000b98      0x408 c:/program files (x86)/gnu arm embedded toolchain/9 2020-q2-update/bin/../lib/gcc/arm-none-eabi/9.3.1/../../../../arm-none-eabi/lib/thumb/v7e-m+dp/hard\libc.a(lib_a-mallocr.o)
                0x20000b98                __malloc_av_
 .data.__malloc_sbrk_base
                0x20000fa0        0x4 c:/program files (x86)/gnu arm embedded toolchain/9 2020-q2-update/bin/../lib/gcc/arm-none-eabi/9.3.1/../../../../arm-none-eabi/lib/thumb/v7e-m+dp/hard\libc.a(lib_a-mallocr.o)
                0x20000fa0                __malloc_sbrk_base
 .data.__malloc_trim_threshold
                0x20000fa4        0x4 c:/program files (x86)/gnu arm embedded toolchain/9 2020-q2-update/bin/../lib/gcc/arm-none-eabi/9.3.1/../../../../arm-none-eabi/lib/thumb/v7e-m+dp/hard\libc.a(lib_a-mallocr.o)
                0x20000fa4                __malloc_trim_threshold
 .data.environ  0x20000fa8        0x4 c:/program files (x86)/gnu arm embedded toolchain/9 2020-q2-update/bin/../lib/gcc/arm-none-eabi/9.3.1/../../../../arm-none-eabi/lib/thumb/v7e-m+dp/hard\libc.a(lib_a-environ.o)
                0x20000fa8                environ
 .data.__fdlib_version
                0x20000fac        0x1 c:/program files (x86)/gnu arm embedded toolchain/9 2020-q2-update/bin/../lib/gcc/arm-none-eabi/9.3.1/../../../../arm-none-eabi/lib/thumb/v7e-m+dp/hard\libm.a(lib_a-s_lib_ver.o)
                0x20000fac                __fdlib_version
                0x20000fb0                . = ALIGN (0x4)
 *fill*         0x20000fad        0x3 
                0x20000fb0                _edata = .

.igot.plt       0x20000fb0        0x0 load address 0x0805f710
 .igot.plt      0x20000fb0        0x0 c:/program files (x86)/gnu arm embedded toolchain/9 2020-q2-update/bin/../lib/gcc/arm-none-eabi/9.3.1/thumb/v7e-m+dp/hard/crtbegin.o
                0x20000fb0                . = ALIGN (0x4)

.bss            0x20000fb0    0x35d44 load address 0x0805f710
                0x20000fb0                _sbss = .
                0x20000fb0                __bss_start__ = _sbss
 *(.bss)
 .bss           0x20000fb0        0x0 c:/program files (x86)/gnu arm embedded toolchain/9 2020-q2-update/bin/../lib/gcc/arm-none-eabi/9.3.1/thumb/v7e-m+dp/hard/crti.o
 .bss           0x20000fb0       0x1c c:/program files (x86)/gnu arm embedded toolchain/9 2020-q2-update/bin/../lib/gcc/arm-none-eabi/9.3.1/thumb/v7e-m+dp/hard/crtbegin.o
 .bss           0x20000fcc        0x0 c:/program files (x86)/gnu arm embedded toolchain/9 2020-q2-update/bin/../lib/gcc/arm-none-eabi/9.3.1/../../../../arm-none-eabi/lib/thumb/v7e-m+dp/hard/crt0.o
 *fill*         0x20000fcc        0x4 
 .bss           0x20000fd0    0x16d40 ./fcapplication/mainofapplication.o
                0x20005248                adcsTelemQueue
                0x200056c8                adcsTelemQueueHandle
 .bss           0x20017d10        0x0 ./fcapplication/stm32h7xx_it.o
 .bss           0x20017d10        0x0 ./fcapplication/stm32h7xx_hal_msp.o
 .bss           0x20017d10      0xb5c ./fcapplication/csphandler.o
 .bss           0x2001886c        0x0 ./fcapplication/dwt.o
 .bss           0x2001886c      0x810 ./fcapplication/commands.o
                0x2001906c                node_fmc
                0x20019074                node_sys
 .bss           0x2001907c        0x8 ./fcapplication/cmdi2c.o
                0x2001907c                node_i2c
 .bss           0x20019084       0x24 ./fcapplication/crc_hw.o
                0x20019084                hcrc
 .bss           0x200190a8        0x0 ./fcapplication/cmdspi.o
 .bss           0x200190a8       0x20 ./fcapplication/cmdframcy15b104q.o
                0x200190c0                node_fram
 .bss           0x200190c8      0xea8 ./fcapplication/peripheralapps.o
 .bss           0x20019f70      0x168 ./fcapplication/oshooks.o
 .bss           0x2001a0d8       0x50 ./fcapplication/confighandler.o
 .bss           0x2001a128        0x8 ./fcapplication/cmdadc.o
                0x2001a128                node_adc
 .bss           0x2001a130      0x478 ./fcapplication/overcurrentprotectiontask.o
                0x2001a5a0                node_power
 .bss           0x2001a5a8        0x4 ./fcapplication/system_dbg.o
 .bss           0x2001a5ac       0xd8 ./fcapplication/telemetryhandler.o
 .bss           0x2001a684        0x8 ./fcapplication/cmdlog.o
                0x2001a684                node_log
 .bss           0x2001a68c       0x18 ./fcapplication/log.o
 .bss           0x2001a6a4      0x15c ./fcapplication/fwupdhandler.o
 .bss           0x2001a800        0x0 ./fcapplication/cspcpureset.o
 .bss           0x2001a800        0x8 ./fcapplication/cmdrtc.o
                0x2001a800                node_rtc
 .bss           0x2001a808      0x9b4 ./fcapplication/file_table.o
                0x2001a934                External_512kB_FRAM_1
                0x2001ac0c                Internal_flash
                0x2001aee4                External_256MBflash
 .bss           0x2001b1bc       0x54 ./fcapplication/powercontrolunithandler.o
 .bss           0x2001b210        0x0 ./fcapplication/system_stm32h7xx.o
 .bss           0x2001b210        0x0 ./fcapplication/startup_stm32h743xx.o
 .bss           0x2001b210       0x38 ./fcapplication/adcsactuators.o
                0x2001b210                magnetorquers
                0x2001b218                rwa
 .bss           0x2001b248      0x3c8 ./fcapplication/adcssensors.o
 .bss           0x2001b610      0xff5 ./fcapplication/adcsapp.o
 *fill*         0x2001c605        0x3 
 .bss           0x2001c608      0x188 ./fcapplication/adcstelemetryhandler.o
 .bss           0x2001c790        0x0 ./fcapplication/cli.o
 .bss           0x2001c790        0x0 ./fcapplication/clicmd.o
 .bss           0x2001c790       0x10 ./fcapplication/clicmdindexer.o
 .bss           0x2001c7a0        0x0 ./fcapplication/clicmdindexnode.o
 .bss           0x2001c7a0        0x0 ./fcapplication/cliwriter.o
 .bss           0x2001c7a0       0x90 ./fcapplication/cliservice.o
 .bss           0x2001c830        0x0 ./fcapplication/clihelpers.o
 .bss           0x2001c830        0x0 ./fcapplication/config.o
 .bss           0x2001c830      0x408 ./fcapplication/configclicommands.o
                0x2001cc30                node_config
 .bss           0x2001cc38        0x0 ./fcapplication/configservice.o
 .bss           0x2001cc38        0x0 ./fcapplication/configclient.o
 .bss           0x2001cc38       0x10 ./fcapplication/csp_bridge.o
 .bss           0x2001cc48       0x10 ./fcapplication/csp_buffer.o
 .bss           0x2001cc58      0x14d ./fcapplication/csp_conn.o
 .bss           0x2001cda5        0x0 ./fcapplication/csp_crc32.o
 *fill*         0x2001cda5        0x3 
 .bss           0x2001cda8        0x4 ./fcapplication/csp_debug.o
                0x2001cda8                csp_debug_hook_func
 .bss           0x2001cdac       0x84 ./fcapplication/csp_dedup.o
 .bss           0x2001ce30        0x0 ./fcapplication/csp_endian.o
 .bss           0x2001ce30        0x4 ./fcapplication/csp_iflist.o
 .bss           0x2001ce34        0xc ./fcapplication/csp_io.o
 .bss           0x2001ce40      0x108 ./fcapplication/csp_port.o
 .bss           0x2001cf48        0x8 ./fcapplication/csp_promisc.o
 .bss           0x2001cf50        0x4 ./fcapplication/csp_qfifo.o
 .bss           0x2001cf54        0x8 ./fcapplication/csp_route.o
 .bss           0x2001cf5c        0x0 ./fcapplication/csp_service_handler.o
 .bss           0x2001cf5c        0x0 ./fcapplication/csp_services.o
 .bss           0x2001cf5c        0x0 ./fcapplication/csp_sfp.o
 .bss           0x2001cf5c        0x0 ./fcapplication/csp_rdp.o
 .bss           0x2001cf5c        0x0 ./fcapplication/csp_udp.o
 .bss           0x2001cf5c       0xa5 ./fcapplication/csp_rtable_static.o
 .bss           0x2001d001        0x0 ./fcapplication/csp_if_lo.o
 *fill*         0x2001d001        0x3 
 .bss           0x2001d004       0xf8 ./fcapplication/csp_if_can.o
 .bss           0x2001d0fc        0x0 ./fcapplication/csp_malloc.o
 .bss           0x2001d0fc        0x0 ./fcapplication/csp_queue.o
 .bss           0x2001d0fc        0x0 ./fcapplication/csp_semaphore.o
 .bss           0x2001d0fc        0x0 ./fcapplication/csp_system.o
 .bss           0x2001d0fc        0x0 ./fcapplication/csp_thread.o
 .bss           0x2001d0fc        0x0 ./fcapplication/csp_time.o
 .bss           0x2001d0fc        0x8 ./fcapplication/cspclicommands.o
                0x2001d0fc                node_csp
 .bss           0x2001d104        0x0 ./fcapplication/cspserver.o
 .bss           0x2001d104        0x8 ./fcapplication/cmdmagnetorquers.o
                0x2001d104                node_mtq
 .bss           0x2001d10c        0x0 ./fcapplication/magnetorquers.o
 .bss           0x2001d10c     0x7a64 ./fcapplication/file_system.o
                0x2001d10c                FS_error_list
 .bss           0x20024b70      0x3dc ./fcapplication/ftransfer_sat.o
 .bss           0x20024f4c     0x2398 ./fcapplication/fs_tests.o
                0x20024f50                print_bfr
                0x20025154                TaskPrint_loop
                0x20025158                task1_loop
                0x2002515c                task2_loop
                0x20025160                task3_loop
 .bss           0x200272e4      0x20d ./fcapplication/cmdfs.o
                0x200274e4                lastWriter
                0x200274e8                node_fs
                0x200274f0                testInitiated
 .bss           0x200274f1        0x0 ./fcapplication/filesystem.o
 .bss           0x200274f1        0x0 ./fcapplication/fwupd.o
 *fill*         0x200274f1        0x3 
 .bss           0x200274f4        0x8 ./fcapplication/fwupdclicommands.o
                0x200274f4                node_fwupd
 .bss           0x200274fc        0x0 ./fcapplication/fwupdcrc32.o
 .bss           0x200274fc        0x0 ./fcapplication/fwupdmemdescriptor.o
 .bss           0x200274fc        0x0 ./fcapplication/fwupdservice.o
 .bss           0x200274fc        0x0 ./fcapplication/fwupddescriptorhandler.o
 .bss           0x200274fc        0x0 ./fcapplication/fwupdclihelpers.o
 .bss           0x200274fc      0x178 ./fcapplication/flash_mt25q.o
 .bss           0x20027674      0x208 ./fcapplication/cmdflash_mt25q.o
                0x20027874                node_fl
 .bss           0x2002787c        0x0 ./fcapplication/framcy15b104q.o
 .bss           0x2002787c       0xa0 ./fcapplication/fram_fm22l16.o
                0x2002787c                hsram1
                0x200278c8                hsram2
 .bss           0x2002791c        0x0 ./fcapplication/croutine.o
 .bss           0x2002791c        0x0 ./fcapplication/event_groups.o
 .bss           0x2002791c        0x0 ./fcapplication/list.o
 .bss           0x2002791c       0x40 ./fcapplication/queue.o
                0x2002791c                xQueueRegistry
 .bss           0x2002795c      0x118 ./fcapplication/tasks.o
                0x20027960                pxCurrentTCB
 .bss           0x20027a74        0x0 ./fcapplication/timers.o
 .bss           0x20027a74        0x8 ./fcapplication/port.o
 .bss           0x20027a7c     0x5018 ./fcapplication/heap_4.o
 .bss           0x2002ca94        0x8 ./fcapplication/cmdsunsensor.o
                0x2002ca94                node_ss
 .bss           0x2002ca9c        0x0 ./fcapplication/sunsensornsfss.o
 *fill*         0x2002ca9c        0x4 
 .bss           0x2002caa0       0x70 ./fcapplication/gps.o
 .bss           0x2002cb10        0x0 ./fcapplication/sentence.o
 .bss           0x2002cb10        0x0 ./fcapplication/stm32h7xx_hal_spi_ex.o
 .bss           0x2002cb10        0x0 ./fcapplication/stm32h7xx_hal_qspi.o
 .bss           0x2002cb10       0x1c ./fcapplication/stm32h7xx_hal_flash.o
                0x2002cb10                pFlash
 .bss           0x2002cb2c        0x0 ./fcapplication/stm32h7xx_ll_fmc.o
 .bss           0x2002cb2c        0x4 ./fcapplication/stm32h7xx_hal.o
                0x2002cb2c                uwTick
 .bss           0x2002cb30        0x0 ./fcapplication/stm32h7xx_hal_mdma.o
 .bss           0x2002cb30        0x0 ./fcapplication/stm32h7xx_hal_i2c.o
 .bss           0x2002cb30        0x0 ./fcapplication/stm32h7xx_hal_dma.o
 .bss           0x2002cb30        0x0 ./fcapplication/stm32h7xx_hal_pwr.o
 .bss           0x2002cb30        0x0 ./fcapplication/stm32h7xx_hal_cortex.o
 .bss           0x2002cb30        0x0 ./fcapplication/stm32h7xx_hal_spi.o
 .bss           0x2002cb30        0x0 ./fcapplication/stm32h7xx_hal_gpio.o
 .bss           0x2002cb30        0x0 ./fcapplication/stm32h7xx_hal_fdcan.o
 .bss           0x2002cb30        0x0 ./fcapplication/stm32h7xx_hal_flash_ex.o
 .bss           0x2002cb30        0x0 ./fcapplication/stm32h7xx_hal_tim.o
 .bss           0x2002cb30        0x0 ./fcapplication/stm32h7xx_hal_uart.o
 .bss           0x2002cb30        0x0 ./fcapplication/stm32h7xx_hal_rcc.o
 .bss           0x2002cb30        0x0 ./fcapplication/stm32h7xx_hal_rcc_ex.o
 .bss           0x2002cb30        0x0 ./fcapplication/stm32h7xx_hal_sram.o
 .bss           0x2002cb30        0x0 ./fcapplication/stm32h7xx_hal_uart_ex.o
 .bss           0x2002cb30        0x0 ./fcapplication/stm32h7xx_hal_dma_ex.o
 .bss           0x2002cb30        0x0 ./fcapplication/stm32h7xx_hal_tim_ex.o
 .bss           0x2002cb30        0x0 ./fcapplication/stm32h7xx_hal_i2c_ex.o
 .bss           0x2002cb30        0x0 ./fcapplication/stm32h7xx_hal_pwr_ex.o
 .bss           0x2002cb30        0x0 ./fcapplication/stm32h7xx_hal_iwdg.o
 .bss           0x2002cb30        0x0 ./fcapplication/stm32h7xx_hal_usart.o
 .bss           0x2002cb30        0x0 ./fcapplication/stm32h7xx_hal_rtc.o
 .bss           0x2002cb30        0x0 ./fcapplication/stm32h7xx_hal_rtc_ex.o
 .bss           0x2002cb30        0x0 ./fcapplication/stm32h7xx_hal_crc.o
 .bss           0x2002cb30        0x0 ./fcapplication/stm32h7xx_hal_crc_ex.o
 .bss           0x2002cb30        0x0 ./fcapplication/stm32h7xx_hal_adc.o
 .bss           0x2002cb30        0x0 ./fcapplication/stm32h7xx_hal_adc_ex.o
 .bss           0x2002cb30        0xc ./fcapplication/cmdgyrostim210.o
                0x2002cb34                node_stim
 .bss           0x2002cb3c        0x0 ./fcapplication/crc8ccitt.o
 .bss           0x2002cb3c        0x0 ./fcapplication/gyrostim210.o
 .bss           0x2002cb3c        0x8 ./fcapplication/cmdmagnetometer.o
                0x2002cb3c                node_m
 .bss           0x2002cb44        0x0 ./fcapplication/magnetometermmc5883ma.o
 .bss           0x2002cb44        0x0 ./fcapplication/memoryoperators.o
 .bss           0x2002cb44        0x4 ./fcapplication/na_arraymath.o
 .bss           0x2002cb48        0x0 ./fcapplication/na_arrayxxmath.o
 .bss           0x2002cb48        0x0 ./fcapplication/na_statusstrs.o
 .bss           0x2002cb48       0xa0 ./fcapplication/ast_cna_runadcs.o
 .bss           0x2002cbe8        0x0 ./fcapplication/ast_gaintable.o
 .bss           0x2002cbe8        0x0 ./fcapplication/ast_gps_process.o
 .bss           0x2002cbe8        0x0 ./fcapplication/ast_mag_process.o
 .bss           0x2002cbe8        0x0 ./fcapplication/ast_sens_process.o
 .bss           0x2002cbe8        0x0 ./fcapplication/astc_filter_derivedrate.o
 .bss           0x2002cbe8        0x0 ./fcapplication/cna_adcsconfig.o
 .bss           0x2002cbe8        0x0 ./fcapplication/cna_alphabetagamafilter.o
 .bss           0x2002cbe8       0x28 ./fcapplication/cna_attitudecontrolsystem.o
 .bss           0x2002cc10        0x0 ./fcapplication/cna_dynamicmodel.o
 .bss           0x2002cc10      0x308 ./fcapplication/cna_kalman_startracker_imumultimeasbiased.o
 .bss           0x2002cf18      0x308 ./fcapplication/cna_kalman_sun_3gyro_3mag.o
 .bss           0x2002d220     0x6ef8 ./fcapplication/cna_kalmanabstract.o
 .bss           0x20034118        0x0 ./fcapplication/cna_measurementmodel.o
 .bss           0x20034118        0x0 ./fcapplication/cna_rwvelocity.o
 .bss           0x20034118        0x1 ./fcapplication/na_filter.o
 .bss           0x20034119        0x0 ./fcapplication/na_igrfmodel.o
 .bss           0x20034119        0x0 ./fcapplication/na_refframe.o
 .bss           0x20034119        0x0 ./fcapplication/na_rigidbody.o
 *fill*         0x20034119        0x7 
 .bss           0x20034120      0x288 ./fcapplication/na_sgp4.o
 .bss           0x200343a8        0x0 ./fcapplication/na_sundirectionmodel.o
 .bss           0x200343a8        0x0 ./fcapplication/na_time.o
 .bss           0x200343a8        0x0 ./fcapplication/navigationdefines.o
 .bss           0x200343a8        0x0 ./fcapplication/pch.o
 .bss           0x200343a8        0x0 ./fcapplication/sgp4ext.o
 .bss           0x200343a8        0x0 ./fcapplication/sgp4io.o
 .bss           0x200343a8        0x4 ./fcapplication/sgp4unit.o
                0x200343a8                dbgfile
 .bss           0x200343ac        0x0 ./fcapplication/patternfinder.o
 .bss           0x200343ac        0x0 ./fcapplication/canapp.o
 .bss           0x200343ac        0x0 ./fcapplication/rtcapp.o
 .bss           0x200343ac        0x0 ./fcapplication/uartapp.o
 .bss           0x200343ac        0x0 ./fcapplication/i2cmasterapp.o
 .bss           0x200343ac        0x0 ./fcapplication/spimasterapp.o
 .bss           0x200343ac       0x60 ./fcapplication/flashapp.o
 .bss           0x2003440c        0x8 ./fcapplication/canclicommands.o
                0x2003440c                node_can
 .bss           0x20034414        0x0 ./fcapplication/rtcbase.o
 .bss           0x20034414        0x0 ./fcapplication/reqrepclienttransportcsp.o
 .bss           0x20034414        0x0 ./fcapplication/reqrepservicetransportcsp.o
 .bss           0x20034414        0x0 ./fcapplication/bcrw4.o
 .bss           0x20034414     0x1294 ./fcapplication/script_engine.o
 .bss           0x200356a8       0x10 ./fcapplication/cmdscriptengine.o
                0x200356a8                node_script
                0x200356b0                node_delay
 .bss           0x200356b8        0x0 ./fcapplication/semihostingoff.o
 .bss           0x200356b8        0x8 ./fcapplication/cmdstartracker.o
                0x200356b8                node_stracker
 .bss           0x200356c0        0x9 ./fcapplication/startrackernst1b.o
 *fill*         0x200356c9        0x3 
 .bss           0x200356cc      0x270 ./fcapplication/supervisor.o
                0x200356d4                supervisor_task_list
 .bss           0x2003593c        0x0 ./fcapplication/telemetrycollectorbasic.o
 .bss           0x2003593c        0x0 ./fcapplication/telemetryhelpers.o
 .bss           0x2003593c        0x0 ./fcapplication/telemetryservice.o
 .bss           0x2003593c        0x0 ./fcapplication/timesyncclient.o
 .bss           0x2003593c        0x0 ./fcapplication/timesyncservice.o
 .bss           0x2003593c      0x482 ./fcapplication/timesynctask.o
 *fill*         0x20035dbe        0x2 
 .bss           0x20035dc0      0x204 ./fcapplication/adc.o
 .bss           0x20035fc4        0x0 ./fcapplication/systemclock.o
 .bss           0x20035fc4       0x10 ./fcapplication/watchdog.o
 .bss           0x20035fd4        0x0 ./fcapplication/gpio.o
 .bss           0x20035fd4        0x0 ./fcapplication/can1.o
 .bss           0x20035fd4        0x0 ./fcapplication/can2.o
 .bss           0x20035fd4      0x24a ./fcapplication/candrivers.o
 .bss           0x2003621e        0x0 ./fcapplication/uart4.o
 .bss           0x2003621e        0x0 ./fcapplication/uart5.o
 .bss           0x2003621e        0x0 ./fcapplication/uart7.o
 .bss           0x2003621e        0x0 ./fcapplication/uart8.o
 .bss           0x2003621e        0x0 ./fcapplication/uart1.o
 .bss           0x2003621e        0x0 ./fcapplication/uart3.o
 .bss           0x2003621e        0x0 ./fcapplication/uart6.o
 *fill*         0x2003621e        0x2 
 .bss           0x20036220      0x444 ./fcapplication/uartdrivers.o
 .bss           0x20036664        0x0 ./fcapplication/i2c1.o
 .bss           0x20036664        0x0 ./fcapplication/i2c2.o
 .bss           0x20036664        0x0 ./fcapplication/i2c3.o
 .bss           0x20036664        0x0 ./fcapplication/i2c4.o
 .bss           0x20036664      0x160 ./fcapplication/i2cdrivers.o
 .bss           0x200367c4        0x0 ./fcapplication/spi1.o
 .bss           0x200367c4        0x0 ./fcapplication/spi2.o
 .bss           0x200367c4        0x0 ./fcapplication/spi4.o
 .bss           0x200367c4        0x0 ./fcapplication/spi5.o
 .bss           0x200367c4      0x250 ./fcapplication/spidrivers.o
 .bss           0x20036a14       0x79 ./fcapplication/flash.o
 *fill*         0x20036a8d        0x3 
 .bss           0x20036a90       0x40 ./fcapplication/tim8.o
                0x20036a90                htim8
 .bss           0x20036ad0       0x40 ./fcapplication/tim2.o
                0x20036ad0                htim2
 .bss           0x20036b10        0x0 ./fcapplication/timdrivers.o
 .bss           0x20036b10       0x14 ./fcapplication/mcuoption.o
 .bss           0x20036b24       0x40 ./fcapplication/tim5.o
                0x20036b24                htim5
 *fill*         0x20036b64        0x4 
 .bss           0x20036b68        0x8 ./fcapplication/rtc.o
 .bss           0x20036b70       0x40 ./fcapplication/tim12.o
                0x20036b70                htim12
 .bss           0x20036bb0       0xb0 ./fcapplication/rtcdrivers.o
 .bss           0x20036c60        0x8 ./fcapplication/cmdlvc.o
                0x20036c60                node_lvc
 .bss           0x20036c68        0x0 ./fcapplication/lvc.o
 .bss           0x20036c68        0x0 c:/program files (x86)/gnu arm embedded toolchain/9 2020-q2-update/bin/../lib/gcc/arm-none-eabi/9.3.1/thumb/v7e-m+dp/hard\libgcc.a(_arm_addsubdf3.o)
 .bss           0x20036c68        0x0 c:/program files (x86)/gnu arm embedded toolchain/9 2020-q2-update/bin/../lib/gcc/arm-none-eabi/9.3.1/thumb/v7e-m+dp/hard\libgcc.a(_aeabi_ldivmod.o)
 .bss           0x20036c68        0x0 c:/program files (x86)/gnu arm embedded toolchain/9 2020-q2-update/bin/../lib/gcc/arm-none-eabi/9.3.1/thumb/v7e-m+dp/hard\libgcc.a(_aeabi_uldivmod.o)
 .bss           0x20036c68        0x0 c:/program files (x86)/gnu arm embedded toolchain/9 2020-q2-update/bin/../lib/gcc/arm-none-eabi/9.3.1/thumb/v7e-m+dp/hard\libgcc.a(_fixdfdi.o)
 .bss           0x20036c68        0x0 c:/program files (x86)/gnu arm embedded toolchain/9 2020-q2-update/bin/../lib/gcc/arm-none-eabi/9.3.1/thumb/v7e-m+dp/hard\libgcc.a(_fixunsdfdi.o)
 .bss           0x20036c68        0x0 c:/program files (x86)/gnu arm embedded toolchain/9 2020-q2-update/bin/../lib/gcc/arm-none-eabi/9.3.1/thumb/v7e-m+dp/hard\libgcc.a(_udivmoddi4.o)
 .bss           0x20036c68        0x0 c:/program files (x86)/gnu arm embedded toolchain/9 2020-q2-update/bin/../lib/gcc/arm-none-eabi/9.3.1/thumb/v7e-m+dp/hard\libgcc.a(_dvmd_tls.o)
 .bss           0x20036c68        0x0 c:/program files (x86)/gnu arm embedded toolchain/9 2020-q2-update/bin/../lib/gcc/arm-none-eabi/9.3.1/../../../../arm-none-eabi/lib/thumb/v7e-m+dp/hard\libc.a(lib_a-atexit.o)
 .bss           0x20036c68        0x0 c:/program files (x86)/gnu arm embedded toolchain/9 2020-q2-update/bin/../lib/gcc/arm-none-eabi/9.3.1/../../../../arm-none-eabi/lib/thumb/v7e-m+dp/hard\libc.a(lib_a-atof.o)
 .bss           0x20036c68        0x0 c:/program files (x86)/gnu arm embedded toolchain/9 2020-q2-update/bin/../lib/gcc/arm-none-eabi/9.3.1/../../../../arm-none-eabi/lib/thumb/v7e-m+dp/hard\libc.a(lib_a-atoi.o)
 .bss           0x20036c68        0x0 c:/program files (x86)/gnu arm embedded toolchain/9 2020-q2-update/bin/../lib/gcc/arm-none-eabi/9.3.1/../../../../arm-none-eabi/lib/thumb/v7e-m+dp/hard\libc.a(lib_a-exit.o)
 .bss           0x20036c68        0x0 c:/program files (x86)/gnu arm embedded toolchain/9 2020-q2-update/bin/../lib/gcc/arm-none-eabi/9.3.1/../../../../arm-none-eabi/lib/thumb/v7e-m+dp/hard\libc.a(lib_a-impure.o)
 .bss           0x20036c68        0x0 c:/program files (x86)/gnu arm embedded toolchain/9 2020-q2-update/bin/../lib/gcc/arm-none-eabi/9.3.1/../../../../arm-none-eabi/lib/thumb/v7e-m+dp/hard\libc.a(lib_a-init.o)
 .bss           0x20036c68        0x0 c:/program files (x86)/gnu arm embedded toolchain/9 2020-q2-update/bin/../lib/gcc/arm-none-eabi/9.3.1/../../../../arm-none-eabi/lib/thumb/v7e-m+dp/hard\libc.a(lib_a-isalpha.o)
 .bss           0x20036c68        0x0 c:/program files (x86)/gnu arm embedded toolchain/9 2020-q2-update/bin/../lib/gcc/arm-none-eabi/9.3.1/../../../../arm-none-eabi/lib/thumb/v7e-m+dp/hard\libc.a(lib_a-isprint.o)
 .bss           0x20036c68        0x0 c:/program files (x86)/gnu arm embedded toolchain/9 2020-q2-update/bin/../lib/gcc/arm-none-eabi/9.3.1/../../../../arm-none-eabi/lib/thumb/v7e-m+dp/hard\libc.a(lib_a-lcltime.o)
 .bss           0x20036c68        0x0 c:/program files (x86)/gnu arm embedded toolchain/9 2020-q2-update/bin/../lib/gcc/arm-none-eabi/9.3.1/../../../../arm-none-eabi/lib/thumb/v7e-m+dp/hard\libc.a(lib_a-lcltime_r.o)
 .bss           0x20036c68        0x0 c:/program files (x86)/gnu arm embedded toolchain/9 2020-q2-update/bin/../lib/gcc/arm-none-eabi/9.3.1/../../../../arm-none-eabi/lib/thumb/v7e-m+dp/hard\libc.a(lib_a-memcmp.o)
 .bss           0x20036c68        0x0 c:/program files (x86)/gnu arm embedded toolchain/9 2020-q2-update/bin/../lib/gcc/arm-none-eabi/9.3.1/../../../../arm-none-eabi/lib/thumb/v7e-m+dp/hard\libc.a(lib_a-memcpy.o)
 .bss           0x20036c68        0x0 c:/program files (x86)/gnu arm embedded toolchain/9 2020-q2-update/bin/../lib/gcc/arm-none-eabi/9.3.1/../../../../arm-none-eabi/lib/thumb/v7e-m+dp/hard\libc.a(lib_a-memmove.o)
 .bss           0x20036c68        0x0 c:/program files (x86)/gnu arm embedded toolchain/9 2020-q2-update/bin/../lib/gcc/arm-none-eabi/9.3.1/../../../../arm-none-eabi/lib/thumb/v7e-m+dp/hard\libc.a(lib_a-memset.o)
 .bss           0x20036c68        0x0 c:/program files (x86)/gnu arm embedded toolchain/9 2020-q2-update/bin/../lib/gcc/arm-none-eabi/9.3.1/../../../../arm-none-eabi/lib/thumb/v7e-m+dp/hard\libc.a(lib_a-mktime.o)
 .bss           0x20036c68        0x0 c:/program files (x86)/gnu arm embedded toolchain/9 2020-q2-update/bin/../lib/gcc/arm-none-eabi/9.3.1/../../../../arm-none-eabi/lib/thumb/v7e-m+dp/hard\libc.a(lib_a-month_lengths.o)
 .bss           0x20036c68        0x0 c:/program files (x86)/gnu arm embedded toolchain/9 2020-q2-update/bin/../lib/gcc/arm-none-eabi/9.3.1/../../../../arm-none-eabi/lib/thumb/v7e-m+dp/hard\libc.a(lib_a-printf.o)
 .bss           0x20036c68        0x0 c:/program files (x86)/gnu arm embedded toolchain/9 2020-q2-update/bin/../lib/gcc/arm-none-eabi/9.3.1/../../../../arm-none-eabi/lib/thumb/v7e-m+dp/hard\libc.a(lib_a-rand.o)
 .bss           0x20036c68        0x0 c:/program files (x86)/gnu arm embedded toolchain/9 2020-q2-update/bin/../lib/gcc/arm-none-eabi/9.3.1/../../../../arm-none-eabi/lib/thumb/v7e-m+dp/hard\libc.a(lib_a-s_nan.o)
 .bss           0x20036c68        0x0 c:/program files (x86)/gnu arm embedded toolchain/9 2020-q2-update/bin/../lib/gcc/arm-none-eabi/9.3.1/../../../../arm-none-eabi/lib/thumb/v7e-m+dp/hard\libc.a(lib_a-snprintf.o)
 .bss           0x20036c68        0x0 c:/program files (x86)/gnu arm embedded toolchain/9 2020-q2-update/bin/../lib/gcc/arm-none-eabi/9.3.1/../../../../arm-none-eabi/lib/thumb/v7e-m+dp/hard\libc.a(lib_a-sprintf.o)
 .bss           0x20036c68        0x0 c:/program files (x86)/gnu arm embedded toolchain/9 2020-q2-update/bin/../lib/gcc/arm-none-eabi/9.3.1/../../../../arm-none-eabi/lib/thumb/v7e-m+dp/hard\libc.a(lib_a-sscanf.o)
 .bss           0x20036c68        0x0 c:/program files (x86)/gnu arm embedded toolchain/9 2020-q2-update/bin/../lib/gcc/arm-none-eabi/9.3.1/../../../../arm-none-eabi/lib/thumb/v7e-m+dp/hard\libc.a(lib_a-stdio.o)
 .bss           0x20036c68        0x0 c:/program files (x86)/gnu arm embedded toolchain/9 2020-q2-update/bin/../lib/gcc/arm-none-eabi/9.3.1/../../../../arm-none-eabi/lib/thumb/v7e-m+dp/hard\libc.a(lib_a-strcat.o)
 .bss           0x20036c68        0x0 c:/program files (x86)/gnu arm embedded toolchain/9 2020-q2-update/bin/../lib/gcc/arm-none-eabi/9.3.1/../../../../arm-none-eabi/lib/thumb/v7e-m+dp/hard\libc.a(lib_a-strchr.o)
 .bss           0x20036c68        0x0 c:/program files (x86)/gnu arm embedded toolchain/9 2020-q2-update/bin/../lib/gcc/arm-none-eabi/9.3.1/../../../../arm-none-eabi/lib/thumb/v7e-m+dp/hard\libc.a(lib_a-strcmp.o)
 .bss           0x20036c68        0x0 c:/program files (x86)/gnu arm embedded toolchain/9 2020-q2-update/bin/../lib/gcc/arm-none-eabi/9.3.1/../../../../arm-none-eabi/lib/thumb/v7e-m+dp/hard\libc.a(lib_a-strcpy.o)
 .bss           0x20036c68        0x0 c:/program files (x86)/gnu arm embedded toolchain/9 2020-q2-update/bin/../lib/gcc/arm-none-eabi/9.3.1/../../../../arm-none-eabi/lib/thumb/v7e-m+dp/hard\libc.a(lib_a-strlen.o)
 .bss           0x20036c68        0x0 c:/program files (x86)/gnu arm embedded toolchain/9 2020-q2-update/bin/../lib/gcc/arm-none-eabi/9.3.1/../../../../arm-none-eabi/lib/thumb/v7e-m+dp/hard\libc.a(lib_a-strncat.o)
 .bss           0x20036c68        0x0 c:/program files (x86)/gnu arm embedded toolchain/9 2020-q2-update/bin/../lib/gcc/arm-none-eabi/9.3.1/../../../../arm-none-eabi/lib/thumb/v7e-m+dp/hard\libc.a(lib_a-strncmp.o)
 .bss           0x20036c68        0x0 c:/program files (x86)/gnu arm embedded toolchain/9 2020-q2-update/bin/../lib/gcc/arm-none-eabi/9.3.1/../../../../arm-none-eabi/lib/thumb/v7e-m+dp/hard\libc.a(lib_a-strncpy.o)
 .bss           0x20036c68        0x0 c:/program files (x86)/gnu arm embedded toolchain/9 2020-q2-update/bin/../lib/gcc/arm-none-eabi/9.3.1/../../../../arm-none-eabi/lib/thumb/v7e-m+dp/hard\libc.a(lib_a-strtod.o)
 .bss           0x20036c68        0x0 c:/program files (x86)/gnu arm embedded toolchain/9 2020-q2-update/bin/../lib/gcc/arm-none-eabi/9.3.1/../../../../arm-none-eabi/lib/thumb/v7e-m+dp/hard\libc.a(lib_a-strtol.o)
 .bss           0x20036c68        0x0 c:/program files (x86)/gnu arm embedded toolchain/9 2020-q2-update/bin/../lib/gcc/arm-none-eabi/9.3.1/../../../../arm-none-eabi/lib/thumb/v7e-m+dp/hard\libc.a(lib_a-strtoul.o)
 .bss           0x20036c68        0x0 c:/program files (x86)/gnu arm embedded toolchain/9 2020-q2-update/bin/../lib/gcc/arm-none-eabi/9.3.1/../../../../arm-none-eabi/lib/thumb/v7e-m+dp/hard\libc.a(lib_a-strtoull.o)
 .bss           0x20036c68        0x0 c:/program files (x86)/gnu arm embedded toolchain/9 2020-q2-update/bin/../lib/gcc/arm-none-eabi/9.3.1/../../../../arm-none-eabi/lib/thumb/v7e-m+dp/hard\libc.a(lib_a-svfprintf.o)
 .bss           0x20036c68        0x0 c:/program files (x86)/gnu arm embedded toolchain/9 2020-q2-update/bin/../lib/gcc/arm-none-eabi/9.3.1/../../../../arm-none-eabi/lib/thumb/v7e-m+dp/hard\libc.a(lib_a-svfscanf.o)
 .bss           0x20036c68        0x0 c:/program files (x86)/gnu arm embedded toolchain/9 2020-q2-update/bin/../lib/gcc/arm-none-eabi/9.3.1/../../../../arm-none-eabi/lib/thumb/v7e-m+dp/hard\libc.a(lib_a-tolower.o)
 .bss           0x20036c68        0x0 c:/program files (x86)/gnu arm embedded toolchain/9 2020-q2-update/bin/../lib/gcc/arm-none-eabi/9.3.1/../../../../arm-none-eabi/lib/thumb/v7e-m+dp/hard\libc.a(lib_a-tzcalc_limits.o)
 .bss           0x20036c68        0x0 c:/program files (x86)/gnu arm embedded toolchain/9 2020-q2-update/bin/../lib/gcc/arm-none-eabi/9.3.1/../../../../arm-none-eabi/lib/thumb/v7e-m+dp/hard\libc.a(lib_a-tzlock.o)
 .bss           0x20036c68        0x0 c:/program files (x86)/gnu arm embedded toolchain/9 2020-q2-update/bin/../lib/gcc/arm-none-eabi/9.3.1/../../../../arm-none-eabi/lib/thumb/v7e-m+dp/hard\libc.a(lib_a-tzset.o)
 .bss           0x20036c68        0x0 c:/program files (x86)/gnu arm embedded toolchain/9 2020-q2-update/bin/../lib/gcc/arm-none-eabi/9.3.1/../../../../arm-none-eabi/lib/thumb/v7e-m+dp/hard\libc.a(lib_a-tzset_r.o)
 .bss           0x20036c68        0x0 c:/program files (x86)/gnu arm embedded toolchain/9 2020-q2-update/bin/../lib/gcc/arm-none-eabi/9.3.1/../../../../arm-none-eabi/lib/thumb/v7e-m+dp/hard\libc.a(lib_a-tzvars.o)
 .bss           0x20036c68        0x0 c:/program files (x86)/gnu arm embedded toolchain/9 2020-q2-update/bin/../lib/gcc/arm-none-eabi/9.3.1/../../../../arm-none-eabi/lib/thumb/v7e-m+dp/hard\libc.a(lib_a-vfprintf.o)
 .bss           0x20036c68        0x0 c:/program files (x86)/gnu arm embedded toolchain/9 2020-q2-update/bin/../lib/gcc/arm-none-eabi/9.3.1/../../../../arm-none-eabi/lib/thumb/v7e-m+dp/hard\libc.a(lib_a-vsnprintf.o)
 .bss           0x20036c68        0x0 c:/program files (x86)/gnu arm embedded toolchain/9 2020-q2-update/bin/../lib/gcc/arm-none-eabi/9.3.1/../../../../arm-none-eabi/lib/thumb/v7e-m+dp/hard\libc.a(lib_a-writer.o)
 .bss           0x20036c68        0x0 c:/program files (x86)/gnu arm embedded toolchain/9 2020-q2-update/bin/../lib/gcc/arm-none-eabi/9.3.1/../../../../arm-none-eabi/lib/thumb/v7e-m+dp/hard\libc.a(lib_a-wsetup.o)
 .bss           0x20036c68        0x0 c:/program files (x86)/gnu arm embedded toolchain/9 2020-q2-update/bin/../lib/gcc/arm-none-eabi/9.3.1/../../../../arm-none-eabi/lib/thumb/v7e-m+dp/hard\libc.a(lib_a-__atexit.o)
 .bss           0x20036c68        0x0 c:/program files (x86)/gnu arm embedded toolchain/9 2020-q2-update/bin/../lib/gcc/arm-none-eabi/9.3.1/../../../../arm-none-eabi/lib/thumb/v7e-m+dp/hard\libc.a(lib_a-__call_atexit.o)
 .bss           0x20036c68        0x0 c:/program files (x86)/gnu arm embedded toolchain/9 2020-q2-update/bin/../lib/gcc/arm-none-eabi/9.3.1/../../../../arm-none-eabi/lib/thumb/v7e-m+dp/hard\libc.a(lib_a-closer.o)
 .bss           0x20036c68        0x0 c:/program files (x86)/gnu arm embedded toolchain/9 2020-q2-update/bin/../lib/gcc/arm-none-eabi/9.3.1/../../../../arm-none-eabi/lib/thumb/v7e-m+dp/hard\libc.a(lib_a-ctype_.o)
 .bss           0x20036c68        0x0 c:/program files (x86)/gnu arm embedded toolchain/9 2020-q2-update/bin/../lib/gcc/arm-none-eabi/9.3.1/../../../../arm-none-eabi/lib/thumb/v7e-m+dp/hard\libc.a(lib_a-div.o)
 .bss           0x20036c68        0x0 c:/program files (x86)/gnu arm embedded toolchain/9 2020-q2-update/bin/../lib/gcc/arm-none-eabi/9.3.1/../../../../arm-none-eabi/lib/thumb/v7e-m+dp/hard\libc.a(lib_a-dtoa.o)
 .bss           0x20036c68        0x0 c:/program files (x86)/gnu arm embedded toolchain/9 2020-q2-update/bin/../lib/gcc/arm-none-eabi/9.3.1/../../../../arm-none-eabi/lib/thumb/v7e-m+dp/hard\libc.a(lib_a-errno.o)
 .bss           0x20036c68        0x0 c:/program files (x86)/gnu arm embedded toolchain/9 2020-q2-update/bin/../lib/gcc/arm-none-eabi/9.3.1/../../../../arm-none-eabi/lib/thumb/v7e-m+dp/hard\libc.a(lib_a-fflush.o)
 .bss           0x20036c68        0x0 c:/program files (x86)/gnu arm embedded toolchain/9 2020-q2-update/bin/../lib/gcc/arm-none-eabi/9.3.1/../../../../arm-none-eabi/lib/thumb/v7e-m+dp/hard\libc.a(lib_a-findfp.o)
 .bss           0x20036c68        0x0 c:/program files (x86)/gnu arm embedded toolchain/9 2020-q2-update/bin/../lib/gcc/arm-none-eabi/9.3.1/../../../../arm-none-eabi/lib/thumb/v7e-m+dp/hard\libc.a(lib_a-fini.o)
 .bss           0x20036c68        0x0 c:/program files (x86)/gnu arm embedded toolchain/9 2020-q2-update/bin/../lib/gcc/arm-none-eabi/9.3.1/../../../../arm-none-eabi/lib/thumb/v7e-m+dp/hard\libc.a(lib_a-freer.o)
 .bss           0x20036c68        0x0 c:/program files (x86)/gnu arm embedded toolchain/9 2020-q2-update/bin/../lib/gcc/arm-none-eabi/9.3.1/../../../../arm-none-eabi/lib/thumb/v7e-m+dp/hard\libc.a(lib_a-fwalk.o)
 .bss           0x20036c68        0x0 c:/program files (x86)/gnu arm embedded toolchain/9 2020-q2-update/bin/../lib/gcc/arm-none-eabi/9.3.1/../../../../arm-none-eabi/lib/thumb/v7e-m+dp/hard\libc.a(lib_a-gdtoa-gethex.o)
 .bss           0x20036c68        0x0 c:/program files (x86)/gnu arm embedded toolchain/9 2020-q2-update/bin/../lib/gcc/arm-none-eabi/9.3.1/../../../../arm-none-eabi/lib/thumb/v7e-m+dp/hard\libc.a(lib_a-gdtoa-hexnan.o)
 .bss           0x20036c68        0x0 c:/program files (x86)/gnu arm embedded toolchain/9 2020-q2-update/bin/../lib/gcc/arm-none-eabi/9.3.1/../../../../arm-none-eabi/lib/thumb/v7e-m+dp/hard\libc.a(lib_a-getenv_r.o)
 .bss           0x20036c68        0x0 c:/program files (x86)/gnu arm embedded toolchain/9 2020-q2-update/bin/../lib/gcc/arm-none-eabi/9.3.1/../../../../arm-none-eabi/lib/thumb/v7e-m+dp/hard\libc.a(lib_a-gettzinfo.o)
 .bss           0x20036c68        0x0 c:/program files (x86)/gnu arm embedded toolchain/9 2020-q2-update/bin/../lib/gcc/arm-none-eabi/9.3.1/../../../../arm-none-eabi/lib/thumb/v7e-m+dp/hard\libc.a(lib_a-gmtime_r.o)
 .bss           0x20036c68        0x0 c:/program files (x86)/gnu arm embedded toolchain/9 2020-q2-update/bin/../lib/gcc/arm-none-eabi/9.3.1/../../../../arm-none-eabi/lib/thumb/v7e-m+dp/hard\libc.a(lib_a-iswspace.o)
 .bss           0x20036c68        0x0 c:/program files (x86)/gnu arm embedded toolchain/9 2020-q2-update/bin/../lib/gcc/arm-none-eabi/9.3.1/../../../../arm-none-eabi/lib/thumb/v7e-m+dp/hard\libc.a(lib_a-iswspace_l.o)
 .bss           0x20036c68        0x0 c:/program files (x86)/gnu arm embedded toolchain/9 2020-q2-update/bin/../lib/gcc/arm-none-eabi/9.3.1/../../../../arm-none-eabi/lib/thumb/v7e-m+dp/hard\libc.a(lib_a-lnumeric.o)
 .bss           0x20036c68        0x0 c:/program files (x86)/gnu arm embedded toolchain/9 2020-q2-update/bin/../lib/gcc/arm-none-eabi/9.3.1/../../../../arm-none-eabi/lib/thumb/v7e-m+dp/hard\libc.a(lib_a-locale.o)
 .bss           0x20036c68        0x0 c:/program files (x86)/gnu arm embedded toolchain/9 2020-q2-update/bin/../lib/gcc/arm-none-eabi/9.3.1/../../../../arm-none-eabi/lib/thumb/v7e-m+dp/hard\libc.a(lib_a-localeconv.o)
 .bss           0x20036c68        0x0 c:/program files (x86)/gnu arm embedded toolchain/9 2020-q2-update/bin/../lib/gcc/arm-none-eabi/9.3.1/../../../../arm-none-eabi/lib/thumb/v7e-m+dp/hard\libc.a(lib_a-lock.o)
 .bss           0x20036c68        0x0 c:/program files (x86)/gnu arm embedded toolchain/9 2020-q2-update/bin/../lib/gcc/arm-none-eabi/9.3.1/../../../../arm-none-eabi/lib/thumb/v7e-m+dp/hard\libc.a(lib_a-lseekr.o)
 .bss           0x20036c68        0x0 c:/program files (x86)/gnu arm embedded toolchain/9 2020-q2-update/bin/../lib/gcc/arm-none-eabi/9.3.1/../../../../arm-none-eabi/lib/thumb/v7e-m+dp/hard\libc.a(lib_a-makebuf.o)
 .bss           0x20036c68        0x0 c:/program files (x86)/gnu arm embedded toolchain/9 2020-q2-update/bin/../lib/gcc/arm-none-eabi/9.3.1/../../../../arm-none-eabi/lib/thumb/v7e-m+dp/hard\libc.a(lib_a-malloc.o)
 .bss           0x20036c68        0x0 c:/program files (x86)/gnu arm embedded toolchain/9 2020-q2-update/bin/../lib/gcc/arm-none-eabi/9.3.1/../../../../arm-none-eabi/lib/thumb/v7e-m+dp/hard\libc.a(lib_a-mallocr.o)
 .bss           0x20036c68        0x0 c:/program files (x86)/gnu arm embedded toolchain/9 2020-q2-update/bin/../lib/gcc/arm-none-eabi/9.3.1/../../../../arm-none-eabi/lib/thumb/v7e-m+dp/hard\libc.a(lib_a-mbrtowc.o)
 .bss           0x20036c68        0x0 c:/program files (x86)/gnu arm embedded toolchain/9 2020-q2-update/bin/../lib/gcc/arm-none-eabi/9.3.1/../../../../arm-none-eabi/lib/thumb/v7e-m+dp/hard\libc.a(lib_a-mbtowc_r.o)
 .bss           0x20036c68        0x0 c:/program files (x86)/gnu arm embedded toolchain/9 2020-q2-update/bin/../lib/gcc/arm-none-eabi/9.3.1/../../../../arm-none-eabi/lib/thumb/v7e-m+dp/hard\libc.a(lib_a-memchr.o)
 .bss           0x20036c68        0x0 c:/program files (x86)/gnu arm embedded toolchain/9 2020-q2-update/bin/../lib/gcc/arm-none-eabi/9.3.1/../../../../arm-none-eabi/lib/thumb/v7e-m+dp/hard\libc.a(lib_a-mlock.o)
 .bss           0x20036c68        0x0 c:/program files (x86)/gnu arm embedded toolchain/9 2020-q2-update/bin/../lib/gcc/arm-none-eabi/9.3.1/../../../../arm-none-eabi/lib/thumb/v7e-m+dp/hard\libc.a(lib_a-mprec.o)
 .bss           0x20036c68        0x0 c:/program files (x86)/gnu arm embedded toolchain/9 2020-q2-update/bin/../lib/gcc/arm-none-eabi/9.3.1/../../../../arm-none-eabi/lib/thumb/v7e-m+dp/hard\libc.a(lib_a-readr.o)
 .bss           0x20036c68        0x0 c:/program files (x86)/gnu arm embedded toolchain/9 2020-q2-update/bin/../lib/gcc/arm-none-eabi/9.3.1/../../../../arm-none-eabi/lib/thumb/v7e-m+dp/hard\libc.a(lib_a-realloc.o)
 .bss           0x20036c68        0x0 c:/program files (x86)/gnu arm embedded toolchain/9 2020-q2-update/bin/../lib/gcc/arm-none-eabi/9.3.1/../../../../arm-none-eabi/lib/thumb/v7e-m+dp/hard\libc.a(lib_a-reallocr.o)
 .bss           0x20036c68        0x0 c:/program files (x86)/gnu arm embedded toolchain/9 2020-q2-update/bin/../lib/gcc/arm-none-eabi/9.3.1/../../../../arm-none-eabi/lib/thumb/v7e-m+dp/hard\libc.a(lib_a-reent.o)
 .bss           0x20036c68        0x0 c:/program files (x86)/gnu arm embedded toolchain/9 2020-q2-update/bin/../lib/gcc/arm-none-eabi/9.3.1/../../../../arm-none-eabi/lib/thumb/v7e-m+dp/hard\libc.a(lib_a-s_frexp.o)
 .bss           0x20036c68        0x0 c:/program files (x86)/gnu arm embedded toolchain/9 2020-q2-update/bin/../lib/gcc/arm-none-eabi/9.3.1/../../../../arm-none-eabi/lib/thumb/v7e-m+dp/hard\libc.a(lib_a-sbrkr.o)
 .bss           0x20036c68        0x0 c:/program files (x86)/gnu arm embedded toolchain/9 2020-q2-update/bin/../lib/gcc/arm-none-eabi/9.3.1/../../../../arm-none-eabi/lib/thumb/v7e-m+dp/hard\libc.a(lib_a-sccl.o)
 .bss           0x20036c68        0x0 c:/program files (x86)/gnu arm embedded toolchain/9 2020-q2-update/bin/../lib/gcc/arm-none-eabi/9.3.1/../../../../arm-none-eabi/lib/thumb/v7e-m+dp/hard\libc.a(lib_a-sf_nan.o)
 .bss           0x20036c68        0x0 c:/program files (x86)/gnu arm embedded toolchain/9 2020-q2-update/bin/../lib/gcc/arm-none-eabi/9.3.1/../../../../arm-none-eabi/lib/thumb/v7e-m+dp/hard\libc.a(lib_a-siscanf.o)
 .bss           0x20036c68        0x0 c:/program files (x86)/gnu arm embedded toolchain/9 2020-q2-update/bin/../lib/gcc/arm-none-eabi/9.3.1/../../../../arm-none-eabi/lib/thumb/v7e-m+dp/hard\libc.a(lib_a-strtoll.o)
 .bss           0x20036c68        0x0 c:/program files (x86)/gnu arm embedded toolchain/9 2020-q2-update/bin/../lib/gcc/arm-none-eabi/9.3.1/../../../../arm-none-eabi/lib/thumb/v7e-m+dp/hard\libc.a(lib_a-svfiprintf.o)
 .bss           0x20036c68        0x0 c:/program files (x86)/gnu arm embedded toolchain/9 2020-q2-update/bin/../lib/gcc/arm-none-eabi/9.3.1/../../../../arm-none-eabi/lib/thumb/v7e-m+dp/hard\libc.a(lib_a-svfiscanf.o)
 .bss           0x20036c68        0x0 c:/program files (x86)/gnu arm embedded toolchain/9 2020-q2-update/bin/../lib/gcc/arm-none-eabi/9.3.1/../../../../arm-none-eabi/lib/thumb/v7e-m+dp/hard\libc.a(lib_a-ungetc.o)
 .bss           0x20036c68        0x0 c:/program files (x86)/gnu arm embedded toolchain/9 2020-q2-update/bin/../lib/gcc/arm-none-eabi/9.3.1/../../../../arm-none-eabi/lib/thumb/v7e-m+dp/hard\libc.a(lib_a-vfiprintf.o)
 .bss           0x20036c68        0x0 c:/program files (x86)/gnu arm embedded toolchain/9 2020-q2-update/bin/../lib/gcc/arm-none-eabi/9.3.1/../../../../arm-none-eabi/lib/thumb/v7e-m+dp/hard\libc.a(lib_a-wctomb_r.o)
 .bss           0x20036c68        0x0 c:/program files (x86)/gnu arm embedded toolchain/9 2020-q2-update/bin/../lib/gcc/arm-none-eabi/9.3.1/../../../../arm-none-eabi/lib/thumb/v7e-m+dp/hard\libc.a(lib_a-assert.o)
 .bss           0x20036c68        0x0 c:/program files (x86)/gnu arm embedded toolchain/9 2020-q2-update/bin/../lib/gcc/arm-none-eabi/9.3.1/../../../../arm-none-eabi/lib/thumb/v7e-m+dp/hard\libc.a(lib_a-callocr.o)
 .bss           0x20036c68        0x0 c:/program files (x86)/gnu arm embedded toolchain/9 2020-q2-update/bin/../lib/gcc/arm-none-eabi/9.3.1/../../../../arm-none-eabi/lib/thumb/v7e-m+dp/hard\libc.a(lib_a-environ.o)
 .bss           0x20036c68        0x0 c:/program files (x86)/gnu arm embedded toolchain/9 2020-q2-update/bin/../lib/gcc/arm-none-eabi/9.3.1/../../../../arm-none-eabi/lib/thumb/v7e-m+dp/hard\libc.a(lib_a-envlock.o)
 .bss           0x20036c68        0x0 c:/program files (x86)/gnu arm embedded toolchain/9 2020-q2-update/bin/../lib/gcc/arm-none-eabi/9.3.1/../../../../arm-none-eabi/lib/thumb/v7e-m+dp/hard\libc.a(lib_a-fclose.o)
 .bss           0x20036c68        0x0 c:/program files (x86)/gnu arm embedded toolchain/9 2020-q2-update/bin/../lib/gcc/arm-none-eabi/9.3.1/../../../../arm-none-eabi/lib/thumb/v7e-m+dp/hard\libc.a(lib_a-fiprintf.o)
 .bss           0x20036c68        0x0 c:/program files (x86)/gnu arm embedded toolchain/9 2020-q2-update/bin/../lib/gcc/arm-none-eabi/9.3.1/../../../../arm-none-eabi/lib/thumb/v7e-m+dp/hard\libc.a(lib_a-fputwc.o)
 .bss           0x20036c68        0x0 c:/program files (x86)/gnu arm embedded toolchain/9 2020-q2-update/bin/../lib/gcc/arm-none-eabi/9.3.1/../../../../arm-none-eabi/lib/thumb/v7e-m+dp/hard\libc.a(lib_a-fstatr.o)
 .bss           0x20036c68        0x0 c:/program files (x86)/gnu arm embedded toolchain/9 2020-q2-update/bin/../lib/gcc/arm-none-eabi/9.3.1/../../../../arm-none-eabi/lib/thumb/v7e-m+dp/hard\libc.a(lib_a-fvwrite.o)
 .bss           0x20036c68        0x0 c:/program files (x86)/gnu arm embedded toolchain/9 2020-q2-update/bin/../lib/gcc/arm-none-eabi/9.3.1/../../../../arm-none-eabi/lib/thumb/v7e-m+dp/hard\libc.a(lib_a-isattyr.o)
 .bss           0x20036c68        0x0 c:/program files (x86)/gnu arm embedded toolchain/9 2020-q2-update/bin/../lib/gcc/arm-none-eabi/9.3.1/../../../../arm-none-eabi/lib/thumb/v7e-m+dp/hard\libc.a(lib_a-wbuf.o)
 .bss           0x20036c68        0x0 c:/program files (x86)/gnu arm embedded toolchain/9 2020-q2-update/bin/../lib/gcc/arm-none-eabi/9.3.1/../../../../arm-none-eabi/lib/thumb/v7e-m+dp/hard\libc.a(lib_a-wcrtomb.o)
 .bss           0x20036c68        0x0 c:/program files (x86)/gnu arm embedded toolchain/9 2020-q2-update/bin/../lib/gcc/arm-none-eabi/9.3.1/../../../../arm-none-eabi/lib/thumb/v7e-m+dp/hard\libc.a(lib_a-abort.o)
 .bss           0x20036c68        0x0 c:/program files (x86)/gnu arm embedded toolchain/9 2020-q2-update/bin/../lib/gcc/arm-none-eabi/9.3.1/../../../../arm-none-eabi/lib/thumb/v7e-m+dp/hard\libc.a(lib_a-signal.o)
 .bss           0x20036c68        0x0 c:/program files (x86)/gnu arm embedded toolchain/9 2020-q2-update/bin/../lib/gcc/arm-none-eabi/9.3.1/../../../../arm-none-eabi/lib/thumb/v7e-m+dp/hard\libc.a(lib_a-signalr.o)
 .bss           0x20036c68        0x0 c:/program files (x86)/gnu arm embedded toolchain/9 2020-q2-update/bin/../lib/gcc/arm-none-eabi/9.3.1/../../../../arm-none-eabi/lib/thumb/v7e-m+dp/hard\libnosys.a(close.o)
 .bss           0x20036c68        0x0 c:/program files (x86)/gnu arm embedded toolchain/9 2020-q2-update/bin/../lib/gcc/arm-none-eabi/9.3.1/../../../../arm-none-eabi/lib/thumb/v7e-m+dp/hard\libnosys.a(fstat.o)
 .bss           0x20036c68        0x0 c:/program files (x86)/gnu arm embedded toolchain/9 2020-q2-update/bin/../lib/gcc/arm-none-eabi/9.3.1/../../../../arm-none-eabi/lib/thumb/v7e-m+dp/hard\libnosys.a(getpid.o)
 .bss           0x20036c68        0x0 c:/program files (x86)/gnu arm embedded toolchain/9 2020-q2-update/bin/../lib/gcc/arm-none-eabi/9.3.1/../../../../arm-none-eabi/lib/thumb/v7e-m+dp/hard\libnosys.a(isatty.o)
 .bss           0x20036c68        0x0 c:/program files (x86)/gnu arm embedded toolchain/9 2020-q2-update/bin/../lib/gcc/arm-none-eabi/9.3.1/../../../../arm-none-eabi/lib/thumb/v7e-m+dp/hard\libnosys.a(kill.o)
 .bss           0x20036c68        0x0 c:/program files (x86)/gnu arm embedded toolchain/9 2020-q2-update/bin/../lib/gcc/arm-none-eabi/9.3.1/../../../../arm-none-eabi/lib/thumb/v7e-m+dp/hard\libnosys.a(lseek.o)
 .bss           0x20036c68        0x0 c:/program files (x86)/gnu arm embedded toolchain/9 2020-q2-update/bin/../lib/gcc/arm-none-eabi/9.3.1/../../../../arm-none-eabi/lib/thumb/v7e-m+dp/hard\libnosys.a(read.o)
 .bss           0x20036c68        0x0 c:/program files (x86)/gnu arm embedded toolchain/9 2020-q2-update/bin/../lib/gcc/arm-none-eabi/9.3.1/../../../../arm-none-eabi/lib/thumb/v7e-m+dp/hard\libnosys.a(sbrk.o)
 .bss           0x20036c68        0x0 c:/program files (x86)/gnu arm embedded toolchain/9 2020-q2-update/bin/../lib/gcc/arm-none-eabi/9.3.1/../../../../arm-none-eabi/lib/thumb/v7e-m+dp/hard\libnosys.a(write.o)
 .bss           0x20036c68        0x0 c:/program files (x86)/gnu arm embedded toolchain/9 2020-q2-update/bin/../lib/gcc/arm-none-eabi/9.3.1/../../../../arm-none-eabi/lib/thumb/v7e-m+dp/hard\libnosys.a(_exit.o)
 .bss           0x20036c68        0x0 c:/program files (x86)/gnu arm embedded toolchain/9 2020-q2-update/bin/../lib/gcc/arm-none-eabi/9.3.1/thumb/v7e-m+dp/hard/crtend.o
 .bss           0x20036c68        0x0 c:/program files (x86)/gnu arm embedded toolchain/9 2020-q2-update/bin/../lib/gcc/arm-none-eabi/9.3.1/thumb/v7e-m+dp/hard/crtn.o
 .bss           0x20036c68        0x0 c:/program files (x86)/gnu arm embedded toolchain/9 2020-q2-update/bin/../lib/gcc/arm-none-eabi/9.3.1/../../../../arm-none-eabi/lib/thumb/v7e-m+dp/hard\libm.a(lib_a-exp.o)
 .bss           0x20036c68        0x0 c:/program files (x86)/gnu arm embedded toolchain/9 2020-q2-update/bin/../lib/gcc/arm-none-eabi/9.3.1/../../../../arm-none-eabi/lib/thumb/v7e-m+dp/hard\libm.a(lib_a-exp_data.o)
 .bss           0x20036c68        0x0 c:/program files (x86)/gnu arm embedded toolchain/9 2020-q2-update/bin/../lib/gcc/arm-none-eabi/9.3.1/../../../../arm-none-eabi/lib/thumb/v7e-m+dp/hard\libm.a(lib_a-math_err.o)
 .bss           0x20036c68        0x0 c:/program files (x86)/gnu arm embedded toolchain/9 2020-q2-update/bin/../lib/gcc/arm-none-eabi/9.3.1/../../../../arm-none-eabi/lib/thumb/v7e-m+dp/hard\libm.a(lib_a-pow.o)
 .bss           0x20036c68        0x0 c:/program files (x86)/gnu arm embedded toolchain/9 2020-q2-update/bin/../lib/gcc/arm-none-eabi/9.3.1/../../../../arm-none-eabi/lib/thumb/v7e-m+dp/hard\libm.a(lib_a-pow_log_data.o)
 .bss           0x20036c68        0x0 c:/program files (x86)/gnu arm embedded toolchain/9 2020-q2-update/bin/../lib/gcc/arm-none-eabi/9.3.1/../../../../arm-none-eabi/lib/thumb/v7e-m+dp/hard\libm.a(lib_a-s_atan.o)
 .bss           0x20036c68        0x0 c:/program files (x86)/gnu arm embedded toolchain/9 2020-q2-update/bin/../lib/gcc/arm-none-eabi/9.3.1/../../../../arm-none-eabi/lib/thumb/v7e-m+dp/hard\libm.a(lib_a-s_cos.o)
 .bss           0x20036c68        0x0 c:/program files (x86)/gnu arm embedded toolchain/9 2020-q2-update/bin/../lib/gcc/arm-none-eabi/9.3.1/../../../../arm-none-eabi/lib/thumb/v7e-m+dp/hard\libm.a(lib_a-s_fabs.o)
 .bss           0x20036c68        0x0 c:/program files (x86)/gnu arm embedded toolchain/9 2020-q2-update/bin/../lib/gcc/arm-none-eabi/9.3.1/../../../../arm-none-eabi/lib/thumb/v7e-m+dp/hard\libm.a(lib_a-s_floor.o)
 .bss           0x20036c68        0x0 c:/program files (x86)/gnu arm embedded toolchain/9 2020-q2-update/bin/../lib/gcc/arm-none-eabi/9.3.1/../../../../arm-none-eabi/lib/thumb/v7e-m+dp/hard\libm.a(lib_a-s_round.o)
 .bss           0x20036c68        0x0 c:/program files (x86)/gnu arm embedded toolchain/9 2020-q2-update/bin/../lib/gcc/arm-none-eabi/9.3.1/../../../../arm-none-eabi/lib/thumb/v7e-m+dp/hard\libm.a(lib_a-s_sin.o)
 .bss           0x20036c68        0x0 c:/program files (x86)/gnu arm embedded toolchain/9 2020-q2-update/bin/../lib/gcc/arm-none-eabi/9.3.1/../../../../arm-none-eabi/lib/thumb/v7e-m+dp/hard\libm.a(lib_a-s_tan.o)
 .bss           0x20036c68        0x0 c:/program files (x86)/gnu arm embedded toolchain/9 2020-q2-update/bin/../lib/gcc/arm-none-eabi/9.3.1/../../../../arm-none-eabi/lib/thumb/v7e-m+dp/hard\libm.a(lib_a-w_acos.o)
 .bss           0x20036c68        0x0 c:/program files (x86)/gnu arm embedded toolchain/9 2020-q2-update/bin/../lib/gcc/arm-none-eabi/9.3.1/../../../../arm-none-eabi/lib/thumb/v7e-m+dp/hard\libm.a(lib_a-w_asin.o)
 .bss           0x20036c68        0x0 c:/program files (x86)/gnu arm embedded toolchain/9 2020-q2-update/bin/../lib/gcc/arm-none-eabi/9.3.1/../../../../arm-none-eabi/lib/thumb/v7e-m+dp/hard\libm.a(lib_a-w_atan2.o)
 .bss           0x20036c68        0x0 c:/program files (x86)/gnu arm embedded toolchain/9 2020-q2-update/bin/../lib/gcc/arm-none-eabi/9.3.1/../../../../arm-none-eabi/lib/thumb/v7e-m+dp/hard\libm.a(lib_a-w_fmod.o)
 .bss           0x20036c68        0x0 c:/program files (x86)/gnu arm embedded toolchain/9 2020-q2-update/bin/../lib/gcc/arm-none-eabi/9.3.1/../../../../arm-none-eabi/lib/thumb/v7e-m+dp/hard\libm.a(lib_a-w_sqrt.o)
 .bss           0x20036c68        0x0 c:/program files (x86)/gnu arm embedded toolchain/9 2020-q2-update/bin/../lib/gcc/arm-none-eabi/9.3.1/../../../../arm-none-eabi/lib/thumb/v7e-m+dp/hard\libm.a(lib_a-wf_sqrt.o)
 .bss           0x20036c68        0x0 c:/program files (x86)/gnu arm embedded toolchain/9 2020-q2-update/bin/../lib/gcc/arm-none-eabi/9.3.1/../../../../arm-none-eabi/lib/thumb/v7e-m+dp/hard\libm.a(lib_a-e_acos.o)
 .bss           0x20036c68        0x0 c:/program files (x86)/gnu arm embedded toolchain/9 2020-q2-update/bin/../lib/gcc/arm-none-eabi/9.3.1/../../../../arm-none-eabi/lib/thumb/v7e-m+dp/hard\libm.a(lib_a-e_asin.o)
 .bss           0x20036c68        0x0 c:/program files (x86)/gnu arm embedded toolchain/9 2020-q2-update/bin/../lib/gcc/arm-none-eabi/9.3.1/../../../../arm-none-eabi/lib/thumb/v7e-m+dp/hard\libm.a(lib_a-e_atan2.o)
 .bss           0x20036c68        0x0 c:/program files (x86)/gnu arm embedded toolchain/9 2020-q2-update/bin/../lib/gcc/arm-none-eabi/9.3.1/../../../../arm-none-eabi/lib/thumb/v7e-m+dp/hard\libm.a(lib_a-e_fmod.o)
 .bss           0x20036c68        0x0 c:/program files (x86)/gnu arm embedded toolchain/9 2020-q2-update/bin/../lib/gcc/arm-none-eabi/9.3.1/../../../../arm-none-eabi/lib/thumb/v7e-m+dp/hard\libm.a(lib_a-e_rem_pio2.o)
 .bss           0x20036c68        0x0 c:/program files (x86)/gnu arm embedded toolchain/9 2020-q2-update/bin/../lib/gcc/arm-none-eabi/9.3.1/../../../../arm-none-eabi/lib/thumb/v7e-m+dp/hard\libm.a(lib_a-e_sqrt.o)
 .bss           0x20036c68        0x0 c:/program files (x86)/gnu arm embedded toolchain/9 2020-q2-update/bin/../lib/gcc/arm-none-eabi/9.3.1/../../../../arm-none-eabi/lib/thumb/v7e-m+dp/hard\libm.a(lib_a-ef_sqrt.o)
 .bss           0x20036c68        0x0 c:/program files (x86)/gnu arm embedded toolchain/9 2020-q2-update/bin/../lib/gcc/arm-none-eabi/9.3.1/../../../../arm-none-eabi/lib/thumb/v7e-m+dp/hard\libm.a(lib_a-k_cos.o)
 .bss           0x20036c68        0x0 c:/program files (x86)/gnu arm embedded toolchain/9 2020-q2-update/bin/../lib/gcc/arm-none-eabi/9.3.1/../../../../arm-none-eabi/lib/thumb/v7e-m+dp/hard\libm.a(lib_a-k_rem_pio2.o)
 .bss           0x20036c68        0x0 c:/program files (x86)/gnu arm embedded toolchain/9 2020-q2-update/bin/../lib/gcc/arm-none-eabi/9.3.1/../../../../arm-none-eabi/lib/thumb/v7e-m+dp/hard\libm.a(lib_a-k_sin.o)
 .bss           0x20036c68        0x0 c:/program files (x86)/gnu arm embedded toolchain/9 2020-q2-update/bin/../lib/gcc/arm-none-eabi/9.3.1/../../../../arm-none-eabi/lib/thumb/v7e-m+dp/hard\libm.a(lib_a-k_tan.o)
 .bss           0x20036c68        0x0 c:/program files (x86)/gnu arm embedded toolchain/9 2020-q2-update/bin/../lib/gcc/arm-none-eabi/9.3.1/../../../../arm-none-eabi/lib/thumb/v7e-m+dp/hard\libm.a(lib_a-s_lib_ver.o)
 .bss           0x20036c68        0x0 c:/program files (x86)/gnu arm embedded toolchain/9 2020-q2-update/bin/../lib/gcc/arm-none-eabi/9.3.1/../../../../arm-none-eabi/lib/thumb/v7e-m+dp/hard\libm.a(lib_a-s_scalbn.o)
 *(.bss*)
 .bss.__tzname_dst
                0x20036c68        0xb c:/program files (x86)/gnu arm embedded toolchain/9 2020-q2-update/bin/../lib/gcc/arm-none-eabi/9.3.1/../../../../arm-none-eabi/lib/thumb/v7e-m+dp/hard\libc.a(lib_a-tzset_r.o)
 *fill*         0x20036c73        0x1 
 .bss.__tzname_std
                0x20036c74        0xb c:/program files (x86)/gnu arm embedded toolchain/9 2020-q2-update/bin/../lib/gcc/arm-none-eabi/9.3.1/../../../../arm-none-eabi/lib/thumb/v7e-m+dp/hard\libc.a(lib_a-tzset_r.o)
 *fill*         0x20036c7f        0x1 
 .bss.prev_tzenv
                0x20036c80        0x4 c:/program files (x86)/gnu arm embedded toolchain/9 2020-q2-update/bin/../lib/gcc/arm-none-eabi/9.3.1/../../../../arm-none-eabi/lib/thumb/v7e-m+dp/hard\libc.a(lib_a-tzset_r.o)
 .bss._daylight
                0x20036c84        0x4 c:/program files (x86)/gnu arm embedded toolchain/9 2020-q2-update/bin/../lib/gcc/arm-none-eabi/9.3.1/../../../../arm-none-eabi/lib/thumb/v7e-m+dp/hard\libc.a(lib_a-tzvars.o)
                0x20036c84                _daylight
 .bss._timezone
                0x20036c88        0x4 c:/program files (x86)/gnu arm embedded toolchain/9 2020-q2-update/bin/../lib/gcc/arm-none-eabi/9.3.1/../../../../arm-none-eabi/lib/thumb/v7e-m+dp/hard\libc.a(lib_a-tzvars.o)
                0x20036c88                _timezone
 .bss._PathLocale
                0x20036c8c        0x4 c:/program files (x86)/gnu arm embedded toolchain/9 2020-q2-update/bin/../lib/gcc/arm-none-eabi/9.3.1/../../../../arm-none-eabi/lib/thumb/v7e-m+dp/hard\libc.a(lib_a-locale.o)
                0x20036c8c                _PathLocale
 .bss.__malloc_current_mallinfo
                0x20036c90       0x28 c:/program files (x86)/gnu arm embedded toolchain/9 2020-q2-update/bin/../lib/gcc/arm-none-eabi/9.3.1/../../../../arm-none-eabi/lib/thumb/v7e-m+dp/hard\libc.a(lib_a-mallocr.o)
                0x20036c90                __malloc_current_mallinfo
 .bss.__malloc_max_sbrked_mem
                0x20036cb8        0x4 c:/program files (x86)/gnu arm embedded toolchain/9 2020-q2-update/bin/../lib/gcc/arm-none-eabi/9.3.1/../../../../arm-none-eabi/lib/thumb/v7e-m+dp/hard\libc.a(lib_a-mallocr.o)
                0x20036cb8                __malloc_max_sbrked_mem
 .bss.__malloc_max_total_mem
                0x20036cbc        0x4 c:/program files (x86)/gnu arm embedded toolchain/9 2020-q2-update/bin/../lib/gcc/arm-none-eabi/9.3.1/../../../../arm-none-eabi/lib/thumb/v7e-m+dp/hard\libc.a(lib_a-mallocr.o)
                0x20036cbc                __malloc_max_total_mem
 .bss.__malloc_top_pad
                0x20036cc0        0x4 c:/program files (x86)/gnu arm embedded toolchain/9 2020-q2-update/bin/../lib/gcc/arm-none-eabi/9.3.1/../../../../arm-none-eabi/lib/thumb/v7e-m+dp/hard\libc.a(lib_a-mallocr.o)
                0x20036cc0                __malloc_top_pad
 .bss.initial_env
                0x20036cc4        0x4 c:/program files (x86)/gnu arm embedded toolchain/9 2020-q2-update/bin/../lib/gcc/arm-none-eabi/9.3.1/../../../../arm-none-eabi/lib/thumb/v7e-m+dp/hard\libc.a(lib_a-environ.o)
 .bss.heap_end.5507
                0x20036cc8        0x4 c:/program files (x86)/gnu arm embedded toolchain/9 2020-q2-update/bin/../lib/gcc/arm-none-eabi/9.3.1/../../../../arm-none-eabi/lib/thumb/v7e-m+dp/hard\libnosys.a(sbrk.o)
 *(COMMON)
 COMMON         0x20036ccc       0x21 c:/program files (x86)/gnu arm embedded toolchain/9 2020-q2-update/bin/../lib/gcc/arm-none-eabi/9.3.1/../../../../arm-none-eabi/lib/thumb/v7e-m+dp/hard\libc.a(lib_a-lock.o)
                0x20036ccc                __lock___malloc_recursive_mutex
                0x20036cd0                __lock___atexit_recursive_mutex
                0x20036cd4                __lock___dd_hash_mutex
                0x20036cd8                __lock___sinit_recursive_mutex
                0x20036cdc                __lock___sfp_recursive_mutex
                0x20036ce0                __lock___at_quick_exit_mutex
                0x20036ce4                __lock___env_recursive_mutex
                0x20036ce8                __lock___tz_mutex
                0x20036cec                __lock___arc4random_mutex
 *fill*         0x20036ced        0x3 
 COMMON         0x20036cf0        0x4 c:/program files (x86)/gnu arm embedded toolchain/9 2020-q2-update/bin/../lib/gcc/arm-none-eabi/9.3.1/../../../../arm-none-eabi/lib/thumb/v7e-m+dp/hard\libc.a(lib_a-reent.o)
                0x20036cf0                errno
                0x20036cf4                . = ALIGN (0x4)
                0x20036cf4                _ebss = .
                0x20036cf4                __bss_end__ = _ebss

._user_heap_stack
                0x20036cf4      0x604 load address 0x0805f710
                0x20036cf8                . = ALIGN (0x8)
 *fill*         0x20036cf4        0x4 
                0x20036cf8                PROVIDE (end = .)
                [!provide]                PROVIDE (_end = .)
                0x20036ef8                . = (. + _Min_Heap_Size)
 *fill*         0x20036cf8      0x200 
                0x200372f8                . = (. + _Min_Stack_Size)
 *fill*         0x20036ef8      0x400 
                0x200372f8                . = ALIGN (0x8)

/DISCARD/
 libc.a(*)
 libm.a(*)
 libgcc.a(*)

.ARM.attributes
                0x00000000       0x2e
 *(.ARM.attributes)
 .ARM.attributes
                0x00000000       0x1e c:/program files (x86)/gnu arm embedded toolchain/9 2020-q2-update/bin/../lib/gcc/arm-none-eabi/9.3.1/thumb/v7e-m+dp/hard/crti.o
 .ARM.attributes
                0x0000001e       0x32 c:/program files (x86)/gnu arm embedded toolchain/9 2020-q2-update/bin/../lib/gcc/arm-none-eabi/9.3.1/thumb/v7e-m+dp/hard/crtbegin.o
 .ARM.attributes
                0x00000050       0x1c c:/program files (x86)/gnu arm embedded toolchain/9 2020-q2-update/bin/../lib/gcc/arm-none-eabi/9.3.1/../../../../arm-none-eabi/lib/thumb/v7e-m+dp/hard/crt0.o
 .ARM.attributes
                0x0000006c       0x32 ./fcapplication/mainofapplication.o
 .ARM.attributes
                0x0000009e       0x32 ./fcapplication/stm32h7xx_it.o
 .ARM.attributes
                0x000000d0       0x32 ./fcapplication/stm32h7xx_hal_msp.o
 .ARM.attributes
                0x00000102       0x32 ./fcapplication/csphandler.o
 .ARM.attributes
                0x00000134       0x32 ./fcapplication/dwt.o
 .ARM.attributes
                0x00000166       0x32 ./fcapplication/commands.o
 .ARM.attributes
                0x00000198       0x32 ./fcapplication/cmdi2c.o
 .ARM.attributes
                0x000001ca       0x32 ./fcapplication/crc_hw.o
 .ARM.attributes
                0x000001fc       0x37 ./fcapplication/cmdspi.o
 .ARM.attributes
                0x00000233       0x32 ./fcapplication/cmdframcy15b104q.o
 .ARM.attributes
                0x00000265       0x32 ./fcapplication/peripheralapps.o
 .ARM.attributes
                0x00000297       0x32 ./fcapplication/oshooks.o
 .ARM.attributes
                0x000002c9       0x32 ./fcapplication/confighandler.o
 .ARM.attributes
                0x000002fb       0x32 ./fcapplication/cmdadc.o
 .ARM.attributes
                0x0000032d       0x32 ./fcapplication/overcurrentprotectiontask.o
 .ARM.attributes
                0x0000035f       0x32 ./fcapplication/system_dbg.o
 .ARM.attributes
                0x00000391       0x32 ./fcapplication/telemetryhandler.o
 .ARM.attributes
                0x000003c3       0x32 ./fcapplication/cmdlog.o
 .ARM.attributes
                0x000003f5       0x32 ./fcapplication/log.o
 .ARM.attributes
                0x00000427       0x32 ./fcapplication/fwupdhandler.o
 .ARM.attributes
                0x00000459       0x32 ./fcapplication/cspcpureset.o
 .ARM.attributes
                0x0000048b       0x32 ./fcapplication/cmdrtc.o
 .ARM.attributes
                0x000004bd       0x32 ./fcapplication/file_table.o
 .ARM.attributes
                0x000004ef       0x32 ./fcapplication/powercontrolunithandler.o
 .ARM.attributes
                0x00000521       0x32 ./fcapplication/system_stm32h7xx.o
 .ARM.attributes
                0x00000553       0x21 ./fcapplication/startup_stm32h743xx.o
 .ARM.attributes
                0x00000574       0x32 ./fcapplication/adcsactuators.o
 .ARM.attributes
                0x000005a6       0x32 ./fcapplication/adcssensors.o
 .ARM.attributes
                0x000005d8       0x32 ./fcapplication/adcsapp.o
 .ARM.attributes
                0x0000060a       0x32 ./fcapplication/adcstelemetryhandler.o
 .ARM.attributes
                0x0000063c       0x32 ./fcapplication/cli.o
 .ARM.attributes
                0x0000066e       0x37 ./fcapplication/clicmd.o
 .ARM.attributes
                0x000006a5       0x32 ./fcapplication/clicmdindexer.o
 .ARM.attributes
                0x000006d7       0x32 ./fcapplication/clicmdindexnode.o
 .ARM.attributes
                0x00000709       0x32 ./fcapplication/cliwriter.o
 .ARM.attributes
                0x0000073b       0x32 ./fcapplication/cliservice.o
 .ARM.attributes
                0x0000076d       0x32 ./fcapplication/clihelpers.o
 .ARM.attributes
                0x0000079f       0x32 ./fcapplication/config.o
 .ARM.attributes
                0x000007d1       0x32 ./fcapplication/configclicommands.o
 .ARM.attributes
                0x00000803       0x32 ./fcapplication/configservice.o
 .ARM.attributes
                0x00000835       0x32 ./fcapplication/configclient.o
 .ARM.attributes
                0x00000867       0x32 ./fcapplication/csp_bridge.o
 .ARM.attributes
                0x00000899       0x32 ./fcapplication/csp_buffer.o
 .ARM.attributes
                0x000008cb       0x32 ./fcapplication/csp_conn.o
 .ARM.attributes
                0x000008fd       0x32 ./fcapplication/csp_crc32.o
 .ARM.attributes
                0x0000092f       0x32 ./fcapplication/csp_debug.o
 .ARM.attributes
                0x00000961       0x32 ./fcapplication/csp_dedup.o
 .ARM.attributes
                0x00000993       0x32 ./fcapplication/csp_endian.o
 .ARM.attributes
                0x000009c5       0x32 ./fcapplication/csp_iflist.o
 .ARM.attributes
                0x000009f7       0x32 ./fcapplication/csp_io.o
 .ARM.attributes
                0x00000a29       0x32 ./fcapplication/csp_port.o
 .ARM.attributes
                0x00000a5b       0x32 ./fcapplication/csp_promisc.o
 .ARM.attributes
                0x00000a8d       0x32 ./fcapplication/csp_qfifo.o
 .ARM.attributes
                0x00000abf       0x32 ./fcapplication/csp_route.o
 .ARM.attributes
                0x00000af1       0x32 ./fcapplication/csp_service_handler.o
 .ARM.attributes
                0x00000b23       0x32 ./fcapplication/csp_services.o
 .ARM.attributes
                0x00000b55       0x32 ./fcapplication/csp_sfp.o
 .ARM.attributes
                0x00000b87       0x37 ./fcapplication/csp_rdp.o
 .ARM.attributes
                0x00000bbe       0x32 ./fcapplication/csp_udp.o
 .ARM.attributes
                0x00000bf0       0x32 ./fcapplication/csp_rtable_static.o
 .ARM.attributes
                0x00000c22       0x32 ./fcapplication/csp_if_lo.o
 .ARM.attributes
                0x00000c54       0x32 ./fcapplication/csp_if_can.o
 .ARM.attributes
                0x00000c86       0x32 ./fcapplication/csp_malloc.o
 .ARM.attributes
                0x00000cb8       0x32 ./fcapplication/csp_queue.o
 .ARM.attributes
                0x00000cea       0x32 ./fcapplication/csp_semaphore.o
 .ARM.attributes
                0x00000d1c       0x32 ./fcapplication/csp_system.o
 .ARM.attributes
                0x00000d4e       0x32 ./fcapplication/csp_thread.o
 .ARM.attributes
                0x00000d80       0x32 ./fcapplication/csp_time.o
 .ARM.attributes
                0x00000db2       0x32 ./fcapplication/cspclicommands.o
 .ARM.attributes
                0x00000de4       0x32 ./fcapplication/cspserver.o
 .ARM.attributes
                0x00000e16       0x32 ./fcapplication/cmdmagnetorquers.o
 .ARM.attributes
                0x00000e48       0x32 ./fcapplication/magnetorquers.o
 .ARM.attributes
                0x00000e7a       0x32 ./fcapplication/file_system.o
 .ARM.attributes
                0x00000eac       0x32 ./fcapplication/ftransfer_sat.o
 .ARM.attributes
                0x00000ede       0x32 ./fcapplication/fs_tests.o
 .ARM.attributes
                0x00000f10       0x32 ./fcapplication/cmdfs.o
 .ARM.attributes
                0x00000f42       0x32 ./fcapplication/filesystem.o
 .ARM.attributes
                0x00000f74       0x32 ./fcapplication/fwupd.o
 .ARM.attributes
                0x00000fa6       0x32 ./fcapplication/fwupdclicommands.o
 .ARM.attributes
                0x00000fd8       0x32 ./fcapplication/fwupdcrc32.o
 .ARM.attributes
                0x0000100a       0x32 ./fcapplication/fwupdmemdescriptor.o
 .ARM.attributes
                0x0000103c       0x32 ./fcapplication/fwupdservice.o
 .ARM.attributes
                0x0000106e       0x32 ./fcapplication/fwupddescriptorhandler.o
 .ARM.attributes
                0x000010a0       0x32 ./fcapplication/fwupdclihelpers.o
 .ARM.attributes
                0x000010d2       0x32 ./fcapplication/flash_mt25q.o
 .ARM.attributes
                0x00001104       0x32 ./fcapplication/cmdflash_mt25q.o
 .ARM.attributes
                0x00001136       0x32 ./fcapplication/framcy15b104q.o
 .ARM.attributes
                0x00001168       0x32 ./fcapplication/fram_fm22l16.o
 .ARM.attributes
                0x0000119a       0x37 ./fcapplication/croutine.o
 .ARM.attributes
                0x000011d1       0x32 ./fcapplication/event_groups.o
 .ARM.attributes
                0x00001203       0x32 ./fcapplication/list.o
 .ARM.attributes
                0x00001235       0x32 ./fcapplication/queue.o
 .ARM.attributes
                0x00001267       0x32 ./fcapplication/tasks.o
 .ARM.attributes
                0x00001299       0x37 ./fcapplication/timers.o
 .ARM.attributes
                0x000012d0       0x32 ./fcapplication/port.o
 .ARM.attributes
                0x00001302       0x32 ./fcapplication/heap_4.o
 .ARM.attributes
                0x00001334       0x32 ./fcapplication/cmdsunsensor.o
 .ARM.attributes
                0x00001366       0x32 ./fcapplication/sunsensornsfss.o
 .ARM.attributes
                0x00001398       0x32 ./fcapplication/gps.o
 .ARM.attributes
                0x000013ca       0x32 ./fcapplication/sentence.o
 .ARM.attributes
                0x000013fc       0x32 ./fcapplication/stm32h7xx_hal_spi_ex.o
 .ARM.attributes
                0x0000142e       0x32 ./fcapplication/stm32h7xx_hal_qspi.o
 .ARM.attributes
                0x00001460       0x32 ./fcapplication/stm32h7xx_hal_flash.o
 .ARM.attributes
                0x00001492       0x32 ./fcapplication/stm32h7xx_ll_fmc.o
 .ARM.attributes
                0x000014c4       0x32 ./fcapplication/stm32h7xx_hal.o
 .ARM.attributes
                0x000014f6       0x32 ./fcapplication/stm32h7xx_hal_mdma.o
 .ARM.attributes
                0x00001528       0x32 ./fcapplication/stm32h7xx_hal_i2c.o
 .ARM.attributes
                0x0000155a       0x32 ./fcapplication/stm32h7xx_hal_dma.o
 .ARM.attributes
                0x0000158c       0x32 ./fcapplication/stm32h7xx_hal_pwr.o
 .ARM.attributes
                0x000015be       0x32 ./fcapplication/stm32h7xx_hal_cortex.o
 .ARM.attributes
                0x000015f0       0x32 ./fcapplication/stm32h7xx_hal_spi.o
 .ARM.attributes
                0x00001622       0x32 ./fcapplication/stm32h7xx_hal_gpio.o
 .ARM.attributes
                0x00001654       0x32 ./fcapplication/stm32h7xx_hal_fdcan.o
 .ARM.attributes
                0x00001686       0x32 ./fcapplication/stm32h7xx_hal_flash_ex.o
 .ARM.attributes
                0x000016b8       0x32 ./fcapplication/stm32h7xx_hal_tim.o
 .ARM.attributes
                0x000016ea       0x32 ./fcapplication/stm32h7xx_hal_uart.o
 .ARM.attributes
                0x0000171c       0x32 ./fcapplication/stm32h7xx_hal_rcc.o
 .ARM.attributes
                0x0000174e       0x32 ./fcapplication/stm32h7xx_hal_rcc_ex.o
 .ARM.attributes
                0x00001780       0x32 ./fcapplication/stm32h7xx_hal_sram.o
 .ARM.attributes
                0x000017b2       0x32 ./fcapplication/stm32h7xx_hal_uart_ex.o
 .ARM.attributes
                0x000017e4       0x32 ./fcapplication/stm32h7xx_hal_dma_ex.o
 .ARM.attributes
                0x00001816       0x32 ./fcapplication/stm32h7xx_hal_tim_ex.o
 .ARM.attributes
                0x00001848       0x32 ./fcapplication/stm32h7xx_hal_i2c_ex.o
 .ARM.attributes
                0x0000187a       0x32 ./fcapplication/stm32h7xx_hal_pwr_ex.o
 .ARM.attributes
                0x000018ac       0x32 ./fcapplication/stm32h7xx_hal_iwdg.o
 .ARM.attributes
                0x000018de       0x37 ./fcapplication/stm32h7xx_hal_usart.o
 .ARM.attributes
                0x00001915       0x32 ./fcapplication/stm32h7xx_hal_rtc.o
 .ARM.attributes
                0x00001947       0x32 ./fcapplication/stm32h7xx_hal_rtc_ex.o
 .ARM.attributes
                0x00001979       0x32 ./fcapplication/stm32h7xx_hal_crc.o
 .ARM.attributes
                0x000019ab       0x32 ./fcapplication/stm32h7xx_hal_crc_ex.o
 .ARM.attributes
                0x000019dd       0x32 ./fcapplication/stm32h7xx_hal_adc.o
 .ARM.attributes
                0x00001a0f       0x32 ./fcapplication/stm32h7xx_hal_adc_ex.o
 .ARM.attributes
                0x00001a41       0x32 ./fcapplication/cmdgyrostim210.o
 .ARM.attributes
                0x00001a73       0x32 ./fcapplication/crc8ccitt.o
 .ARM.attributes
                0x00001aa5       0x32 ./fcapplication/gyrostim210.o
 .ARM.attributes
                0x00001ad7       0x32 ./fcapplication/cmdmagnetometer.o
 .ARM.attributes
                0x00001b09       0x32 ./fcapplication/magnetometermmc5883ma.o
 .ARM.attributes
                0x00001b3b       0x32 ./fcapplication/memoryoperators.o
 .ARM.attributes
                0x00001b6d       0x32 ./fcapplication/na_arraymath.o
 .ARM.attributes
                0x00001b9f       0x32 ./fcapplication/na_arrayxxmath.o
 .ARM.attributes
                0x00001bd1       0x32 ./fcapplication/na_statusstrs.o
 .ARM.attributes
                0x00001c03       0x32 ./fcapplication/ast_cna_runadcs.o
 .ARM.attributes
                0x00001c35       0x32 ./fcapplication/ast_gaintable.o
 .ARM.attributes
                0x00001c67       0x32 ./fcapplication/ast_gps_process.o
 .ARM.attributes
                0x00001c99       0x32 ./fcapplication/ast_mag_process.o
 .ARM.attributes
                0x00001ccb       0x37 ./fcapplication/ast_sens_process.o
 .ARM.attributes
                0x00001d02       0x32 ./fcapplication/astc_filter_derivedrate.o
 .ARM.attributes
                0x00001d34       0x32 ./fcapplication/cna_adcsconfig.o
 .ARM.attributes
                0x00001d66       0x32 ./fcapplication/cna_alphabetagamafilter.o
 .ARM.attributes
                0x00001d98       0x32 ./fcapplication/cna_attitudecontrolsystem.o
 .ARM.attributes
                0x00001dca       0x32 ./fcapplication/cna_dynamicmodel.o
 .ARM.attributes
                0x00001dfc       0x32 ./fcapplication/cna_kalman_startracker_imumultimeasbiased.o
 .ARM.attributes
                0x00001e2e       0x32 ./fcapplication/cna_kalman_sun_3gyro_3mag.o
 .ARM.attributes
                0x00001e60       0x32 ./fcapplication/cna_kalmanabstract.o
 .ARM.attributes
                0x00001e92       0x32 ./fcapplication/cna_measurementmodel.o
 .ARM.attributes
                0x00001ec4       0x32 ./fcapplication/cna_rwvelocity.o
 .ARM.attributes
                0x00001ef6       0x32 ./fcapplication/na_filter.o
 .ARM.attributes
                0x00001f28       0x32 ./fcapplication/na_igrfmodel.o
 .ARM.attributes
                0x00001f5a       0x32 ./fcapplication/na_refframe.o
 .ARM.attributes
                0x00001f8c       0x32 ./fcapplication/na_rigidbody.o
 .ARM.attributes
                0x00001fbe       0x32 ./fcapplication/na_sgp4.o
 .ARM.attributes
                0x00001ff0       0x32 ./fcapplication/na_sundirectionmodel.o
 .ARM.attributes
                0x00002022       0x32 ./fcapplication/na_time.o
 .ARM.attributes
                0x00002054       0x32 ./fcapplication/navigationdefines.o
 .ARM.attributes
                0x00002086       0x37 ./fcapplication/pch.o
 .ARM.attributes
                0x000020bd       0x37 ./fcapplication/sgp4ext.o
 .ARM.attributes
                0x000020f4       0x32 ./fcapplication/sgp4io.o
 .ARM.attributes
                0x00002126       0x32 ./fcapplication/sgp4unit.o
 .ARM.attributes
                0x00002158       0x32 ./fcapplication/patternfinder.o
 .ARM.attributes
                0x0000218a       0x32 ./fcapplication/canapp.o
 .ARM.attributes
                0x000021bc       0x32 ./fcapplication/rtcapp.o
 .ARM.attributes
                0x000021ee       0x32 ./fcapplication/uartapp.o
 .ARM.attributes
                0x00002220       0x32 ./fcapplication/i2cmasterapp.o
 .ARM.attributes
                0x00002252       0x32 ./fcapplication/spimasterapp.o
 .ARM.attributes
                0x00002284       0x32 ./fcapplication/flashapp.o
 .ARM.attributes
                0x000022b6       0x32 ./fcapplication/canclicommands.o
 .ARM.attributes
                0x000022e8       0x32 ./fcapplication/rtcbase.o
 .ARM.attributes
                0x0000231a       0x32 ./fcapplication/reqrepclienttransportcsp.o
 .ARM.attributes
                0x0000234c       0x32 ./fcapplication/reqrepservicetransportcsp.o
 .ARM.attributes
                0x0000237e       0x32 ./fcapplication/bcrw4.o
 .ARM.attributes
                0x000023b0       0x32 ./fcapplication/script_engine.o
 .ARM.attributes
                0x000023e2       0x32 ./fcapplication/cmdscriptengine.o
 .ARM.attributes
                0x00002414       0x32 ./fcapplication/semihostingoff.o
 .ARM.attributes
                0x00002446       0x32 ./fcapplication/cmdstartracker.o
 .ARM.attributes
                0x00002478       0x32 ./fcapplication/startrackernst1b.o
 .ARM.attributes
                0x000024aa       0x32 ./fcapplication/supervisor.o
 .ARM.attributes
                0x000024dc       0x32 ./fcapplication/telemetrycollectorbasic.o
 .ARM.attributes
                0x0000250e       0x32 ./fcapplication/telemetryhelpers.o
 .ARM.attributes
                0x00002540       0x32 ./fcapplication/telemetryservice.o
 .ARM.attributes
                0x00002572       0x32 ./fcapplication/timesyncclient.o
 .ARM.attributes
                0x000025a4       0x32 ./fcapplication/timesyncservice.o
 .ARM.attributes
                0x000025d6       0x32 ./fcapplication/timesynctask.o
 .ARM.attributes
                0x00002608       0x32 ./fcapplication/adc.o
 .ARM.attributes
                0x0000263a       0x32 ./fcapplication/systemclock.o
 .ARM.attributes
                0x0000266c       0x32 ./fcapplication/watchdog.o
 .ARM.attributes
                0x0000269e       0x32 ./fcapplication/gpio.o
 .ARM.attributes
                0x000026d0       0x32 ./fcapplication/can1.o
 .ARM.attributes
                0x00002702       0x32 ./fcapplication/can2.o
 .ARM.attributes
                0x00002734       0x32 ./fcapplication/candrivers.o
 .ARM.attributes
                0x00002766       0x32 ./fcapplication/uart4.o
 .ARM.attributes
                0x00002798       0x32 ./fcapplication/uart5.o
 .ARM.attributes
                0x000027ca       0x32 ./fcapplication/uart7.o
 .ARM.attributes
                0x000027fc       0x32 ./fcapplication/uart8.o
 .ARM.attributes
                0x0000282e       0x32 ./fcapplication/uart1.o
 .ARM.attributes
                0x00002860       0x32 ./fcapplication/uart3.o
 .ARM.attributes
                0x00002892       0x32 ./fcapplication/uart6.o
 .ARM.attributes
                0x000028c4       0x32 ./fcapplication/uartdrivers.o
 .ARM.attributes
                0x000028f6       0x32 ./fcapplication/i2c1.o
 .ARM.attributes
                0x00002928       0x32 ./fcapplication/i2c2.o
 .ARM.attributes
                0x0000295a       0x32 ./fcapplication/i2c3.o
 .ARM.attributes
                0x0000298c       0x32 ./fcapplication/i2c4.o
 .ARM.attributes
                0x000029be       0x32 ./fcapplication/i2cdrivers.o
 .ARM.attributes
                0x000029f0       0x32 ./fcapplication/spi1.o
 .ARM.attributes
                0x00002a22       0x32 ./fcapplication/spi2.o
 .ARM.attributes
                0x00002a54       0x32 ./fcapplication/spi4.o
 .ARM.attributes
                0x00002a86       0x32 ./fcapplication/spi5.o
 .ARM.attributes
                0x00002ab8       0x32 ./fcapplication/spidrivers.o
 .ARM.attributes
                0x00002aea       0x32 ./fcapplication/flash.o
 .ARM.attributes
                0x00002b1c       0x32 ./fcapplication/tim8.o
 .ARM.attributes
                0x00002b4e       0x32 ./fcapplication/tim2.o
 .ARM.attributes
                0x00002b80       0x32 ./fcapplication/timdrivers.o
 .ARM.attributes
                0x00002bb2       0x32 ./fcapplication/mcuoption.o
 .ARM.attributes
                0x00002be4       0x32 ./fcapplication/tim5.o
 .ARM.attributes
                0x00002c16       0x32 ./fcapplication/rtc.o
 .ARM.attributes
                0x00002c48       0x32 ./fcapplication/tim12.o
 .ARM.attributes
                0x00002c7a       0x32 ./fcapplication/rtcdrivers.o
 .ARM.attributes
                0x00002cac       0x32 ./fcapplication/cmdlvc.o
 .ARM.attributes
                0x00002cde       0x32 ./fcapplication/lvc.o
 .ARM.attributes
                0x00002d10       0x1e c:/program files (x86)/gnu arm embedded toolchain/9 2020-q2-update/bin/../lib/gcc/arm-none-eabi/9.3.1/thumb/v7e-m+dp/hard\libgcc.a(_arm_addsubdf3.o)
 .ARM.attributes
                0x00002d2e       0x1e c:/program files (x86)/gnu arm embedded toolchain/9 2020-q2-update/bin/../lib/gcc/arm-none-eabi/9.3.1/thumb/v7e-m+dp/hard\libgcc.a(_aeabi_ldivmod.o)
 .ARM.attributes
                0x00002d4c       0x1e c:/program files (x86)/gnu arm embedded toolchain/9 2020-q2-update/bin/../lib/gcc/arm-none-eabi/9.3.1/thumb/v7e-m+dp/hard\libgcc.a(_aeabi_uldivmod.o)
 .ARM.attributes
                0x00002d6a       0x32 c:/program files (x86)/gnu arm embedded toolchain/9 2020-q2-update/bin/../lib/gcc/arm-none-eabi/9.3.1/thumb/v7e-m+dp/hard\libgcc.a(_fixdfdi.o)
 .ARM.attributes
                0x00002d9c       0x32 c:/program files (x86)/gnu arm embedded toolchain/9 2020-q2-update/bin/../lib/gcc/arm-none-eabi/9.3.1/thumb/v7e-m+dp/hard\libgcc.a(_fixunsdfdi.o)
 .ARM.attributes
                0x00002dce       0x32 c:/program files (x86)/gnu arm embedded toolchain/9 2020-q2-update/bin/../lib/gcc/arm-none-eabi/9.3.1/thumb/v7e-m+dp/hard\libgcc.a(_udivmoddi4.o)
 .ARM.attributes
                0x00002e00       0x1e c:/program files (x86)/gnu arm embedded toolchain/9 2020-q2-update/bin/../lib/gcc/arm-none-eabi/9.3.1/thumb/v7e-m+dp/hard\libgcc.a(_dvmd_tls.o)
 .ARM.attributes
                0x00002e1e       0x32 c:/program files (x86)/gnu arm embedded toolchain/9 2020-q2-update/bin/../lib/gcc/arm-none-eabi/9.3.1/../../../../arm-none-eabi/lib/thumb/v7e-m+dp/hard\libc.a(lib_a-atexit.o)
 .ARM.attributes
                0x00002e50       0x32 c:/program files (x86)/gnu arm embedded toolchain/9 2020-q2-update/bin/../lib/gcc/arm-none-eabi/9.3.1/../../../../arm-none-eabi/lib/thumb/v7e-m+dp/hard\libc.a(lib_a-atof.o)
 .ARM.attributes
                0x00002e82       0x32 c:/program files (x86)/gnu arm embedded toolchain/9 2020-q2-update/bin/../lib/gcc/arm-none-eabi/9.3.1/../../../../arm-none-eabi/lib/thumb/v7e-m+dp/hard\libc.a(lib_a-atoi.o)
 .ARM.attributes
                0x00002eb4       0x32 c:/program files (x86)/gnu arm embedded toolchain/9 2020-q2-update/bin/../lib/gcc/arm-none-eabi/9.3.1/../../../../arm-none-eabi/lib/thumb/v7e-m+dp/hard\libc.a(lib_a-exit.o)
 .ARM.attributes
                0x00002ee6       0x30 c:/program files (x86)/gnu arm embedded toolchain/9 2020-q2-update/bin/../lib/gcc/arm-none-eabi/9.3.1/../../../../arm-none-eabi/lib/thumb/v7e-m+dp/hard\libc.a(lib_a-impure.o)
 .ARM.attributes
                0x00002f16       0x32 c:/program files (x86)/gnu arm embedded toolchain/9 2020-q2-update/bin/../lib/gcc/arm-none-eabi/9.3.1/../../../../arm-none-eabi/lib/thumb/v7e-m+dp/hard\libc.a(lib_a-init.o)
 .ARM.attributes
                0x00002f48       0x32 c:/program files (x86)/gnu arm embedded toolchain/9 2020-q2-update/bin/../lib/gcc/arm-none-eabi/9.3.1/../../../../arm-none-eabi/lib/thumb/v7e-m+dp/hard\libc.a(lib_a-isalpha.o)
 .ARM.attributes
                0x00002f7a       0x32 c:/program files (x86)/gnu arm embedded toolchain/9 2020-q2-update/bin/../lib/gcc/arm-none-eabi/9.3.1/../../../../arm-none-eabi/lib/thumb/v7e-m+dp/hard\libc.a(lib_a-isprint.o)
 .ARM.attributes
                0x00002fac       0x32 c:/program files (x86)/gnu arm embedded toolchain/9 2020-q2-update/bin/../lib/gcc/arm-none-eabi/9.3.1/../../../../arm-none-eabi/lib/thumb/v7e-m+dp/hard\libc.a(lib_a-lcltime.o)
 .ARM.attributes
                0x00002fde       0x32 c:/program files (x86)/gnu arm embedded toolchain/9 2020-q2-update/bin/../lib/gcc/arm-none-eabi/9.3.1/../../../../arm-none-eabi/lib/thumb/v7e-m+dp/hard\libc.a(lib_a-lcltime_r.o)
 .ARM.attributes
                0x00003010       0x32 c:/program files (x86)/gnu arm embedded toolchain/9 2020-q2-update/bin/../lib/gcc/arm-none-eabi/9.3.1/../../../../arm-none-eabi/lib/thumb/v7e-m+dp/hard\libc.a(lib_a-memcmp.o)
 .ARM.attributes
                0x00003042       0x1c c:/program files (x86)/gnu arm embedded toolchain/9 2020-q2-update/bin/../lib/gcc/arm-none-eabi/9.3.1/../../../../arm-none-eabi/lib/thumb/v7e-m+dp/hard\libc.a(lib_a-memcpy.o)
 .ARM.attributes
                0x0000305e       0x32 c:/program files (x86)/gnu arm embedded toolchain/9 2020-q2-update/bin/../lib/gcc/arm-none-eabi/9.3.1/../../../../arm-none-eabi/lib/thumb/v7e-m+dp/hard\libc.a(lib_a-memmove.o)
 .ARM.attributes
                0x00003090       0x32 c:/program files (x86)/gnu arm embedded toolchain/9 2020-q2-update/bin/../lib/gcc/arm-none-eabi/9.3.1/../../../../arm-none-eabi/lib/thumb/v7e-m+dp/hard\libc.a(lib_a-memset.o)
 .ARM.attributes
                0x000030c2       0x32 c:/program files (x86)/gnu arm embedded toolchain/9 2020-q2-update/bin/../lib/gcc/arm-none-eabi/9.3.1/../../../../arm-none-eabi/lib/thumb/v7e-m+dp/hard\libc.a(lib_a-mktime.o)
 .ARM.attributes
                0x000030f4       0x30 c:/program files (x86)/gnu arm embedded toolchain/9 2020-q2-update/bin/../lib/gcc/arm-none-eabi/9.3.1/../../../../arm-none-eabi/lib/thumb/v7e-m+dp/hard\libc.a(lib_a-month_lengths.o)
 .ARM.attributes
                0x00003124       0x32 c:/program files (x86)/gnu arm embedded toolchain/9 2020-q2-update/bin/../lib/gcc/arm-none-eabi/9.3.1/../../../../arm-none-eabi/lib/thumb/v7e-m+dp/hard\libc.a(lib_a-printf.o)
 .ARM.attributes
                0x00003156       0x32 c:/program files (x86)/gnu arm embedded toolchain/9 2020-q2-update/bin/../lib/gcc/arm-none-eabi/9.3.1/../../../../arm-none-eabi/lib/thumb/v7e-m+dp/hard\libc.a(lib_a-rand.o)
 .ARM.attributes
                0x00003188       0x32 c:/program files (x86)/gnu arm embedded toolchain/9 2020-q2-update/bin/../lib/gcc/arm-none-eabi/9.3.1/../../../../arm-none-eabi/lib/thumb/v7e-m+dp/hard\libc.a(lib_a-s_nan.o)
 .ARM.attributes
                0x000031ba       0x32 c:/program files (x86)/gnu arm embedded toolchain/9 2020-q2-update/bin/../lib/gcc/arm-none-eabi/9.3.1/../../../../arm-none-eabi/lib/thumb/v7e-m+dp/hard\libc.a(lib_a-snprintf.o)
 .ARM.attributes
                0x000031ec       0x32 c:/program files (x86)/gnu arm embedded toolchain/9 2020-q2-update/bin/../lib/gcc/arm-none-eabi/9.3.1/../../../../arm-none-eabi/lib/thumb/v7e-m+dp/hard\libc.a(lib_a-sprintf.o)
 .ARM.attributes
                0x0000321e       0x32 c:/program files (x86)/gnu arm embedded toolchain/9 2020-q2-update/bin/../lib/gcc/arm-none-eabi/9.3.1/../../../../arm-none-eabi/lib/thumb/v7e-m+dp/hard\libc.a(lib_a-sscanf.o)
 .ARM.attributes
                0x00003250       0x32 c:/program files (x86)/gnu arm embedded toolchain/9 2020-q2-update/bin/../lib/gcc/arm-none-eabi/9.3.1/../../../../arm-none-eabi/lib/thumb/v7e-m+dp/hard\libc.a(lib_a-stdio.o)
 .ARM.attributes
                0x00003282       0x32 c:/program files (x86)/gnu arm embedded toolchain/9 2020-q2-update/bin/../lib/gcc/arm-none-eabi/9.3.1/../../../../arm-none-eabi/lib/thumb/v7e-m+dp/hard\libc.a(lib_a-strcat.o)
 .ARM.attributes
                0x000032b4       0x32 c:/program files (x86)/gnu arm embedded toolchain/9 2020-q2-update/bin/../lib/gcc/arm-none-eabi/9.3.1/../../../../arm-none-eabi/lib/thumb/v7e-m+dp/hard\libc.a(lib_a-strchr.o)
 .ARM.attributes
                0x000032e6       0x1c c:/program files (x86)/gnu arm embedded toolchain/9 2020-q2-update/bin/../lib/gcc/arm-none-eabi/9.3.1/../../../../arm-none-eabi/lib/thumb/v7e-m+dp/hard\libc.a(lib_a-strcmp.o)
 .ARM.attributes
                0x00003302       0x32 c:/program files (x86)/gnu arm embedded toolchain/9 2020-q2-update/bin/../lib/gcc/arm-none-eabi/9.3.1/../../../../arm-none-eabi/lib/thumb/v7e-m+dp/hard\libc.a(lib_a-strcpy.o)
 .ARM.attributes
                0x00003334       0x1c c:/program files (x86)/gnu arm embedded toolchain/9 2020-q2-update/bin/../lib/gcc/arm-none-eabi/9.3.1/../../../../arm-none-eabi/lib/thumb/v7e-m+dp/hard\libc.a(lib_a-strlen.o)
 .ARM.attributes
                0x00003350       0x32 c:/program files (x86)/gnu arm embedded toolchain/9 2020-q2-update/bin/../lib/gcc/arm-none-eabi/9.3.1/../../../../arm-none-eabi/lib/thumb/v7e-m+dp/hard\libc.a(lib_a-strncat.o)
 .ARM.attributes
                0x00003382       0x32 c:/program files (x86)/gnu arm embedded toolchain/9 2020-q2-update/bin/../lib/gcc/arm-none-eabi/9.3.1/../../../../arm-none-eabi/lib/thumb/v7e-m+dp/hard\libc.a(lib_a-strncmp.o)
 .ARM.attributes
                0x000033b4       0x32 c:/program files (x86)/gnu arm embedded toolchain/9 2020-q2-update/bin/../lib/gcc/arm-none-eabi/9.3.1/../../../../arm-none-eabi/lib/thumb/v7e-m+dp/hard\libc.a(lib_a-strncpy.o)
 .ARM.attributes
                0x000033e6       0x32 c:/program files (x86)/gnu arm embedded toolchain/9 2020-q2-update/bin/../lib/gcc/arm-none-eabi/9.3.1/../../../../arm-none-eabi/lib/thumb/v7e-m+dp/hard\libc.a(lib_a-strtod.o)
 .ARM.attributes
                0x00003418       0x32 c:/program files (x86)/gnu arm embedded toolchain/9 2020-q2-update/bin/../lib/gcc/arm-none-eabi/9.3.1/../../../../arm-none-eabi/lib/thumb/v7e-m+dp/hard\libc.a(lib_a-strtol.o)
 .ARM.attributes
                0x0000344a       0x32 c:/program files (x86)/gnu arm embedded toolchain/9 2020-q2-update/bin/../lib/gcc/arm-none-eabi/9.3.1/../../../../arm-none-eabi/lib/thumb/v7e-m+dp/hard\libc.a(lib_a-strtoul.o)
 .ARM.attributes
                0x0000347c       0x32 c:/program files (x86)/gnu arm embedded toolchain/9 2020-q2-update/bin/../lib/gcc/arm-none-eabi/9.3.1/../../../../arm-none-eabi/lib/thumb/v7e-m+dp/hard\libc.a(lib_a-strtoull.o)
 .ARM.attributes
                0x000034ae       0x32 c:/program files (x86)/gnu arm embedded toolchain/9 2020-q2-update/bin/../lib/gcc/arm-none-eabi/9.3.1/../../../../arm-none-eabi/lib/thumb/v7e-m+dp/hard\libc.a(lib_a-svfprintf.o)
 .ARM.attributes
                0x000034e0       0x32 c:/program files (x86)/gnu arm embedded toolchain/9 2020-q2-update/bin/../lib/gcc/arm-none-eabi/9.3.1/../../../../arm-none-eabi/lib/thumb/v7e-m+dp/hard\libc.a(lib_a-svfscanf.o)
 .ARM.attributes
                0x00003512       0x32 c:/program files (x86)/gnu arm embedded toolchain/9 2020-q2-update/bin/../lib/gcc/arm-none-eabi/9.3.1/../../../../arm-none-eabi/lib/thumb/v7e-m+dp/hard\libc.a(lib_a-tolower.o)
 .ARM.attributes
                0x00003544       0x32 c:/program files (x86)/gnu arm embedded toolchain/9 2020-q2-update/bin/../lib/gcc/arm-none-eabi/9.3.1/../../../../arm-none-eabi/lib/thumb/v7e-m+dp/hard\libc.a(lib_a-tzcalc_limits.o)
 .ARM.attributes
                0x00003576       0x32 c:/program files (x86)/gnu arm embedded toolchain/9 2020-q2-update/bin/../lib/gcc/arm-none-eabi/9.3.1/../../../../arm-none-eabi/lib/thumb/v7e-m+dp/hard\libc.a(lib_a-tzlock.o)
 .ARM.attributes
                0x000035a8       0x32 c:/program files (x86)/gnu arm embedded toolchain/9 2020-q2-update/bin/../lib/gcc/arm-none-eabi/9.3.1/../../../../arm-none-eabi/lib/thumb/v7e-m+dp/hard\libc.a(lib_a-tzset.o)
 .ARM.attributes
                0x000035da       0x32 c:/program files (x86)/gnu arm embedded toolchain/9 2020-q2-update/bin/../lib/gcc/arm-none-eabi/9.3.1/../../../../arm-none-eabi/lib/thumb/v7e-m+dp/hard\libc.a(lib_a-tzset_r.o)
 .ARM.attributes
                0x0000360c       0x30 c:/program files (x86)/gnu arm embedded toolchain/9 2020-q2-update/bin/../lib/gcc/arm-none-eabi/9.3.1/../../../../arm-none-eabi/lib/thumb/v7e-m+dp/hard\libc.a(lib_a-tzvars.o)
 .ARM.attributes
                0x0000363c       0x32 c:/program files (x86)/gnu arm embedded toolchain/9 2020-q2-update/bin/../lib/gcc/arm-none-eabi/9.3.1/../../../../arm-none-eabi/lib/thumb/v7e-m+dp/hard\libc.a(lib_a-vfprintf.o)
 .ARM.attributes
                0x0000366e       0x32 c:/program files (x86)/gnu arm embedded toolchain/9 2020-q2-update/bin/../lib/gcc/arm-none-eabi/9.3.1/../../../../arm-none-eabi/lib/thumb/v7e-m+dp/hard\libc.a(lib_a-vsnprintf.o)
 .ARM.attributes
                0x000036a0       0x32 c:/program files (x86)/gnu arm embedded toolchain/9 2020-q2-update/bin/../lib/gcc/arm-none-eabi/9.3.1/../../../../arm-none-eabi/lib/thumb/v7e-m+dp/hard\libc.a(lib_a-writer.o)
 .ARM.attributes
                0x000036d2       0x32 c:/program files (x86)/gnu arm embedded toolchain/9 2020-q2-update/bin/../lib/gcc/arm-none-eabi/9.3.1/../../../../arm-none-eabi/lib/thumb/v7e-m+dp/hard\libc.a(lib_a-wsetup.o)
 .ARM.attributes
                0x00003704       0x32 c:/program files (x86)/gnu arm embedded toolchain/9 2020-q2-update/bin/../lib/gcc/arm-none-eabi/9.3.1/../../../../arm-none-eabi/lib/thumb/v7e-m+dp/hard\libc.a(lib_a-__atexit.o)
 .ARM.attributes
                0x00003736       0x32 c:/program files (x86)/gnu arm embedded toolchain/9 2020-q2-update/bin/../lib/gcc/arm-none-eabi/9.3.1/../../../../arm-none-eabi/lib/thumb/v7e-m+dp/hard\libc.a(lib_a-__call_atexit.o)
 .ARM.attributes
                0x00003768       0x32 c:/program files (x86)/gnu arm embedded toolchain/9 2020-q2-update/bin/../lib/gcc/arm-none-eabi/9.3.1/../../../../arm-none-eabi/lib/thumb/v7e-m+dp/hard\libc.a(lib_a-closer.o)
 .ARM.attributes
                0x0000379a       0x30 c:/program files (x86)/gnu arm embedded toolchain/9 2020-q2-update/bin/../lib/gcc/arm-none-eabi/9.3.1/../../../../arm-none-eabi/lib/thumb/v7e-m+dp/hard\libc.a(lib_a-ctype_.o)
 .ARM.attributes
                0x000037ca       0x32 c:/program files (x86)/gnu arm embedded toolchain/9 2020-q2-update/bin/../lib/gcc/arm-none-eabi/9.3.1/../../../../arm-none-eabi/lib/thumb/v7e-m+dp/hard\libc.a(lib_a-div.o)
 .ARM.attributes
                0x000037fc       0x32 c:/program files (x86)/gnu arm embedded toolchain/9 2020-q2-update/bin/../lib/gcc/arm-none-eabi/9.3.1/../../../../arm-none-eabi/lib/thumb/v7e-m+dp/hard\libc.a(lib_a-dtoa.o)
 .ARM.attributes
                0x0000382e       0x32 c:/program files (x86)/gnu arm embedded toolchain/9 2020-q2-update/bin/../lib/gcc/arm-none-eabi/9.3.1/../../../../arm-none-eabi/lib/thumb/v7e-m+dp/hard\libc.a(lib_a-errno.o)
 .ARM.attributes
                0x00003860       0x32 c:/program files (x86)/gnu arm embedded toolchain/9 2020-q2-update/bin/../lib/gcc/arm-none-eabi/9.3.1/../../../../arm-none-eabi/lib/thumb/v7e-m+dp/hard\libc.a(lib_a-fflush.o)
 .ARM.attributes
                0x00003892       0x32 c:/program files (x86)/gnu arm embedded toolchain/9 2020-q2-update/bin/../lib/gcc/arm-none-eabi/9.3.1/../../../../arm-none-eabi/lib/thumb/v7e-m+dp/hard\libc.a(lib_a-findfp.o)
 .ARM.attributes
                0x000038c4       0x32 c:/program files (x86)/gnu arm embedded toolchain/9 2020-q2-update/bin/../lib/gcc/arm-none-eabi/9.3.1/../../../../arm-none-eabi/lib/thumb/v7e-m+dp/hard\libc.a(lib_a-fini.o)
 .ARM.attributes
                0x000038f6       0x32 c:/program files (x86)/gnu arm embedded toolchain/9 2020-q2-update/bin/../lib/gcc/arm-none-eabi/9.3.1/../../../../arm-none-eabi/lib/thumb/v7e-m+dp/hard\libc.a(lib_a-freer.o)
 .ARM.attributes
                0x00003928       0x32 c:/program files (x86)/gnu arm embedded toolchain/9 2020-q2-update/bin/../lib/gcc/arm-none-eabi/9.3.1/../../../../arm-none-eabi/lib/thumb/v7e-m+dp/hard\libc.a(lib_a-fwalk.o)
 .ARM.attributes
                0x0000395a       0x32 c:/program files (x86)/gnu arm embedded toolchain/9 2020-q2-update/bin/../lib/gcc/arm-none-eabi/9.3.1/../../../../arm-none-eabi/lib/thumb/v7e-m+dp/hard\libc.a(lib_a-gdtoa-gethex.o)
 .ARM.attributes
                0x0000398c       0x32 c:/program files (x86)/gnu arm embedded toolchain/9 2020-q2-update/bin/../lib/gcc/arm-none-eabi/9.3.1/../../../../arm-none-eabi/lib/thumb/v7e-m+dp/hard\libc.a(lib_a-gdtoa-hexnan.o)
 .ARM.attributes
                0x000039be       0x32 c:/program files (x86)/gnu arm embedded toolchain/9 2020-q2-update/bin/../lib/gcc/arm-none-eabi/9.3.1/../../../../arm-none-eabi/lib/thumb/v7e-m+dp/hard\libc.a(lib_a-getenv_r.o)
 .ARM.attributes
                0x000039f0       0x32 c:/program files (x86)/gnu arm embedded toolchain/9 2020-q2-update/bin/../lib/gcc/arm-none-eabi/9.3.1/../../../../arm-none-eabi/lib/thumb/v7e-m+dp/hard\libc.a(lib_a-gettzinfo.o)
 .ARM.attributes
                0x00003a22       0x32 c:/program files (x86)/gnu arm embedded toolchain/9 2020-q2-update/bin/../lib/gcc/arm-none-eabi/9.3.1/../../../../arm-none-eabi/lib/thumb/v7e-m+dp/hard\libc.a(lib_a-gmtime_r.o)
 .ARM.attributes
                0x00003a54       0x32 c:/program files (x86)/gnu arm embedded toolchain/9 2020-q2-update/bin/../lib/gcc/arm-none-eabi/9.3.1/../../../../arm-none-eabi/lib/thumb/v7e-m+dp/hard\libc.a(lib_a-iswspace.o)
 .ARM.attributes
                0x00003a86       0x32 c:/program files (x86)/gnu arm embedded toolchain/9 2020-q2-update/bin/../lib/gcc/arm-none-eabi/9.3.1/../../../../arm-none-eabi/lib/thumb/v7e-m+dp/hard\libc.a(lib_a-iswspace_l.o)
 .ARM.attributes
                0x00003ab8       0x32 c:/program files (x86)/gnu arm embedded toolchain/9 2020-q2-update/bin/../lib/gcc/arm-none-eabi/9.3.1/../../../../arm-none-eabi/lib/thumb/v7e-m+dp/hard\libc.a(lib_a-lnumeric.o)
 .ARM.attributes
                0x00003aea       0x32 c:/program files (x86)/gnu arm embedded toolchain/9 2020-q2-update/bin/../lib/gcc/arm-none-eabi/9.3.1/../../../../arm-none-eabi/lib/thumb/v7e-m+dp/hard\libc.a(lib_a-locale.o)
 .ARM.attributes
                0x00003b1c       0x32 c:/program files (x86)/gnu arm embedded toolchain/9 2020-q2-update/bin/../lib/gcc/arm-none-eabi/9.3.1/../../../../arm-none-eabi/lib/thumb/v7e-m+dp/hard\libc.a(lib_a-localeconv.o)
 .ARM.attributes
                0x00003b4e       0x32 c:/program files (x86)/gnu arm embedded toolchain/9 2020-q2-update/bin/../lib/gcc/arm-none-eabi/9.3.1/../../../../arm-none-eabi/lib/thumb/v7e-m+dp/hard\libc.a(lib_a-lock.o)
 .ARM.attributes
                0x00003b80       0x32 c:/program files (x86)/gnu arm embedded toolchain/9 2020-q2-update/bin/../lib/gcc/arm-none-eabi/9.3.1/../../../../arm-none-eabi/lib/thumb/v7e-m+dp/hard\libc.a(lib_a-lseekr.o)
 .ARM.attributes
                0x00003bb2       0x32 c:/program files (x86)/gnu arm embedded toolchain/9 2020-q2-update/bin/../lib/gcc/arm-none-eabi/9.3.1/../../../../arm-none-eabi/lib/thumb/v7e-m+dp/hard\libc.a(lib_a-makebuf.o)
 .ARM.attributes
                0x00003be4       0x32 c:/program files (x86)/gnu arm embedded toolchain/9 2020-q2-update/bin/../lib/gcc/arm-none-eabi/9.3.1/../../../../arm-none-eabi/lib/thumb/v7e-m+dp/hard\libc.a(lib_a-malloc.o)
 .ARM.attributes
                0x00003c16       0x32 c:/program files (x86)/gnu arm embedded toolchain/9 2020-q2-update/bin/../lib/gcc/arm-none-eabi/9.3.1/../../../../arm-none-eabi/lib/thumb/v7e-m+dp/hard\libc.a(lib_a-mallocr.o)
 .ARM.attributes
                0x00003c48       0x32 c:/program files (x86)/gnu arm embedded toolchain/9 2020-q2-update/bin/../lib/gcc/arm-none-eabi/9.3.1/../../../../arm-none-eabi/lib/thumb/v7e-m+dp/hard\libc.a(lib_a-mbrtowc.o)
 .ARM.attributes
                0x00003c7a       0x32 c:/program files (x86)/gnu arm embedded toolchain/9 2020-q2-update/bin/../lib/gcc/arm-none-eabi/9.3.1/../../../../arm-none-eabi/lib/thumb/v7e-m+dp/hard\libc.a(lib_a-mbtowc_r.o)
 .ARM.attributes
                0x00003cac       0x1c c:/program files (x86)/gnu arm embedded toolchain/9 2020-q2-update/bin/../lib/gcc/arm-none-eabi/9.3.1/../../../../arm-none-eabi/lib/thumb/v7e-m+dp/hard\libc.a(lib_a-memchr.o)
 .ARM.attributes
                0x00003cc8       0x32 c:/program files (x86)/gnu arm embedded toolchain/9 2020-q2-update/bin/../lib/gcc/arm-none-eabi/9.3.1/../../../../arm-none-eabi/lib/thumb/v7e-m+dp/hard\libc.a(lib_a-mlock.o)
 .ARM.attributes
                0x00003cfa       0x32 c:/program files (x86)/gnu arm embedded toolchain/9 2020-q2-update/bin/../lib/gcc/arm-none-eabi/9.3.1/../../../../arm-none-eabi/lib/thumb/v7e-m+dp/hard\libc.a(lib_a-mprec.o)
 .ARM.attributes
                0x00003d2c       0x32 c:/program files (x86)/gnu arm embedded toolchain/9 2020-q2-update/bin/../lib/gcc/arm-none-eabi/9.3.1/../../../../arm-none-eabi/lib/thumb/v7e-m+dp/hard\libc.a(lib_a-readr.o)
 .ARM.attributes
                0x00003d5e       0x32 c:/program files (x86)/gnu arm embedded toolchain/9 2020-q2-update/bin/../lib/gcc/arm-none-eabi/9.3.1/../../../../arm-none-eabi/lib/thumb/v7e-m+dp/hard\libc.a(lib_a-realloc.o)
 .ARM.attributes
                0x00003d90       0x32 c:/program files (x86)/gnu arm embedded toolchain/9 2020-q2-update/bin/../lib/gcc/arm-none-eabi/9.3.1/../../../../arm-none-eabi/lib/thumb/v7e-m+dp/hard\libc.a(lib_a-reallocr.o)
 .ARM.attributes
                0x00003dc2       0x32 c:/program files (x86)/gnu arm embedded toolchain/9 2020-q2-update/bin/../lib/gcc/arm-none-eabi/9.3.1/../../../../arm-none-eabi/lib/thumb/v7e-m+dp/hard\libc.a(lib_a-reent.o)
 .ARM.attributes
                0x00003df4       0x32 c:/program files (x86)/gnu arm embedded toolchain/9 2020-q2-update/bin/../lib/gcc/arm-none-eabi/9.3.1/../../../../arm-none-eabi/lib/thumb/v7e-m+dp/hard\libc.a(lib_a-s_frexp.o)
 .ARM.attributes
                0x00003e26       0x32 c:/program files (x86)/gnu arm embedded toolchain/9 2020-q2-update/bin/../lib/gcc/arm-none-eabi/9.3.1/../../../../arm-none-eabi/lib/thumb/v7e-m+dp/hard\libc.a(lib_a-sbrkr.o)
 .ARM.attributes
                0x00003e58       0x32 c:/program files (x86)/gnu arm embedded toolchain/9 2020-q2-update/bin/../lib/gcc/arm-none-eabi/9.3.1/../../../../arm-none-eabi/lib/thumb/v7e-m+dp/hard\libc.a(lib_a-sccl.o)
 .ARM.attributes
                0x00003e8a       0x32 c:/program files (x86)/gnu arm embedded toolchain/9 2020-q2-update/bin/../lib/gcc/arm-none-eabi/9.3.1/../../../../arm-none-eabi/lib/thumb/v7e-m+dp/hard\libc.a(lib_a-sf_nan.o)
 .ARM.attributes
                0x00003ebc       0x32 c:/program files (x86)/gnu arm embedded toolchain/9 2020-q2-update/bin/../lib/gcc/arm-none-eabi/9.3.1/../../../../arm-none-eabi/lib/thumb/v7e-m+dp/hard\libc.a(lib_a-siscanf.o)
 .ARM.attributes
                0x00003eee       0x32 c:/program files (x86)/gnu arm embedded toolchain/9 2020-q2-update/bin/../lib/gcc/arm-none-eabi/9.3.1/../../../../arm-none-eabi/lib/thumb/v7e-m+dp/hard\libc.a(lib_a-strtoll.o)
 .ARM.attributes
                0x00003f20       0x32 c:/program files (x86)/gnu arm embedded toolchain/9 2020-q2-update/bin/../lib/gcc/arm-none-eabi/9.3.1/../../../../arm-none-eabi/lib/thumb/v7e-m+dp/hard\libc.a(lib_a-svfiprintf.o)
 .ARM.attributes
                0x00003f52       0x32 c:/program files (x86)/gnu arm embedded toolchain/9 2020-q2-update/bin/../lib/gcc/arm-none-eabi/9.3.1/../../../../arm-none-eabi/lib/thumb/v7e-m+dp/hard\libc.a(lib_a-svfiscanf.o)
 .ARM.attributes
                0x00003f84       0x32 c:/program files (x86)/gnu arm embedded toolchain/9 2020-q2-update/bin/../lib/gcc/arm-none-eabi/9.3.1/../../../../arm-none-eabi/lib/thumb/v7e-m+dp/hard\libc.a(lib_a-ungetc.o)
 .ARM.attributes
                0x00003fb6       0x32 c:/program files (x86)/gnu arm embedded toolchain/9 2020-q2-update/bin/../lib/gcc/arm-none-eabi/9.3.1/../../../../arm-none-eabi/lib/thumb/v7e-m+dp/hard\libc.a(lib_a-vfiprintf.o)
 .ARM.attributes
                0x00003fe8       0x32 c:/program files (x86)/gnu arm embedded toolchain/9 2020-q2-update/bin/../lib/gcc/arm-none-eabi/9.3.1/../../../../arm-none-eabi/lib/thumb/v7e-m+dp/hard\libc.a(lib_a-wctomb_r.o)
 .ARM.attributes
                0x0000401a       0x32 c:/program files (x86)/gnu arm embedded toolchain/9 2020-q2-update/bin/../lib/gcc/arm-none-eabi/9.3.1/../../../../arm-none-eabi/lib/thumb/v7e-m+dp/hard\libc.a(lib_a-assert.o)
 .ARM.attributes
                0x0000404c       0x32 c:/program files (x86)/gnu arm embedded toolchain/9 2020-q2-update/bin/../lib/gcc/arm-none-eabi/9.3.1/../../../../arm-none-eabi/lib/thumb/v7e-m+dp/hard\libc.a(lib_a-callocr.o)
 .ARM.attributes
                0x0000407e       0x30 c:/program files (x86)/gnu arm embedded toolchain/9 2020-q2-update/bin/../lib/gcc/arm-none-eabi/9.3.1/../../../../arm-none-eabi/lib/thumb/v7e-m+dp/hard\libc.a(lib_a-environ.o)
 .ARM.attributes
                0x000040ae       0x32 c:/program files (x86)/gnu arm embedded toolchain/9 2020-q2-update/bin/../lib/gcc/arm-none-eabi/9.3.1/../../../../arm-none-eabi/lib/thumb/v7e-m+dp/hard\libc.a(lib_a-envlock.o)
 .ARM.attributes
                0x000040e0       0x32 c:/program files (x86)/gnu arm embedded toolchain/9 2020-q2-update/bin/../lib/gcc/arm-none-eabi/9.3.1/../../../../arm-none-eabi/lib/thumb/v7e-m+dp/hard\libc.a(lib_a-fclose.o)
 .ARM.attributes
                0x00004112       0x32 c:/program files (x86)/gnu arm embedded toolchain/9 2020-q2-update/bin/../lib/gcc/arm-none-eabi/9.3.1/../../../../arm-none-eabi/lib/thumb/v7e-m+dp/hard\libc.a(lib_a-fiprintf.o)
 .ARM.attributes
                0x00004144       0x32 c:/program files (x86)/gnu arm embedded toolchain/9 2020-q2-update/bin/../lib/gcc/arm-none-eabi/9.3.1/../../../../arm-none-eabi/lib/thumb/v7e-m+dp/hard\libc.a(lib_a-fputwc.o)
 .ARM.attributes
                0x00004176       0x32 c:/program files (x86)/gnu arm embedded toolchain/9 2020-q2-update/bin/../lib/gcc/arm-none-eabi/9.3.1/../../../../arm-none-eabi/lib/thumb/v7e-m+dp/hard\libc.a(lib_a-fstatr.o)
 .ARM.attributes
                0x000041a8       0x32 c:/program files (x86)/gnu arm embedded toolchain/9 2020-q2-update/bin/../lib/gcc/arm-none-eabi/9.3.1/../../../../arm-none-eabi/lib/thumb/v7e-m+dp/hard\libc.a(lib_a-fvwrite.o)
 .ARM.attributes
                0x000041da       0x32 c:/program files (x86)/gnu arm embedded toolchain/9 2020-q2-update/bin/../lib/gcc/arm-none-eabi/9.3.1/../../../../arm-none-eabi/lib/thumb/v7e-m+dp/hard\libc.a(lib_a-isattyr.o)
 .ARM.attributes
                0x0000420c       0x32 c:/program files (x86)/gnu arm embedded toolchain/9 2020-q2-update/bin/../lib/gcc/arm-none-eabi/9.3.1/../../../../arm-none-eabi/lib/thumb/v7e-m+dp/hard\libc.a(lib_a-wbuf.o)
 .ARM.attributes
                0x0000423e       0x32 c:/program files (x86)/gnu arm embedded toolchain/9 2020-q2-update/bin/../lib/gcc/arm-none-eabi/9.3.1/../../../../arm-none-eabi/lib/thumb/v7e-m+dp/hard\libc.a(lib_a-wcrtomb.o)
 .ARM.attributes
                0x00004270       0x32 c:/program files (x86)/gnu arm embedded toolchain/9 2020-q2-update/bin/../lib/gcc/arm-none-eabi/9.3.1/../../../../arm-none-eabi/lib/thumb/v7e-m+dp/hard\libc.a(lib_a-abort.o)
 .ARM.attributes
                0x000042a2       0x32 c:/program files (x86)/gnu arm embedded toolchain/9 2020-q2-update/bin/../lib/gcc/arm-none-eabi/9.3.1/../../../../arm-none-eabi/lib/thumb/v7e-m+dp/hard\libc.a(lib_a-signal.o)
 .ARM.attributes
                0x000042d4       0x32 c:/program files (x86)/gnu arm embedded toolchain/9 2020-q2-update/bin/../lib/gcc/arm-none-eabi/9.3.1/../../../../arm-none-eabi/lib/thumb/v7e-m+dp/hard\libc.a(lib_a-signalr.o)
 .ARM.attributes
                0x00004306       0x32 c:/program files (x86)/gnu arm embedded toolchain/9 2020-q2-update/bin/../lib/gcc/arm-none-eabi/9.3.1/../../../../arm-none-eabi/lib/thumb/v7e-m+dp/hard\libnosys.a(close.o)
 .ARM.attributes
                0x00004338       0x32 c:/program files (x86)/gnu arm embedded toolchain/9 2020-q2-update/bin/../lib/gcc/arm-none-eabi/9.3.1/../../../../arm-none-eabi/lib/thumb/v7e-m+dp/hard\libnosys.a(fstat.o)
 .ARM.attributes
                0x0000436a       0x32 c:/program files (x86)/gnu arm embedded toolchain/9 2020-q2-update/bin/../lib/gcc/arm-none-eabi/9.3.1/../../../../arm-none-eabi/lib/thumb/v7e-m+dp/hard\libnosys.a(getpid.o)
 .ARM.attributes
                0x0000439c       0x32 c:/program files (x86)/gnu arm embedded toolchain/9 2020-q2-update/bin/../lib/gcc/arm-none-eabi/9.3.1/../../../../arm-none-eabi/lib/thumb/v7e-m+dp/hard\libnosys.a(isatty.o)
 .ARM.attributes
                0x000043ce       0x32 c:/program files (x86)/gnu arm embedded toolchain/9 2020-q2-update/bin/../lib/gcc/arm-none-eabi/9.3.1/../../../../arm-none-eabi/lib/thumb/v7e-m+dp/hard\libnosys.a(kill.o)
 .ARM.attributes
                0x00004400       0x32 c:/program files (x86)/gnu arm embedded toolchain/9 2020-q2-update/bin/../lib/gcc/arm-none-eabi/9.3.1/../../../../arm-none-eabi/lib/thumb/v7e-m+dp/hard\libnosys.a(lseek.o)
 .ARM.attributes
                0x00004432       0x32 c:/program files (x86)/gnu arm embedded toolchain/9 2020-q2-update/bin/../lib/gcc/arm-none-eabi/9.3.1/../../../../arm-none-eabi/lib/thumb/v7e-m+dp/hard\libnosys.a(read.o)
 .ARM.attributes
                0x00004464       0x32 c:/program files (x86)/gnu arm embedded toolchain/9 2020-q2-update/bin/../lib/gcc/arm-none-eabi/9.3.1/../../../../arm-none-eabi/lib/thumb/v7e-m+dp/hard\libnosys.a(sbrk.o)
 .ARM.attributes
                0x00004496       0x32 c:/program files (x86)/gnu arm embedded toolchain/9 2020-q2-update/bin/../lib/gcc/arm-none-eabi/9.3.1/../../../../arm-none-eabi/lib/thumb/v7e-m+dp/hard\libnosys.a(write.o)
 .ARM.attributes
                0x000044c8       0x32 c:/program files (x86)/gnu arm embedded toolchain/9 2020-q2-update/bin/../lib/gcc/arm-none-eabi/9.3.1/../../../../arm-none-eabi/lib/thumb/v7e-m+dp/hard\libnosys.a(_exit.o)
 .ARM.attributes
                0x000044fa       0x30 c:/program files (x86)/gnu arm embedded toolchain/9 2020-q2-update/bin/../lib/gcc/arm-none-eabi/9.3.1/thumb/v7e-m+dp/hard/crtend.o
 .ARM.attributes
                0x0000452a       0x1e c:/program files (x86)/gnu arm embedded toolchain/9 2020-q2-update/bin/../lib/gcc/arm-none-eabi/9.3.1/thumb/v7e-m+dp/hard/crtn.o
OUTPUT(./fcApplication/fcApplication.elf elf32-littlearm)
LOAD linker stubs
LOAD c:/program files (x86)/gnu arm embedded toolchain/9 2020-q2-update/bin/../lib/gcc/arm-none-eabi/9.3.1/../../../../arm-none-eabi/lib/thumb/v7e-m+dp/hard\libc.a
LOAD c:/program files (x86)/gnu arm embedded toolchain/9 2020-q2-update/bin/../lib/gcc/arm-none-eabi/9.3.1/../../../../arm-none-eabi/lib/thumb/v7e-m+dp/hard\libm.a
LOAD c:/program files (x86)/gnu arm embedded toolchain/9 2020-q2-update/bin/../lib/gcc/arm-none-eabi/9.3.1/thumb/v7e-m+dp/hard\libgcc.a

.comment        0x00000000       0x4c
 .comment       0x00000000       0x4c ./fcapplication/mainofapplication.o
                                 0x4d (size before relaxing)
 .comment       0x0000004c       0x4d ./fcapplication/stm32h7xx_it.o
 .comment       0x0000004c       0x4d ./fcapplication/stm32h7xx_hal_msp.o
 .comment       0x0000004c       0x4d ./fcapplication/csphandler.o
 .comment       0x0000004c       0x4d ./fcapplication/dwt.o
 .comment       0x0000004c       0x4d ./fcapplication/commands.o
 .comment       0x0000004c       0x4d ./fcapplication/cmdi2c.o
 .comment       0x0000004c       0x4d ./fcapplication/crc_hw.o
 .comment       0x0000004c       0x4d ./fcapplication/cmdspi.o
 .comment       0x0000004c       0x4d ./fcapplication/cmdframcy15b104q.o
 .comment       0x0000004c       0x4d ./fcapplication/peripheralapps.o
 .comment       0x0000004c       0x4d ./fcapplication/oshooks.o
 .comment       0x0000004c       0x4d ./fcapplication/confighandler.o
 .comment       0x0000004c       0x4d ./fcapplication/cmdadc.o
 .comment       0x0000004c       0x4d ./fcapplication/overcurrentprotectiontask.o
 .comment       0x0000004c       0x4d ./fcapplication/system_dbg.o
 .comment       0x0000004c       0x4d ./fcapplication/telemetryhandler.o
 .comment       0x0000004c       0x4d ./fcapplication/cmdlog.o
 .comment       0x0000004c       0x4d ./fcapplication/log.o
 .comment       0x0000004c       0x4d ./fcapplication/fwupdhandler.o
 .comment       0x0000004c       0x4d ./fcapplication/cspcpureset.o
 .comment       0x0000004c       0x4d ./fcapplication/cmdrtc.o
 .comment       0x0000004c       0x4d ./fcapplication/file_table.o
 .comment       0x0000004c       0x4d ./fcapplication/powercontrolunithandler.o
 .comment       0x0000004c       0x4d ./fcapplication/system_stm32h7xx.o
 .comment       0x0000004c       0x4d ./fcapplication/adcsactuators.o
 .comment       0x0000004c       0x4d ./fcapplication/adcssensors.o
 .comment       0x0000004c       0x4d ./fcapplication/adcsapp.o
 .comment       0x0000004c       0x4d ./fcapplication/adcstelemetryhandler.o
 .comment       0x0000004c       0x4d ./fcapplication/cli.o
 .comment       0x0000004c       0x4d ./fcapplication/clicmd.o
 .comment       0x0000004c       0x4d ./fcapplication/clicmdindexer.o
 .comment       0x0000004c       0x4d ./fcapplication/clicmdindexnode.o
 .comment       0x0000004c       0x4d ./fcapplication/cliwriter.o
 .comment       0x0000004c       0x4d ./fcapplication/cliservice.o
 .comment       0x0000004c       0x4d ./fcapplication/clihelpers.o
 .comment       0x0000004c       0x4d ./fcapplication/config.o
 .comment       0x0000004c       0x4d ./fcapplication/configclicommands.o
 .comment       0x0000004c       0x4d ./fcapplication/configservice.o
 .comment       0x0000004c       0x4d ./fcapplication/configclient.o
 .comment       0x0000004c       0x4d ./fcapplication/csp_bridge.o
 .comment       0x0000004c       0x4d ./fcapplication/csp_buffer.o
 .comment       0x0000004c       0x4d ./fcapplication/csp_conn.o
 .comment       0x0000004c       0x4d ./fcapplication/csp_crc32.o
 .comment       0x0000004c       0x4d ./fcapplication/csp_debug.o
 .comment       0x0000004c       0x4d ./fcapplication/csp_dedup.o
 .comment       0x0000004c       0x4d ./fcapplication/csp_endian.o
 .comment       0x0000004c       0x4d ./fcapplication/csp_iflist.o
 .comment       0x0000004c       0x4d ./fcapplication/csp_io.o
 .comment       0x0000004c       0x4d ./fcapplication/csp_port.o
 .comment       0x0000004c       0x4d ./fcapplication/csp_promisc.o
 .comment       0x0000004c       0x4d ./fcapplication/csp_qfifo.o
 .comment       0x0000004c       0x4d ./fcapplication/csp_route.o
 .comment       0x0000004c       0x4d ./fcapplication/csp_service_handler.o
 .comment       0x0000004c       0x4d ./fcapplication/csp_services.o
 .comment       0x0000004c       0x4d ./fcapplication/csp_sfp.o
 .comment       0x0000004c       0x4d ./fcapplication/csp_rdp.o
 .comment       0x0000004c       0x4d ./fcapplication/csp_udp.o
 .comment       0x0000004c       0x4d ./fcapplication/csp_rtable_static.o
 .comment       0x0000004c       0x4d ./fcapplication/csp_if_lo.o
 .comment       0x0000004c       0x4d ./fcapplication/csp_if_can.o
 .comment       0x0000004c       0x4d ./fcapplication/csp_malloc.o
 .comment       0x0000004c       0x4d ./fcapplication/csp_queue.o
 .comment       0x0000004c       0x4d ./fcapplication/csp_semaphore.o
 .comment       0x0000004c       0x4d ./fcapplication/csp_system.o
 .comment       0x0000004c       0x4d ./fcapplication/csp_thread.o
 .comment       0x0000004c       0x4d ./fcapplication/csp_time.o
 .comment       0x0000004c       0x4d ./fcapplication/cspclicommands.o
 .comment       0x0000004c       0x4d ./fcapplication/cspserver.o
 .comment       0x0000004c       0x4d ./fcapplication/cmdmagnetorquers.o
 .comment       0x0000004c       0x4d ./fcapplication/magnetorquers.o
 .comment       0x0000004c       0x4d ./fcapplication/file_system.o
 .comment       0x0000004c       0x4d ./fcapplication/ftransfer_sat.o
 .comment       0x0000004c       0x4d ./fcapplication/fs_tests.o
 .comment       0x0000004c       0x4d ./fcapplication/cmdfs.o
 .comment       0x0000004c       0x4d ./fcapplication/filesystem.o
 .comment       0x0000004c       0x4d ./fcapplication/fwupd.o
 .comment       0x0000004c       0x4d ./fcapplication/fwupdclicommands.o
 .comment       0x0000004c       0x4d ./fcapplication/fwupdcrc32.o
 .comment       0x0000004c       0x4d ./fcapplication/fwupdmemdescriptor.o
 .comment       0x0000004c       0x4d ./fcapplication/fwupdservice.o
 .comment       0x0000004c       0x4d ./fcapplication/fwupddescriptorhandler.o
 .comment       0x0000004c       0x4d ./fcapplication/fwupdclihelpers.o
 .comment       0x0000004c       0x4d ./fcapplication/flash_mt25q.o
 .comment       0x0000004c       0x4d ./fcapplication/cmdflash_mt25q.o
 .comment       0x0000004c       0x4d ./fcapplication/framcy15b104q.o
 .comment       0x0000004c       0x4d ./fcapplication/fram_fm22l16.o
 .comment       0x0000004c       0x4d ./fcapplication/croutine.o
 .comment       0x0000004c       0x4d ./fcapplication/event_groups.o
 .comment       0x0000004c       0x4d ./fcapplication/list.o
 .comment       0x0000004c       0x4d ./fcapplication/queue.o
 .comment       0x0000004c       0x4d ./fcapplication/tasks.o
 .comment       0x0000004c       0x4d ./fcapplication/timers.o
 .comment       0x0000004c       0x4d ./fcapplication/port.o
 .comment       0x0000004c       0x4d ./fcapplication/heap_4.o
 .comment       0x0000004c       0x4d ./fcapplication/cmdsunsensor.o
 .comment       0x0000004c       0x4d ./fcapplication/sunsensornsfss.o
 .comment       0x0000004c       0x4d ./fcapplication/gps.o
 .comment       0x0000004c       0x4d ./fcapplication/sentence.o
 .comment       0x0000004c       0x4d ./fcapplication/stm32h7xx_hal_spi_ex.o
 .comment       0x0000004c       0x4d ./fcapplication/stm32h7xx_hal_qspi.o
 .comment       0x0000004c       0x4d ./fcapplication/stm32h7xx_hal_flash.o
 .comment       0x0000004c       0x4d ./fcapplication/stm32h7xx_ll_fmc.o
 .comment       0x0000004c       0x4d ./fcapplication/stm32h7xx_hal.o
 .comment       0x0000004c       0x4d ./fcapplication/stm32h7xx_hal_mdma.o
 .comment       0x0000004c       0x4d ./fcapplication/stm32h7xx_hal_i2c.o
 .comment       0x0000004c       0x4d ./fcapplication/stm32h7xx_hal_dma.o
 .comment       0x0000004c       0x4d ./fcapplication/stm32h7xx_hal_pwr.o
 .comment       0x0000004c       0x4d ./fcapplication/stm32h7xx_hal_cortex.o
 .comment       0x0000004c       0x4d ./fcapplication/stm32h7xx_hal_spi.o
 .comment       0x0000004c       0x4d ./fcapplication/stm32h7xx_hal_gpio.o
 .comment       0x0000004c       0x4d ./fcapplication/stm32h7xx_hal_fdcan.o
 .comment       0x0000004c       0x4d ./fcapplication/stm32h7xx_hal_flash_ex.o
 .comment       0x0000004c       0x4d ./fcapplication/stm32h7xx_hal_tim.o
 .comment       0x0000004c       0x4d ./fcapplication/stm32h7xx_hal_uart.o
 .comment       0x0000004c       0x4d ./fcapplication/stm32h7xx_hal_rcc.o
 .comment       0x0000004c       0x4d ./fcapplication/stm32h7xx_hal_rcc_ex.o
 .comment       0x0000004c       0x4d ./fcapplication/stm32h7xx_hal_sram.o
 .comment       0x0000004c       0x4d ./fcapplication/stm32h7xx_hal_uart_ex.o
 .comment       0x0000004c       0x4d ./fcapplication/stm32h7xx_hal_dma_ex.o
 .comment       0x0000004c       0x4d ./fcapplication/stm32h7xx_hal_tim_ex.o
 .comment       0x0000004c       0x4d ./fcapplication/stm32h7xx_hal_i2c_ex.o
 .comment       0x0000004c       0x4d ./fcapplication/stm32h7xx_hal_pwr_ex.o
 .comment       0x0000004c       0x4d ./fcapplication/stm32h7xx_hal_iwdg.o
 .comment       0x0000004c       0x4d ./fcapplication/stm32h7xx_hal_usart.o
 .comment       0x0000004c       0x4d ./fcapplication/stm32h7xx_hal_rtc.o
 .comment       0x0000004c       0x4d ./fcapplication/stm32h7xx_hal_rtc_ex.o
 .comment       0x0000004c       0x4d ./fcapplication/stm32h7xx_hal_crc.o
 .comment       0x0000004c       0x4d ./fcapplication/stm32h7xx_hal_crc_ex.o
 .comment       0x0000004c       0x4d ./fcapplication/stm32h7xx_hal_adc.o
 .comment       0x0000004c       0x4d ./fcapplication/stm32h7xx_hal_adc_ex.o
 .comment       0x0000004c       0x4d ./fcapplication/cmdgyrostim210.o
 .comment       0x0000004c       0x4d ./fcapplication/crc8ccitt.o
 .comment       0x0000004c       0x4d ./fcapplication/gyrostim210.o
 .comment       0x0000004c       0x4d ./fcapplication/cmdmagnetometer.o
 .comment       0x0000004c       0x4d ./fcapplication/magnetometermmc5883ma.o
 .comment       0x0000004c       0x4d ./fcapplication/memoryoperators.o
 .comment       0x0000004c       0x4d ./fcapplication/na_arraymath.o
 .comment       0x0000004c       0x4d ./fcapplication/na_arrayxxmath.o
 .comment       0x0000004c       0x4d ./fcapplication/na_statusstrs.o
 .comment       0x0000004c       0x4d ./fcapplication/ast_cna_runadcs.o
 .comment       0x0000004c       0x4d ./fcapplication/ast_gaintable.o
 .comment       0x0000004c       0x4d ./fcapplication/ast_gps_process.o
 .comment       0x0000004c       0x4d ./fcapplication/ast_mag_process.o
 .comment       0x0000004c       0x4d ./fcapplication/ast_sens_process.o
 .comment       0x0000004c       0x4d ./fcapplication/astc_filter_derivedrate.o
 .comment       0x0000004c       0x4d ./fcapplication/cna_adcsconfig.o
 .comment       0x0000004c       0x4d ./fcapplication/cna_alphabetagamafilter.o
 .comment       0x0000004c       0x4d ./fcapplication/cna_attitudecontrolsystem.o
 .comment       0x0000004c       0x4d ./fcapplication/cna_dynamicmodel.o
 .comment       0x0000004c       0x4d ./fcapplication/cna_kalman_startracker_imumultimeasbiased.o
 .comment       0x0000004c       0x4d ./fcapplication/cna_kalman_sun_3gyro_3mag.o
 .comment       0x0000004c       0x4d ./fcapplication/cna_kalmanabstract.o
 .comment       0x0000004c       0x4d ./fcapplication/cna_measurementmodel.o
 .comment       0x0000004c       0x4d ./fcapplication/cna_rwvelocity.o
 .comment       0x0000004c       0x4d ./fcapplication/na_filter.o
 .comment       0x0000004c       0x4d ./fcapplication/na_igrfmodel.o
 .comment       0x0000004c       0x4d ./fcapplication/na_refframe.o
 .comment       0x0000004c       0x4d ./fcapplication/na_rigidbody.o
 .comment       0x0000004c       0x4d ./fcapplication/na_sgp4.o
 .comment       0x0000004c       0x4d ./fcapplication/na_sundirectionmodel.o
 .comment       0x0000004c       0x4d ./fcapplication/na_time.o
 .comment       0x0000004c       0x4d ./fcapplication/navigationdefines.o
 .comment       0x0000004c       0x4d ./fcapplication/pch.o
 .comment       0x0000004c       0x4d ./fcapplication/sgp4ext.o
 .comment       0x0000004c       0x4d ./fcapplication/sgp4io.o
 .comment       0x0000004c       0x4d ./fcapplication/sgp4unit.o
 .comment       0x0000004c       0x4d ./fcapplication/patternfinder.o
 .comment       0x0000004c       0x4d ./fcapplication/canapp.o
 .comment       0x0000004c       0x4d ./fcapplication/rtcapp.o
 .comment       0x0000004c       0x4d ./fcapplication/uartapp.o
 .comment       0x0000004c       0x4d ./fcapplication/i2cmasterapp.o
 .comment       0x0000004c       0x4d ./fcapplication/spimasterapp.o
 .comment       0x0000004c       0x4d ./fcapplication/flashapp.o
 .comment       0x0000004c       0x4d ./fcapplication/canclicommands.o
 .comment       0x0000004c       0x4d ./fcapplication/rtcbase.o
 .comment       0x0000004c       0x4d ./fcapplication/reqrepclienttransportcsp.o
 .comment       0x0000004c       0x4d ./fcapplication/reqrepservicetransportcsp.o
 .comment       0x0000004c       0x4d ./fcapplication/bcrw4.o
 .comment       0x0000004c       0x4d ./fcapplication/script_engine.o
 .comment       0x0000004c       0x4d ./fcapplication/cmdscriptengine.o
 .comment       0x0000004c       0x4d ./fcapplication/semihostingoff.o
 .comment       0x0000004c       0x4d ./fcapplication/cmdstartracker.o
 .comment       0x0000004c       0x4d ./fcapplication/startrackernst1b.o
 .comment       0x0000004c       0x4d ./fcapplication/supervisor.o
 .comment       0x0000004c       0x4d ./fcapplication/telemetrycollectorbasic.o
 .comment       0x0000004c       0x4d ./fcapplication/telemetryhelpers.o
 .comment       0x0000004c       0x4d ./fcapplication/telemetryservice.o
 .comment       0x0000004c       0x4d ./fcapplication/timesyncclient.o
 .comment       0x0000004c       0x4d ./fcapplication/timesyncservice.o
 .comment       0x0000004c       0x4d ./fcapplication/timesynctask.o
 .comment       0x0000004c       0x4d ./fcapplication/adc.o
 .comment       0x0000004c       0x4d ./fcapplication/systemclock.o
 .comment       0x0000004c       0x4d ./fcapplication/watchdog.o
 .comment       0x0000004c       0x4d ./fcapplication/gpio.o
 .comment       0x0000004c       0x4d ./fcapplication/can1.o
 .comment       0x0000004c       0x4d ./fcapplication/can2.o
 .comment       0x0000004c       0x4d ./fcapplication/candrivers.o
 .comment       0x0000004c       0x4d ./fcapplication/uart4.o
 .comment       0x0000004c       0x4d ./fcapplication/uart5.o
 .comment       0x0000004c       0x4d ./fcapplication/uart7.o
 .comment       0x0000004c       0x4d ./fcapplication/uart8.o
 .comment       0x0000004c       0x4d ./fcapplication/uart1.o
 .comment       0x0000004c       0x4d ./fcapplication/uart3.o
 .comment       0x0000004c       0x4d ./fcapplication/uart6.o
 .comment       0x0000004c       0x4d ./fcapplication/uartdrivers.o
 .comment       0x0000004c       0x4d ./fcapplication/i2c1.o
 .comment       0x0000004c       0x4d ./fcapplication/i2c2.o
 .comment       0x0000004c       0x4d ./fcapplication/i2c3.o
 .comment       0x0000004c       0x4d ./fcapplication/i2c4.o
 .comment       0x0000004c       0x4d ./fcapplication/i2cdrivers.o
 .comment       0x0000004c       0x4d ./fcapplication/spi1.o
 .comment       0x0000004c       0x4d ./fcapplication/spi2.o
 .comment       0x0000004c       0x4d ./fcapplication/spi4.o
 .comment       0x0000004c       0x4d ./fcapplication/spi5.o
 .comment       0x0000004c       0x4d ./fcapplication/spidrivers.o
 .comment       0x0000004c       0x4d ./fcapplication/flash.o
 .comment       0x0000004c       0x4d ./fcapplication/tim8.o
 .comment       0x0000004c       0x4d ./fcapplication/tim2.o
 .comment       0x0000004c       0x4d ./fcapplication/timdrivers.o
 .comment       0x0000004c       0x4d ./fcapplication/mcuoption.o
 .comment       0x0000004c       0x4d ./fcapplication/tim5.o
 .comment       0x0000004c       0x4d ./fcapplication/rtc.o
 .comment       0x0000004c       0x4d ./fcapplication/tim12.o
 .comment       0x0000004c       0x4d ./fcapplication/rtcdrivers.o
 .comment       0x0000004c       0x4d ./fcapplication/cmdlvc.o
 .comment       0x0000004c       0x4d ./fcapplication/lvc.o

.debug_frame    0x00000000     0x2670
 .debug_frame   0x00000000       0xac c:/program files (x86)/gnu arm embedded toolchain/9 2020-q2-update/bin/../lib/gcc/arm-none-eabi/9.3.1/thumb/v7e-m+dp/hard\libgcc.a(_arm_addsubdf3.o)
 .debug_frame   0x000000ac       0x44 c:/program files (x86)/gnu arm embedded toolchain/9 2020-q2-update/bin/../lib/gcc/arm-none-eabi/9.3.1/thumb/v7e-m+dp/hard\libgcc.a(_aeabi_ldivmod.o)
 .debug_frame   0x000000f0       0x2c c:/program files (x86)/gnu arm embedded toolchain/9 2020-q2-update/bin/../lib/gcc/arm-none-eabi/9.3.1/thumb/v7e-m+dp/hard\libgcc.a(_aeabi_uldivmod.o)
 .debug_frame   0x0000011c       0x30 c:/program files (x86)/gnu arm embedded toolchain/9 2020-q2-update/bin/../lib/gcc/arm-none-eabi/9.3.1/thumb/v7e-m+dp/hard\libgcc.a(_fixdfdi.o)
 .debug_frame   0x0000014c       0x20 c:/program files (x86)/gnu arm embedded toolchain/9 2020-q2-update/bin/../lib/gcc/arm-none-eabi/9.3.1/thumb/v7e-m+dp/hard\libgcc.a(_fixunsdfdi.o)
 .debug_frame   0x0000016c       0x34 c:/program files (x86)/gnu arm embedded toolchain/9 2020-q2-update/bin/../lib/gcc/arm-none-eabi/9.3.1/thumb/v7e-m+dp/hard\libgcc.a(_udivmoddi4.o)
 .debug_frame   0x000001a0       0x20 c:/program files (x86)/gnu arm embedded toolchain/9 2020-q2-update/bin/../lib/gcc/arm-none-eabi/9.3.1/../../../../arm-none-eabi/lib/thumb/v7e-m+dp/hard\libc.a(lib_a-atexit.o)
 .debug_frame   0x000001c0       0x20 c:/program files (x86)/gnu arm embedded toolchain/9 2020-q2-update/bin/../lib/gcc/arm-none-eabi/9.3.1/../../../../arm-none-eabi/lib/thumb/v7e-m+dp/hard\libc.a(lib_a-atof.o)
 .debug_frame   0x000001e0       0x30 c:/program files (x86)/gnu arm embedded toolchain/9 2020-q2-update/bin/../lib/gcc/arm-none-eabi/9.3.1/../../../../arm-none-eabi/lib/thumb/v7e-m+dp/hard\libc.a(lib_a-atoi.o)
 .debug_frame   0x00000210       0x28 c:/program files (x86)/gnu arm embedded toolchain/9 2020-q2-update/bin/../lib/gcc/arm-none-eabi/9.3.1/../../../../arm-none-eabi/lib/thumb/v7e-m+dp/hard\libc.a(lib_a-exit.o)
 .debug_frame   0x00000238       0x2c c:/program files (x86)/gnu arm embedded toolchain/9 2020-q2-update/bin/../lib/gcc/arm-none-eabi/9.3.1/../../../../arm-none-eabi/lib/thumb/v7e-m+dp/hard\libc.a(lib_a-init.o)
 .debug_frame   0x00000264       0x20 c:/program files (x86)/gnu arm embedded toolchain/9 2020-q2-update/bin/../lib/gcc/arm-none-eabi/9.3.1/../../../../arm-none-eabi/lib/thumb/v7e-m+dp/hard\libc.a(lib_a-isalpha.o)
 .debug_frame   0x00000284       0x30 c:/program files (x86)/gnu arm embedded toolchain/9 2020-q2-update/bin/../lib/gcc/arm-none-eabi/9.3.1/../../../../arm-none-eabi/lib/thumb/v7e-m+dp/hard\libc.a(lib_a-isprint.o)
 .debug_frame   0x000002b4       0x20 c:/program files (x86)/gnu arm embedded toolchain/9 2020-q2-update/bin/../lib/gcc/arm-none-eabi/9.3.1/../../../../arm-none-eabi/lib/thumb/v7e-m+dp/hard\libc.a(lib_a-lcltime.o)
 .debug_frame   0x000002d4       0x40 c:/program files (x86)/gnu arm embedded toolchain/9 2020-q2-update/bin/../lib/gcc/arm-none-eabi/9.3.1/../../../../arm-none-eabi/lib/thumb/v7e-m+dp/hard\libc.a(lib_a-lcltime_r.o)
 .debug_frame   0x00000314       0x3c c:/program files (x86)/gnu arm embedded toolchain/9 2020-q2-update/bin/../lib/gcc/arm-none-eabi/9.3.1/../../../../arm-none-eabi/lib/thumb/v7e-m+dp/hard\libc.a(lib_a-memcmp.o)
 .debug_frame   0x00000350       0x40 c:/program files (x86)/gnu arm embedded toolchain/9 2020-q2-update/bin/../lib/gcc/arm-none-eabi/9.3.1/../../../../arm-none-eabi/lib/thumb/v7e-m+dp/hard\libc.a(lib_a-memmove.o)
 .debug_frame   0x00000390       0x38 c:/program files (x86)/gnu arm embedded toolchain/9 2020-q2-update/bin/../lib/gcc/arm-none-eabi/9.3.1/../../../../arm-none-eabi/lib/thumb/v7e-m+dp/hard\libc.a(lib_a-memset.o)
 .debug_frame   0x000003c8       0x6c c:/program files (x86)/gnu arm embedded toolchain/9 2020-q2-update/bin/../lib/gcc/arm-none-eabi/9.3.1/../../../../arm-none-eabi/lib/thumb/v7e-m+dp/hard\libc.a(lib_a-mktime.o)
 .debug_frame   0x00000434       0x74 c:/program files (x86)/gnu arm embedded toolchain/9 2020-q2-update/bin/../lib/gcc/arm-none-eabi/9.3.1/../../../../arm-none-eabi/lib/thumb/v7e-m+dp/hard\libc.a(lib_a-printf.o)
 .debug_frame   0x000004a8       0x3c c:/program files (x86)/gnu arm embedded toolchain/9 2020-q2-update/bin/../lib/gcc/arm-none-eabi/9.3.1/../../../../arm-none-eabi/lib/thumb/v7e-m+dp/hard\libc.a(lib_a-rand.o)
 .debug_frame   0x000004e4       0x20 c:/program files (x86)/gnu arm embedded toolchain/9 2020-q2-update/bin/../lib/gcc/arm-none-eabi/9.3.1/../../../../arm-none-eabi/lib/thumb/v7e-m+dp/hard\libc.a(lib_a-s_nan.o)
 .debug_frame   0x00000504       0x9c c:/program files (x86)/gnu arm embedded toolchain/9 2020-q2-update/bin/../lib/gcc/arm-none-eabi/9.3.1/../../../../arm-none-eabi/lib/thumb/v7e-m+dp/hard\libc.a(lib_a-snprintf.o)
 .debug_frame   0x000005a0       0x7c c:/program files (x86)/gnu arm embedded toolchain/9 2020-q2-update/bin/../lib/gcc/arm-none-eabi/9.3.1/../../../../arm-none-eabi/lib/thumb/v7e-m+dp/hard\libc.a(lib_a-sprintf.o)
 .debug_frame   0x0000061c       0x80 c:/program files (x86)/gnu arm embedded toolchain/9 2020-q2-update/bin/../lib/gcc/arm-none-eabi/9.3.1/../../../../arm-none-eabi/lib/thumb/v7e-m+dp/hard\libc.a(lib_a-sscanf.o)
 .debug_frame   0x0000069c       0x8c c:/program files (x86)/gnu arm embedded toolchain/9 2020-q2-update/bin/../lib/gcc/arm-none-eabi/9.3.1/../../../../arm-none-eabi/lib/thumb/v7e-m+dp/hard\libc.a(lib_a-stdio.o)
 .debug_frame   0x00000728       0x28 c:/program files (x86)/gnu arm embedded toolchain/9 2020-q2-update/bin/../lib/gcc/arm-none-eabi/9.3.1/../../../../arm-none-eabi/lib/thumb/v7e-m+dp/hard\libc.a(lib_a-strcat.o)
 .debug_frame   0x00000750       0x40 c:/program files (x86)/gnu arm embedded toolchain/9 2020-q2-update/bin/../lib/gcc/arm-none-eabi/9.3.1/../../../../arm-none-eabi/lib/thumb/v7e-m+dp/hard\libc.a(lib_a-strchr.o)
 .debug_frame   0x00000790       0x68 c:/program files (x86)/gnu arm embedded toolchain/9 2020-q2-update/bin/../lib/gcc/arm-none-eabi/9.3.1/../../../../arm-none-eabi/lib/thumb/v7e-m+dp/hard\libc.a(lib_a-strcmp.o)
 .debug_frame   0x000007f8       0x20 c:/program files (x86)/gnu arm embedded toolchain/9 2020-q2-update/bin/../lib/gcc/arm-none-eabi/9.3.1/../../../../arm-none-eabi/lib/thumb/v7e-m+dp/hard\libc.a(lib_a-strcpy.o)
 .debug_frame   0x00000818       0x30 c:/program files (x86)/gnu arm embedded toolchain/9 2020-q2-update/bin/../lib/gcc/arm-none-eabi/9.3.1/../../../../arm-none-eabi/lib/thumb/v7e-m+dp/hard\libc.a(lib_a-strncat.o)
 .debug_frame   0x00000848       0x58 c:/program files (x86)/gnu arm embedded toolchain/9 2020-q2-update/bin/../lib/gcc/arm-none-eabi/9.3.1/../../../../arm-none-eabi/lib/thumb/v7e-m+dp/hard\libc.a(lib_a-strncmp.o)
 .debug_frame   0x000008a0       0x38 c:/program files (x86)/gnu arm embedded toolchain/9 2020-q2-update/bin/../lib/gcc/arm-none-eabi/9.3.1/../../../../arm-none-eabi/lib/thumb/v7e-m+dp/hard\libc.a(lib_a-strncpy.o)
 .debug_frame   0x000008d8      0x158 c:/program files (x86)/gnu arm embedded toolchain/9 2020-q2-update/bin/../lib/gcc/arm-none-eabi/9.3.1/../../../../arm-none-eabi/lib/thumb/v7e-m+dp/hard\libc.a(lib_a-strtod.o)
 .debug_frame   0x00000a30       0x80 c:/program files (x86)/gnu arm embedded toolchain/9 2020-q2-update/bin/../lib/gcc/arm-none-eabi/9.3.1/../../../../arm-none-eabi/lib/thumb/v7e-m+dp/hard\libc.a(lib_a-strtol.o)
 .debug_frame   0x00000ab0       0x7c c:/program files (x86)/gnu arm embedded toolchain/9 2020-q2-update/bin/../lib/gcc/arm-none-eabi/9.3.1/../../../../arm-none-eabi/lib/thumb/v7e-m+dp/hard\libc.a(lib_a-strtoul.o)
 .debug_frame   0x00000b2c       0x88 c:/program files (x86)/gnu arm embedded toolchain/9 2020-q2-update/bin/../lib/gcc/arm-none-eabi/9.3.1/../../../../arm-none-eabi/lib/thumb/v7e-m+dp/hard\libc.a(lib_a-strtoull.o)
 .debug_frame   0x00000bb4       0x68 c:/program files (x86)/gnu arm embedded toolchain/9 2020-q2-update/bin/../lib/gcc/arm-none-eabi/9.3.1/../../../../arm-none-eabi/lib/thumb/v7e-m+dp/hard\libc.a(lib_a-svfprintf.o)
 .debug_frame   0x00000c1c       0x58 c:/program files (x86)/gnu arm embedded toolchain/9 2020-q2-update/bin/../lib/gcc/arm-none-eabi/9.3.1/../../../../arm-none-eabi/lib/thumb/v7e-m+dp/hard\libc.a(lib_a-svfscanf.o)
 .debug_frame   0x00000c74       0x20 c:/program files (x86)/gnu arm embedded toolchain/9 2020-q2-update/bin/../lib/gcc/arm-none-eabi/9.3.1/../../../../arm-none-eabi/lib/thumb/v7e-m+dp/hard\libc.a(lib_a-tolower.o)
 .debug_frame   0x00000c94       0x48 c:/program files (x86)/gnu arm embedded toolchain/9 2020-q2-update/bin/../lib/gcc/arm-none-eabi/9.3.1/../../../../arm-none-eabi/lib/thumb/v7e-m+dp/hard\libc.a(lib_a-tzcalc_limits.o)
 .debug_frame   0x00000cdc       0x30 c:/program files (x86)/gnu arm embedded toolchain/9 2020-q2-update/bin/../lib/gcc/arm-none-eabi/9.3.1/../../../../arm-none-eabi/lib/thumb/v7e-m+dp/hard\libc.a(lib_a-tzlock.o)
 .debug_frame   0x00000d0c       0x3c c:/program files (x86)/gnu arm embedded toolchain/9 2020-q2-update/bin/../lib/gcc/arm-none-eabi/9.3.1/../../../../arm-none-eabi/lib/thumb/v7e-m+dp/hard\libc.a(lib_a-tzset.o)
 .debug_frame   0x00000d48       0x60 c:/program files (x86)/gnu arm embedded toolchain/9 2020-q2-update/bin/../lib/gcc/arm-none-eabi/9.3.1/../../../../arm-none-eabi/lib/thumb/v7e-m+dp/hard\libc.a(lib_a-tzset_r.o)
 .debug_frame   0x00000da8       0xbc c:/program files (x86)/gnu arm embedded toolchain/9 2020-q2-update/bin/../lib/gcc/arm-none-eabi/9.3.1/../../../../arm-none-eabi/lib/thumb/v7e-m+dp/hard\libc.a(lib_a-vfprintf.o)
 .debug_frame   0x00000e64       0x60 c:/program files (x86)/gnu arm embedded toolchain/9 2020-q2-update/bin/../lib/gcc/arm-none-eabi/9.3.1/../../../../arm-none-eabi/lib/thumb/v7e-m+dp/hard\libc.a(lib_a-vsnprintf.o)
 .debug_frame   0x00000ec4       0x2c c:/program files (x86)/gnu arm embedded toolchain/9 2020-q2-update/bin/../lib/gcc/arm-none-eabi/9.3.1/../../../../arm-none-eabi/lib/thumb/v7e-m+dp/hard\libc.a(lib_a-writer.o)
 .debug_frame   0x00000ef0       0x2c c:/program files (x86)/gnu arm embedded toolchain/9 2020-q2-update/bin/../lib/gcc/arm-none-eabi/9.3.1/../../../../arm-none-eabi/lib/thumb/v7e-m+dp/hard\libc.a(lib_a-wsetup.o)
 .debug_frame   0x00000f1c       0x34 c:/program files (x86)/gnu arm embedded toolchain/9 2020-q2-update/bin/../lib/gcc/arm-none-eabi/9.3.1/../../../../arm-none-eabi/lib/thumb/v7e-m+dp/hard\libc.a(lib_a-__atexit.o)
 .debug_frame   0x00000f50       0x68 c:/program files (x86)/gnu arm embedded toolchain/9 2020-q2-update/bin/../lib/gcc/arm-none-eabi/9.3.1/../../../../arm-none-eabi/lib/thumb/v7e-m+dp/hard\libc.a(lib_a-__call_atexit.o)
 .debug_frame   0x00000fb8       0x2c c:/program files (x86)/gnu arm embedded toolchain/9 2020-q2-update/bin/../lib/gcc/arm-none-eabi/9.3.1/../../../../arm-none-eabi/lib/thumb/v7e-m+dp/hard\libc.a(lib_a-closer.o)
 .debug_frame   0x00000fe4       0x38 c:/program files (x86)/gnu arm embedded toolchain/9 2020-q2-update/bin/../lib/gcc/arm-none-eabi/9.3.1/../../../../arm-none-eabi/lib/thumb/v7e-m+dp/hard\libc.a(lib_a-div.o)
 .debug_frame   0x0000101c       0x88 c:/program files (x86)/gnu arm embedded toolchain/9 2020-q2-update/bin/../lib/gcc/arm-none-eabi/9.3.1/../../../../arm-none-eabi/lib/thumb/v7e-m+dp/hard\libc.a(lib_a-dtoa.o)
 .debug_frame   0x000010a4       0x20 c:/program files (x86)/gnu arm embedded toolchain/9 2020-q2-update/bin/../lib/gcc/arm-none-eabi/9.3.1/../../../../arm-none-eabi/lib/thumb/v7e-m+dp/hard\libc.a(lib_a-errno.o)
 .debug_frame   0x000010c4       0x5c c:/program files (x86)/gnu arm embedded toolchain/9 2020-q2-update/bin/../lib/gcc/arm-none-eabi/9.3.1/../../../../arm-none-eabi/lib/thumb/v7e-m+dp/hard\libc.a(lib_a-fflush.o)
 .debug_frame   0x00001120      0x14c c:/program files (x86)/gnu arm embedded toolchain/9 2020-q2-update/bin/../lib/gcc/arm-none-eabi/9.3.1/../../../../arm-none-eabi/lib/thumb/v7e-m+dp/hard\libc.a(lib_a-findfp.o)
 .debug_frame   0x0000126c       0x34 c:/program files (x86)/gnu arm embedded toolchain/9 2020-q2-update/bin/../lib/gcc/arm-none-eabi/9.3.1/../../../../arm-none-eabi/lib/thumb/v7e-m+dp/hard\libc.a(lib_a-fini.o)
 .debug_frame   0x000012a0       0x8c c:/program files (x86)/gnu arm embedded toolchain/9 2020-q2-update/bin/../lib/gcc/arm-none-eabi/9.3.1/../../../../arm-none-eabi/lib/thumb/v7e-m+dp/hard\libc.a(lib_a-freer.o)
 .debug_frame   0x0000132c       0x54 c:/program files (x86)/gnu arm embedded toolchain/9 2020-q2-update/bin/../lib/gcc/arm-none-eabi/9.3.1/../../../../arm-none-eabi/lib/thumb/v7e-m+dp/hard\libc.a(lib_a-fwalk.o)
 .debug_frame   0x00001380       0x8c c:/program files (x86)/gnu arm embedded toolchain/9 2020-q2-update/bin/../lib/gcc/arm-none-eabi/9.3.1/../../../../arm-none-eabi/lib/thumb/v7e-m+dp/hard\libc.a(lib_a-gdtoa-gethex.o)
 .debug_frame   0x0000140c       0x70 c:/program files (x86)/gnu arm embedded toolchain/9 2020-q2-update/bin/../lib/gcc/arm-none-eabi/9.3.1/../../../../arm-none-eabi/lib/thumb/v7e-m+dp/hard\libc.a(lib_a-gdtoa-hexnan.o)
 .debug_frame   0x0000147c       0x50 c:/program files (x86)/gnu arm embedded toolchain/9 2020-q2-update/bin/../lib/gcc/arm-none-eabi/9.3.1/../../../../arm-none-eabi/lib/thumb/v7e-m+dp/hard\libc.a(lib_a-getenv_r.o)
 .debug_frame   0x000014cc       0x20 c:/program files (x86)/gnu arm embedded toolchain/9 2020-q2-update/bin/../lib/gcc/arm-none-eabi/9.3.1/../../../../arm-none-eabi/lib/thumb/v7e-m+dp/hard\libc.a(lib_a-gettzinfo.o)
 .debug_frame   0x000014ec       0x30 c:/program files (x86)/gnu arm embedded toolchain/9 2020-q2-update/bin/../lib/gcc/arm-none-eabi/9.3.1/../../../../arm-none-eabi/lib/thumb/v7e-m+dp/hard\libc.a(lib_a-gmtime_r.o)
 .debug_frame   0x0000151c       0x20 c:/program files (x86)/gnu arm embedded toolchain/9 2020-q2-update/bin/../lib/gcc/arm-none-eabi/9.3.1/../../../../arm-none-eabi/lib/thumb/v7e-m+dp/hard\libc.a(lib_a-iswspace.o)
 .debug_frame   0x0000153c       0x20 c:/program files (x86)/gnu arm embedded toolchain/9 2020-q2-update/bin/../lib/gcc/arm-none-eabi/9.3.1/../../../../arm-none-eabi/lib/thumb/v7e-m+dp/hard\libc.a(lib_a-iswspace_l.o)
 .debug_frame   0x0000155c       0x20 c:/program files (x86)/gnu arm embedded toolchain/9 2020-q2-update/bin/../lib/gcc/arm-none-eabi/9.3.1/../../../../arm-none-eabi/lib/thumb/v7e-m+dp/hard\libc.a(lib_a-lnumeric.o)
 .debug_frame   0x0000157c       0x54 c:/program files (x86)/gnu arm embedded toolchain/9 2020-q2-update/bin/../lib/gcc/arm-none-eabi/9.3.1/../../../../arm-none-eabi/lib/thumb/v7e-m+dp/hard\libc.a(lib_a-locale.o)
 .debug_frame   0x000015d0       0x40 c:/program files (x86)/gnu arm embedded toolchain/9 2020-q2-update/bin/../lib/gcc/arm-none-eabi/9.3.1/../../../../arm-none-eabi/lib/thumb/v7e-m+dp/hard\libc.a(lib_a-localeconv.o)
 .debug_frame   0x00001610       0xb0 c:/program files (x86)/gnu arm embedded toolchain/9 2020-q2-update/bin/../lib/gcc/arm-none-eabi/9.3.1/../../../../arm-none-eabi/lib/thumb/v7e-m+dp/hard\libc.a(lib_a-lock.o)
 .debug_frame   0x000016c0       0x2c c:/program files (x86)/gnu arm embedded toolchain/9 2020-q2-update/bin/../lib/gcc/arm-none-eabi/9.3.1/../../../../arm-none-eabi/lib/thumb/v7e-m+dp/hard\libc.a(lib_a-lseekr.o)
 .debug_frame   0x000016ec       0x6c c:/program files (x86)/gnu arm embedded toolchain/9 2020-q2-update/bin/../lib/gcc/arm-none-eabi/9.3.1/../../../../arm-none-eabi/lib/thumb/v7e-m+dp/hard\libc.a(lib_a-makebuf.o)
 .debug_frame   0x00001758       0x30 c:/program files (x86)/gnu arm embedded toolchain/9 2020-q2-update/bin/../lib/gcc/arm-none-eabi/9.3.1/../../../../arm-none-eabi/lib/thumb/v7e-m+dp/hard\libc.a(lib_a-malloc.o)
 .debug_frame   0x00001788       0x4c c:/program files (x86)/gnu arm embedded toolchain/9 2020-q2-update/bin/../lib/gcc/arm-none-eabi/9.3.1/../../../../arm-none-eabi/lib/thumb/v7e-m+dp/hard\libc.a(lib_a-mallocr.o)
 .debug_frame   0x000017d4       0x64 c:/program files (x86)/gnu arm embedded toolchain/9 2020-q2-update/bin/../lib/gcc/arm-none-eabi/9.3.1/../../../../arm-none-eabi/lib/thumb/v7e-m+dp/hard\libc.a(lib_a-mbrtowc.o)
 .debug_frame   0x00001838       0x4c c:/program files (x86)/gnu arm embedded toolchain/9 2020-q2-update/bin/../lib/gcc/arm-none-eabi/9.3.1/../../../../arm-none-eabi/lib/thumb/v7e-m+dp/hard\libc.a(lib_a-mbtowc_r.o)
 .debug_frame   0x00001884       0x30 c:/program files (x86)/gnu arm embedded toolchain/9 2020-q2-update/bin/../lib/gcc/arm-none-eabi/9.3.1/../../../../arm-none-eabi/lib/thumb/v7e-m+dp/hard\libc.a(lib_a-mlock.o)
 .debug_frame   0x000018b4      0x268 c:/program files (x86)/gnu arm embedded toolchain/9 2020-q2-update/bin/../lib/gcc/arm-none-eabi/9.3.1/../../../../arm-none-eabi/lib/thumb/v7e-m+dp/hard\libc.a(lib_a-mprec.o)
 .debug_frame   0x00001b1c       0x2c c:/program files (x86)/gnu arm embedded toolchain/9 2020-q2-update/bin/../lib/gcc/arm-none-eabi/9.3.1/../../../../arm-none-eabi/lib/thumb/v7e-m+dp/hard\libc.a(lib_a-readr.o)
 .debug_frame   0x00001b48       0x20 c:/program files (x86)/gnu arm embedded toolchain/9 2020-q2-update/bin/../lib/gcc/arm-none-eabi/9.3.1/../../../../arm-none-eabi/lib/thumb/v7e-m+dp/hard\libc.a(lib_a-realloc.o)
 .debug_frame   0x00001b68       0x48 c:/program files (x86)/gnu arm embedded toolchain/9 2020-q2-update/bin/../lib/gcc/arm-none-eabi/9.3.1/../../../../arm-none-eabi/lib/thumb/v7e-m+dp/hard\libc.a(lib_a-reallocr.o)
 .debug_frame   0x00001bb0       0x60 c:/program files (x86)/gnu arm embedded toolchain/9 2020-q2-update/bin/../lib/gcc/arm-none-eabi/9.3.1/../../../../arm-none-eabi/lib/thumb/v7e-m+dp/hard\libc.a(lib_a-reent.o)
 .debug_frame   0x00001c10       0x34 c:/program files (x86)/gnu arm embedded toolchain/9 2020-q2-update/bin/../lib/gcc/arm-none-eabi/9.3.1/../../../../arm-none-eabi/lib/thumb/v7e-m+dp/hard\libc.a(lib_a-s_frexp.o)
 .debug_frame   0x00001c44       0x2c c:/program files (x86)/gnu arm embedded toolchain/9 2020-q2-update/bin/../lib/gcc/arm-none-eabi/9.3.1/../../../../arm-none-eabi/lib/thumb/v7e-m+dp/hard\libc.a(lib_a-sbrkr.o)
 .debug_frame   0x00001c70       0x40 c:/program files (x86)/gnu arm embedded toolchain/9 2020-q2-update/bin/../lib/gcc/arm-none-eabi/9.3.1/../../../../arm-none-eabi/lib/thumb/v7e-m+dp/hard\libc.a(lib_a-sccl.o)
 .debug_frame   0x00001cb0       0x20 c:/program files (x86)/gnu arm embedded toolchain/9 2020-q2-update/bin/../lib/gcc/arm-none-eabi/9.3.1/../../../../arm-none-eabi/lib/thumb/v7e-m+dp/hard\libc.a(lib_a-sf_nan.o)
 .debug_frame   0x00001cd0       0x80 c:/program files (x86)/gnu arm embedded toolchain/9 2020-q2-update/bin/../lib/gcc/arm-none-eabi/9.3.1/../../../../arm-none-eabi/lib/thumb/v7e-m+dp/hard\libc.a(lib_a-siscanf.o)
 .debug_frame   0x00001d50       0x90 c:/program files (x86)/gnu arm embedded toolchain/9 2020-q2-update/bin/../lib/gcc/arm-none-eabi/9.3.1/../../../../arm-none-eabi/lib/thumb/v7e-m+dp/hard\libc.a(lib_a-strtoll.o)
 .debug_frame   0x00001de0       0x88 c:/program files (x86)/gnu arm embedded toolchain/9 2020-q2-update/bin/../lib/gcc/arm-none-eabi/9.3.1/../../../../arm-none-eabi/lib/thumb/v7e-m+dp/hard\libc.a(lib_a-svfiprintf.o)
 .debug_frame   0x00001e68       0xc0 c:/program files (x86)/gnu arm embedded toolchain/9 2020-q2-update/bin/../lib/gcc/arm-none-eabi/9.3.1/../../../../arm-none-eabi/lib/thumb/v7e-m+dp/hard\libc.a(lib_a-svfiscanf.o)
 .debug_frame   0x00001f28       0x5c c:/program files (x86)/gnu arm embedded toolchain/9 2020-q2-update/bin/../lib/gcc/arm-none-eabi/9.3.1/../../../../arm-none-eabi/lib/thumb/v7e-m+dp/hard\libc.a(lib_a-ungetc.o)
 .debug_frame   0x00001f84       0xe8 c:/program files (x86)/gnu arm embedded toolchain/9 2020-q2-update/bin/../lib/gcc/arm-none-eabi/9.3.1/../../../../arm-none-eabi/lib/thumb/v7e-m+dp/hard\libc.a(lib_a-vfiprintf.o)
 .debug_frame   0x0000206c       0x3c c:/program files (x86)/gnu arm embedded toolchain/9 2020-q2-update/bin/../lib/gcc/arm-none-eabi/9.3.1/../../../../arm-none-eabi/lib/thumb/v7e-m+dp/hard\libc.a(lib_a-wctomb_r.o)
 .debug_frame   0x000020a8       0x40 c:/program files (x86)/gnu arm embedded toolchain/9 2020-q2-update/bin/../lib/gcc/arm-none-eabi/9.3.1/../../../../arm-none-eabi/lib/thumb/v7e-m+dp/hard\libc.a(lib_a-assert.o)
 .debug_frame   0x000020e8       0x28 c:/program files (x86)/gnu arm embedded toolchain/9 2020-q2-update/bin/../lib/gcc/arm-none-eabi/9.3.1/../../../../arm-none-eabi/lib/thumb/v7e-m+dp/hard\libc.a(lib_a-callocr.o)
 .debug_frame   0x00002110       0x30 c:/program files (x86)/gnu arm embedded toolchain/9 2020-q2-update/bin/../lib/gcc/arm-none-eabi/9.3.1/../../../../arm-none-eabi/lib/thumb/v7e-m+dp/hard\libc.a(lib_a-envlock.o)
 .debug_frame   0x00002140       0x3c c:/program files (x86)/gnu arm embedded toolchain/9 2020-q2-update/bin/../lib/gcc/arm-none-eabi/9.3.1/../../../../arm-none-eabi/lib/thumb/v7e-m+dp/hard\libc.a(lib_a-fclose.o)
 .debug_frame   0x0000217c       0x70 c:/program files (x86)/gnu arm embedded toolchain/9 2020-q2-update/bin/../lib/gcc/arm-none-eabi/9.3.1/../../../../arm-none-eabi/lib/thumb/v7e-m+dp/hard\libc.a(lib_a-fiprintf.o)
 .debug_frame   0x000021ec       0xa4 c:/program files (x86)/gnu arm embedded toolchain/9 2020-q2-update/bin/../lib/gcc/arm-none-eabi/9.3.1/../../../../arm-none-eabi/lib/thumb/v7e-m+dp/hard\libc.a(lib_a-fputwc.o)
 .debug_frame   0x00002290       0x2c c:/program files (x86)/gnu arm embedded toolchain/9 2020-q2-update/bin/../lib/gcc/arm-none-eabi/9.3.1/../../../../arm-none-eabi/lib/thumb/v7e-m+dp/hard\libc.a(lib_a-fstatr.o)
 .debug_frame   0x000022bc       0x64 c:/program files (x86)/gnu arm embedded toolchain/9 2020-q2-update/bin/../lib/gcc/arm-none-eabi/9.3.1/../../../../arm-none-eabi/lib/thumb/v7e-m+dp/hard\libc.a(lib_a-fvwrite.o)
 .debug_frame   0x00002320       0x2c c:/program files (x86)/gnu arm embedded toolchain/9 2020-q2-update/bin/../lib/gcc/arm-none-eabi/9.3.1/../../../../arm-none-eabi/lib/thumb/v7e-m+dp/hard\libc.a(lib_a-isattyr.o)
 .debug_frame   0x0000234c       0x40 c:/program files (x86)/gnu arm embedded toolchain/9 2020-q2-update/bin/../lib/gcc/arm-none-eabi/9.3.1/../../../../arm-none-eabi/lib/thumb/v7e-m+dp/hard\libc.a(lib_a-wbuf.o)
 .debug_frame   0x0000238c       0x60 c:/program files (x86)/gnu arm embedded toolchain/9 2020-q2-update/bin/../lib/gcc/arm-none-eabi/9.3.1/../../../../arm-none-eabi/lib/thumb/v7e-m+dp/hard\libc.a(lib_a-wcrtomb.o)
 .debug_frame   0x000023ec       0x28 c:/program files (x86)/gnu arm embedded toolchain/9 2020-q2-update/bin/../lib/gcc/arm-none-eabi/9.3.1/../../../../arm-none-eabi/lib/thumb/v7e-m+dp/hard\libc.a(lib_a-abort.o)
 .debug_frame   0x00002414       0xe0 c:/program files (x86)/gnu arm embedded toolchain/9 2020-q2-update/bin/../lib/gcc/arm-none-eabi/9.3.1/../../../../arm-none-eabi/lib/thumb/v7e-m+dp/hard\libc.a(lib_a-signal.o)
 .debug_frame   0x000024f4       0x3c c:/program files (x86)/gnu arm embedded toolchain/9 2020-q2-update/bin/../lib/gcc/arm-none-eabi/9.3.1/../../../../arm-none-eabi/lib/thumb/v7e-m+dp/hard\libc.a(lib_a-signalr.o)
 .debug_frame   0x00002530       0x20 c:/program files (x86)/gnu arm embedded toolchain/9 2020-q2-update/bin/../lib/gcc/arm-none-eabi/9.3.1/../../../../arm-none-eabi/lib/thumb/v7e-m+dp/hard\libnosys.a(close.o)
 .debug_frame   0x00002550       0x20 c:/program files (x86)/gnu arm embedded toolchain/9 2020-q2-update/bin/../lib/gcc/arm-none-eabi/9.3.1/../../../../arm-none-eabi/lib/thumb/v7e-m+dp/hard\libnosys.a(fstat.o)
 .debug_frame   0x00002570       0x20 c:/program files (x86)/gnu arm embedded toolchain/9 2020-q2-update/bin/../lib/gcc/arm-none-eabi/9.3.1/../../../../arm-none-eabi/lib/thumb/v7e-m+dp/hard\libnosys.a(getpid.o)
 .debug_frame   0x00002590       0x20 c:/program files (x86)/gnu arm embedded toolchain/9 2020-q2-update/bin/../lib/gcc/arm-none-eabi/9.3.1/../../../../arm-none-eabi/lib/thumb/v7e-m+dp/hard\libnosys.a(isatty.o)
 .debug_frame   0x000025b0       0x20 c:/program files (x86)/gnu arm embedded toolchain/9 2020-q2-update/bin/../lib/gcc/arm-none-eabi/9.3.1/../../../../arm-none-eabi/lib/thumb/v7e-m+dp/hard\libnosys.a(kill.o)
 .debug_frame   0x000025d0       0x20 c:/program files (x86)/gnu arm embedded toolchain/9 2020-q2-update/bin/../lib/gcc/arm-none-eabi/9.3.1/../../../../arm-none-eabi/lib/thumb/v7e-m+dp/hard\libnosys.a(lseek.o)
 .debug_frame   0x000025f0       0x20 c:/program files (x86)/gnu arm embedded toolchain/9 2020-q2-update/bin/../lib/gcc/arm-none-eabi/9.3.1/../../../../arm-none-eabi/lib/thumb/v7e-m+dp/hard\libnosys.a(read.o)
 .debug_frame   0x00002610       0x20 c:/program files (x86)/gnu arm embedded toolchain/9 2020-q2-update/bin/../lib/gcc/arm-none-eabi/9.3.1/../../../../arm-none-eabi/lib/thumb/v7e-m+dp/hard\libnosys.a(sbrk.o)
 .debug_frame   0x00002630       0x20 c:/program files (x86)/gnu arm embedded toolchain/9 2020-q2-update/bin/../lib/gcc/arm-none-eabi/9.3.1/../../../../arm-none-eabi/lib/thumb/v7e-m+dp/hard\libnosys.a(write.o)
 .debug_frame   0x00002650       0x20 c:/program files (x86)/gnu arm embedded toolchain/9 2020-q2-update/bin/../lib/gcc/arm-none-eabi/9.3.1/../../../../arm-none-eabi/lib/thumb/v7e-m+dp/hard\libnosys.a(_exit.o)

.stab           0x00000000       0xcc
 .stab          0x00000000       0x24 c:/program files (x86)/gnu arm embedded toolchain/9 2020-q2-update/bin/../lib/gcc/arm-none-eabi/9.3.1/../../../../arm-none-eabi/lib/thumb/v7e-m+dp/hard\libnosys.a(close.o)
 .stab          0x00000024       0x18 c:/program files (x86)/gnu arm embedded toolchain/9 2020-q2-update/bin/../lib/gcc/arm-none-eabi/9.3.1/../../../../arm-none-eabi/lib/thumb/v7e-m+dp/hard\libnosys.a(fstat.o)
                                 0x24 (size before relaxing)
 .stab          0x0000003c       0x18 c:/program files (x86)/gnu arm embedded toolchain/9 2020-q2-update/bin/../lib/gcc/arm-none-eabi/9.3.1/../../../../arm-none-eabi/lib/thumb/v7e-m+dp/hard\libnosys.a(getpid.o)
                                 0x24 (size before relaxing)
 .stab          0x00000054       0x18 c:/program files (x86)/gnu arm embedded toolchain/9 2020-q2-update/bin/../lib/gcc/arm-none-eabi/9.3.1/../../../../arm-none-eabi/lib/thumb/v7e-m+dp/hard\libnosys.a(isatty.o)
                                 0x24 (size before relaxing)
 .stab          0x0000006c       0x18 c:/program files (x86)/gnu arm embedded toolchain/9 2020-q2-update/bin/../lib/gcc/arm-none-eabi/9.3.1/../../../../arm-none-eabi/lib/thumb/v7e-m+dp/hard\libnosys.a(kill.o)
                                 0x24 (size before relaxing)
 .stab          0x00000084       0x18 c:/program files (x86)/gnu arm embedded toolchain/9 2020-q2-update/bin/../lib/gcc/arm-none-eabi/9.3.1/../../../../arm-none-eabi/lib/thumb/v7e-m+dp/hard\libnosys.a(lseek.o)
                                 0x24 (size before relaxing)
 .stab          0x0000009c       0x18 c:/program files (x86)/gnu arm embedded toolchain/9 2020-q2-update/bin/../lib/gcc/arm-none-eabi/9.3.1/../../../../arm-none-eabi/lib/thumb/v7e-m+dp/hard\libnosys.a(read.o)
                                 0x24 (size before relaxing)
 .stab          0x000000b4       0x18 c:/program files (x86)/gnu arm embedded toolchain/9 2020-q2-update/bin/../lib/gcc/arm-none-eabi/9.3.1/../../../../arm-none-eabi/lib/thumb/v7e-m+dp/hard\libnosys.a(write.o)
                                 0x24 (size before relaxing)

.stabstr        0x00000000      0x1b9
 .stabstr       0x00000000      0x1b9 c:/program files (x86)/gnu arm embedded toolchain/9 2020-q2-update/bin/../lib/gcc/arm-none-eabi/9.3.1/../../../../arm-none-eabi/lib/thumb/v7e-m+dp/hard\libnosys.a(close.o)
